
avr_DF4IAH_10MHz_Reference.elf:     file format elf32-avr

Sections:
Idx Name          Size      VMA       LMA       File off  Algn
  0 .data         00000010  00800100  00002ad4  00002cc8  2**0
                  CONTENTS, ALLOC, LOAD, DATA
  1 .text         00002ad4  00000000  00000000  000001f4  2**1
                  CONTENTS, ALLOC, LOAD, READONLY, CODE
  2 .df4iah_fw_main 0000152a  00003000  00003000  00002cd8  2**1
                  CONTENTS, ALLOC, LOAD, READONLY, CODE
  3 .df4iah_fw_usb 00000280  00004a00  00004a00  00004202  2**1
                  CONTENTS, ALLOC, LOAD, READONLY, CODE
  4 .df4iah_fw_clkpullpwm 0000009a  00005900  00005900  00004df0  2**1
                  CONTENTS, ALLOC, LOAD, READONLY, CODE
  5 .df4iah_fw_clkfastctr 0000010e  00005a00  00005a00  00004e8a  2**1
                  CONTENTS, ALLOC, LOAD, READONLY, CODE
  6 .df4iah_fw_anlgcomp 00000146  00005680  00005680  00004caa  2**1
                  CONTENTS, ALLOC, LOAD, READONLY, CODE
  7 .df4iah_fw_memory 00000586  00005000  00005000  00004724  2**1
                  CONTENTS, ALLOC, LOAD, READONLY, CODE
  8 .df4iah_fw_serial 000002a2  00004d00  00004d00  00004482  2**1
                  CONTENTS, ALLOC, LOAD, READONLY, CODE
  9 .df4iah_bl_memory 000002c8  00007900  00007900  0000502a  2**1
                  CONTENTS, ALLOC, LOAD, READONLY, CODE
 10 .df4iah_bl_probe 0000003c  000078c0  000078c0  00004fee  2**1
                  CONTENTS, ALLOC, LOAD, READONLY, CODE
 11 .df4iah_bl_clkpullpwm 00000056  00007780  00007780  00004f98  2**1
                  CONTENTS, ALLOC, LOAD, READONLY, CODE
 12 .bss          0000045e  00800110  00800110  000052f2  2**0
                  ALLOC
 13 .eeprom       00000400  00810000  00810000  000052f2  2**1
                  CONTENTS, ALLOC, LOAD, DATA
 14 .stab         00000c3c  00000000  00000000  000056f4  2**2
                  CONTENTS, READONLY, DEBUGGING
 15 .stabstr      0000016b  00000000  00000000  00006330  2**0
                  CONTENTS, READONLY, DEBUGGING
 16 .comment      00000011  00000000  00000000  0000649b  2**0
                  CONTENTS, READONLY
 17 .debug_info   000005f4  00000000  00000000  000064ac  2**0
                  CONTENTS, READONLY, DEBUGGING
 18 .debug_abbrev 000005a2  00000000  00000000  00006aa0  2**0
                  CONTENTS, READONLY, DEBUGGING
 19 .debug_line   0000001d  00000000  00000000  00007042  2**0
                  CONTENTS, READONLY, DEBUGGING
 20 .debug_str    00000208  00000000  00000000  0000705f  2**0
                  CONTENTS, READONLY, DEBUGGING

Disassembly of section .text:

00000000 <__vectors>:
       0:	0c 94 00 05 	jmp	0xa00	; 0xa00 <__ctors_end>
       4:	0c 94 48 05 	jmp	0xa90	; 0xa90 <__vector_1>
       8:	0c 94 1d 05 	jmp	0xa3a	; 0xa3a <__bad_interrupt>
       c:	0c 94 1d 05 	jmp	0xa3a	; 0xa3a <__bad_interrupt>
      10:	0c 94 1d 05 	jmp	0xa3a	; 0xa3a <__bad_interrupt>
      14:	0c 94 1d 05 	jmp	0xa3a	; 0xa3a <__bad_interrupt>
      18:	0c 94 00 18 	jmp	0x3000	; 0x3000 <__vector_6>
      1c:	0c 94 1d 05 	jmp	0xa3a	; 0xa3a <__bad_interrupt>
      20:	0c 94 1d 05 	jmp	0xa3a	; 0xa3a <__bad_interrupt>
      24:	0c 94 1d 05 	jmp	0xa3a	; 0xa3a <__bad_interrupt>
      28:	0c 94 48 2d 	jmp	0x5a90	; 0x5a90 <__vector_10>
      2c:	0c 94 22 2d 	jmp	0x5a44	; 0x5a44 <__vector_11>
      30:	0c 94 1d 05 	jmp	0xa3a	; 0xa3a <__bad_interrupt>
      34:	0c 94 1d 05 	jmp	0xa3a	; 0xa3a <__bad_interrupt>
      38:	0c 94 1d 05 	jmp	0xa3a	; 0xa3a <__bad_interrupt>
      3c:	0c 94 1d 05 	jmp	0xa3a	; 0xa3a <__bad_interrupt>
      40:	0c 94 ad 2c 	jmp	0x595a	; 0x595a <__vector_16>
      44:	0c 94 1d 05 	jmp	0xa3a	; 0xa3a <__bad_interrupt>
      48:	0c 94 59 27 	jmp	0x4eb2	; 0x4eb2 <__vector_18>
      4c:	0c 94 96 27 	jmp	0x4f2c	; 0x4f2c <__vector_19>
      50:	0c 94 c6 27 	jmp	0x4f8c	; 0x4f8c <__vector_20>
      54:	0c 94 7c 2b 	jmp	0x56f8	; 0x56f8 <__vector_21>
      58:	0c 94 1d 05 	jmp	0xa3a	; 0xa3a <__bad_interrupt>
      5c:	0c 94 1d 05 	jmp	0xa3a	; 0xa3a <__bad_interrupt>
      60:	0c 94 1d 05 	jmp	0xa3a	; 0xa3a <__bad_interrupt>
      64:	0c 94 1d 05 	jmp	0xa3a	; 0xa3a <__bad_interrupt>
      68:	15 1c       	adc	r1, r5
      6a:	21 1c       	adc	r2, r1
      6c:	2d 1c       	adc	r2, r13
      6e:	39 1c       	adc	r3, r9
      70:	45 1c       	adc	r4, r5
      72:	51 1c       	adc	r5, r1
      74:	5d 1c       	adc	r5, r13
      76:	69 1c       	adc	r6, r9
      78:	75 1c       	adc	r7, r5
      7a:	81 1c       	adc	r8, r1
      7c:	8d 1c       	adc	r8, r13
      7e:	99 1c       	adc	r9, r9
      80:	a5 1c       	adc	r10, r5
      82:	08 00       	.word	0x0008	; ????
      84:	00 00       	nop
      86:	be 92       	st	-X, r11
      88:	24 49       	sbci	r18, 0x94	; 148
      8a:	12 3e       	cpi	r17, 0xE2	; 226
      8c:	ab aa       	std	Y+51, r10	; 0x33
      8e:	aa 2a       	or	r10, r26
      90:	be cd       	rjmp	.-1156   	; 0xfffffc0e <__eeprom_end+0xff7ef80e>
      92:	cc cc       	rjmp	.-1640   	; 0xfffffa2c <__eeprom_end+0xff7ef62c>
      94:	4c 3e       	cpi	r20, 0xEC	; 236
      96:	00 00       	nop
      98:	00 80       	ld	r0, Z
      9a:	be ab       	std	Y+54, r27	; 0x36
      9c:	aa aa       	std	Y+50, r10	; 0x32
      9e:	aa 3e       	cpi	r26, 0xEA	; 234
      a0:	00 00       	nop
      a2:	00 00       	nop
      a4:	bf 00       	.word	0x00bf	; ????
      a6:	00 00       	nop
      a8:	80 3f       	cpi	r24, 0xF0	; 240
      aa:	00 00       	nop
      ac:	00 00       	nop
      ae:	00 08       	sbc	r0, r0
      b0:	41 78       	andi	r20, 0x81	; 129
      b2:	d3 bb       	out	0x13, r29	; 19
      b4:	43 87       	std	Z+11, r20	; 0x0b
      b6:	d1 13       	cpse	r29, r17
      b8:	3d 19       	sub	r19, r13
      ba:	0e 3c       	cpi	r16, 0xCE	; 206
      bc:	c3 bd       	out	0x23, r28	; 35
      be:	42 82       	std	Z+2, r4	; 0x02
      c0:	ad 2b       	or	r26, r29
      c2:	3e 68       	ori	r19, 0x8E	; 142
      c4:	ec 82       	std	Y+4, r14	; 0x04
      c6:	76 be       	out	0x36, r7	; 54
      c8:	d9 8f       	std	Y+25, r29	; 0x19
      ca:	e1 a9       	ldd	r30, Z+49	; 0x31
      cc:	3e 4c       	sbci	r19, 0xCE	; 206
      ce:	80 ef       	ldi	r24, 0xF0	; 240
      d0:	ff be       	out	0x3f, r15	; 63
      d2:	01 c4       	rjmp	.+2050   	; 0x8d6 <pwr_m10+0x1>
      d4:	ff 7f       	andi	r31, 0xFF	; 255
      d6:	3f 00       	.word	0x003f	; ????
      d8:	00 00       	nop
	...

000000dc <__trampolines_end>:
      dc:	09 02       	muls	r16, r25
      de:	19 00       	.word	0x0019	; ????
      e0:	01 01       	movw	r0, r2
      e2:	00 80       	ld	r0, Z
      e4:	69 09       	sbc	r22, r9
      e6:	04 00       	.word	0x0004	; ????
      e8:	00 01       	movw	r0, r0
      ea:	ff 00       	.word	0x00ff	; ????
      ec:	00 00       	nop
      ee:	07 05       	cpc	r16, r7
      f0:	81 03       	fmuls	r16, r17
      f2:	08 00       	.word	0x0008	; ????
      f4:	0a 12       	cpse	r0, r26

000000f5 <usbDescriptorDevice>:
      f5:	12 01 10 01 ff 00 00 08 c0 16 dc 05 00 01 01 02     ................
     105:	03 01                                               ..

00000107 <usbDescriptorStringSerialNumber>:
     107:	10 03 50 00 72 00 6f 00 74 00 6f 00 2d 00 31 00     ..P.r.o.t.o.-.1.

00000117 <usbDescriptorStringDevice>:
     117:	2a 03 44 00 46 00 34 00 49 00 41 00 48 00 2d 00     *.D.F.4.I.A.H.-.
     127:	31 00 30 00 4d 00 48 00 7a 00 2d 00 52 00 65 00     1.0.M.H.z.-.R.e.
     137:	66 00 2d 00 4f 00 73 00 63 00                       f.-.O.s.c.

00000141 <usbDescriptorStringVendor>:
     141:	0e 03 44 00 46 00 34 00 49 00 41 00 48 00           ..D.F.4.I.A.H.

0000014f <usbDescriptorString0>:
     14f:	04 03 09 04                                         ....

00000153 <PM_FORMAT_SET_BAUD>:
     153:	43 6f 6d 6d 75 6e 69 63 61 74 69 6f 6e 20 62 61     Communication ba
     163:	75 64 20 72 61 74 65 20 73 65 74 20 74 6f 20 25     ud rate set to %
     173:	35 75 20 62 61 75 64 2e 0a 00                       5u baud...

0000017d <PM_FORMAT_GPIB_SCM_IDN>:
     17d:	44 46 34 49 41 48 2c 25 73 2c 25 30 35 75 2c 56     DF4IAH,%s,%05u,V
     18d:	32 30 25 30 33 75 25 30 33 75 2e 00                 20%03u%03u..

00000199 <PM_FORMAT_IA02>:
     199:	23 49 41 30 32 3a 20 6d 61 69 6e 50 77 6d 48 69     #IA02: mainPwmHi
     1a9:	73 74 41 76 67 20 3d 20 25 30 33 2e 33 66 2c 20     stAvg = %03.3f, 
     1b9:	09 70 77 6d 44 65 76 4c 69 6e 5f 73 74 65 70 73     .pwmDevLin_steps
     1c9:	20 3d 20 25 2b 30 33 2e 33 66 2c 20 09 70 77 6d      = %+03.3f, .pwm
     1d9:	44 65 76 57 67 68 74 5f 73 74 65 70 73 20 3d 20     DevWght_steps = 
     1e9:	25 2b 30 33 2e 33 66 2c 20 09 6e 65 77 50 77 6d     %+03.3f, .newPwm
     1f9:	56 61 6c 20 3d 20 25 30 33 2e 33 66 0a 0a 00        Val = %03.3f...

00000208 <PM_FORMAT_IA01>:
     208:	23 49 41 30 31 3a 20 6c 6f 63 61 6c 43 6c 6f 63     #IA01: localCloc
     218:	6b 44 69 66 66 20 3d 20 25 2b 34 6c 64 20 40 32     kDiff = %+4ld @2
     228:	30 4d 48 7a 2c 20 09 6c 6f 63 61 6c 43 6c 6f 63     0MHz, .localCloc
     238:	6b 41 76 67 20 3d 20 25 2b 34 2e 32 66 20 40 32     kAvg = %+4.2f @2
     248:	30 4d 48 7a 2c 20 09 71 72 67 44 65 76 5f 48 7a     0MHz, .qrgDev_Hz
     258:	20 3d 20 25 2b 34 64 48 7a 20 40 31 30 4d 48 7a      = %+4dHz @10MHz
     268:	2c 20 09 70 70 6d 20 3d 20 25 2b 30 32 2e 33 66     , .ppm = %+02.3f
     278:	0a 00                                               ..

0000027a <PM_FORMAT_ID02>:
     27a:	23 49 44 30 32 3a 20 2b 2f 2d 20 4b 45 59 20 09     #ID02: +/- KEY .
     28a:	6d 61 69 6e 50 77 6d 54 65 72 6d 69 6e 61 6c 41     mainPwmTerminalA
     29a:	64 6a 20 3d 20 25 66 2c 20 09 6c 6f 63 61 6c 46     dj = %f, .localF
     2aa:	61 73 74 50 77 6d 56 61 6c 4e 65 78 74 20 3d 20     astPwmValNext = 
     2ba:	25 30 33 75 20 2b 20 6c 6f 63 61 6c 46 61 73 74     %03u + localFast
     2ca:	50 77 6d 53 75 62 43 6d 70 4e 65 78 74 20 3d 20     PwmSubCmpNext = 
     2da:	25 30 33 75 0a 0a 00                                %03u...

000002e1 <PM_FORMAT_ID01>:
     2e1:	23 49 44 30 31 3a 20 2b 2f 2d 20 4b 45 59 20 09     #ID01: +/- KEY .
     2f1:	6d 61 69 6e 50 77 6d 54 65 72 6d 69 6e 61 6c 41     mainPwmTerminalA
     301:	64 6a 20 3d 20 25 66 2c 20 09 70 75 6c 6c 50 77     dj = %f, .pullPw
     311:	6d 56 61 6c 42 65 66 6f 72 65 20 20 20 20 3d 20     mValBefore    = 
     321:	25 30 33 75 20 2b 20 66 61 73 74 50 77 6d 53 75     %03u + fastPwmSu
     331:	62 43 6d 70 42 65 66 6f 72 65 20 20 20 20 3d 20     bCmpBefore    = 
     341:	25 30 33 75 0a 00                                   %03u..

00000347 <PM_FORMAT_TA14>:
     347:	23 54 41 31 34 3a 20 3d 3d 3d 3d 3d 3d 3d 0a 0a     #TA14: =======..
	...

00000358 <PM_FORMAT_TA13>:
     358:	23 54 41 31 33 3a 20 6d 61 69 6e 52 65 66 43 6c     #TA13: mainRefCl
     368:	6b 53 74 61 74 65 20 3d 20 25 75 0a 00              kState = %u..

00000375 <PM_FORMAT_TA12>:
     375:	23 54 41 31 32 3a 20 50 57 4d 20 3d 20 25 30 33     #TA12: PWM = %03
     385:	75 2c 20 09 53 75 62 2d 50 57 4d 20 3d 20 25 30     u, .Sub-PWM = %0
     395:	33 75 0a 00                                         3u..

00000399 <PM_FORMAT_TA11>:
     399:	23 54 41 31 31 3a 20 6c 6f 63 61 6c 46 61 73 74     #TA11: localFast
     3a9:	43 74 72 31 6d 73 20 3d 20 25 30 39 6c 75 2c 20     Ctr1ms = %09lu, 
     3b9:	09 6c 6f 63 61 6c 46 61 73 74 54 43 4e 54 31 20     .localFastTCNT1 
     3c9:	3d 20 25 30 35 75 2c 20 09 6c 6f 63 61 6c 53 74     = %05u, .localSt
     3d9:	61 6d 70 43 74 72 31 6d 73 20 3d 20 25 30 39 6c     ampCtr1ms = %09l
     3e9:	75 2c 20 09 6c 6f 63 61 6c 53 74 61 6d 70 54 43     u, .localStampTC
     3f9:	4e 54 31 20 3d 20 25 30 35 75 0a 00                 NT1 = %05u..

00000405 <PM_FORMAT_TA03>:
     405:	23 54 41 30 33 3a 20 54 65 6d 70 20 3d 20 25 30     #TA03: Temp = %0
     415:	34 75 20 28 25 30 2e 31 66 43 29 0a 00              4u (%0.1fC)..

00000422 <PM_FORMAT_TA02>:
     422:	23 54 41 30 32 3a 20 41 44 43 31 20 3d 20 25 30     #TA02: ADC1 = %0
     432:	34 75 20 28 25 30 2e 33 66 56 29 0a 00              4u (%0.3fV)..

0000043f <PM_FORMAT_TA01>:
     43f:	23 54 41 30 31 3a 20 41 44 43 30 20 3d 20 25 30     #TA01: ADC0 = %0
     44f:	34 75 20 28 25 30 2e 33 66 56 29 0a 00              4u (%0.3fV)..

0000045c <PM_FORMAT_VERSION>:
     45c:	0a 3d 3d 3d 20 44 46 34 49 41 48 20 2d 20 31 30     .=== DF4IAH - 10
     46c:	20 4d 48 7a 20 52 65 66 65 72 65 6e 63 65 20 4f      MHz Reference O
     47c:	73 63 69 6c 6c 61 74 6f 72 20 3d 3d 3d 0a 3d 3d     scillator ===.==
     48c:	3d 20 56 65 72 3a 20 32 30 25 30 33 64 25 30 33     = Ver: 20%03d%03
     49c:	64 0a 00                                            d..

0000049f <PM_INTERPRETER_UNKNOWN>:
     49f:	2a 3f 2a 20 20 75 6e 6b 6e 6f 77 6e 20 63 6f 6d     *?*  unknown com
     4af:	6d 61 6e 64 20 27 25 73 27 20 72 65 63 65 69 76     mand '%s' receiv
     4bf:	65 64 2c 20 74 72 79 20 48 45 4c 50 2e 0a 0a 3e     ed, try HELP...>
	...

000004d0 <PM_INTERPRETER_HELP14>:
     4d0:	3d 3d 3d 3d 3d 3d 3d 3d 3d 3d 3d 0a 0a 3e 00        ===========..>.

000004df <PM_INTERPRETER_HELP13>:
     4df:	2b 2f 2d 20 3c 50 57 4d 20 76 61 6c 75 65 3e 09     +/- <PWM value>.
     4ef:	09 63 6f 72 72 65 63 74 69 6f 6e 20 76 61 6c 75     .correction valu
     4ff:	65 20 74 6f 20 62 65 20 61 64 64 65 64 2e 0a 00     e to be added...

0000050f <PM_INTERPRETER_HELP12>:
     50f:	57 52 49 54 45 50 57 4d 09 09 09 73 74 6f 72 65     WRITEPWM...store
     51f:	20 63 75 72 72 65 6e 74 20 50 57 4d 20 61 73 20      current PWM as 
     52f:	64 65 66 61 75 6c 74 20 76 61 6c 75 65 2e 0a 00     default value...

0000053f <PM_INTERPRETER_HELP11>:
     53f:	54 45 53 54 09 09 09 09 74 6f 67 67 6c 65 73 20     TEST....toggles 
     54f:	63 6f 75 6e 74 65 72 20 74 65 73 74 2e 0a 00        counter test...

0000055e <PM_INTERPRETER_HELP10>:
     55e:	53 45 52 4f 46 46 09 09 09 09 73 77 69 74 63 68     SEROFF....switch
     56e:	20 73 65 72 69 61 6c 20 63 6f 6d 6d 75 6e 69 63      serial communic
     57e:	61 74 69 6f 6e 20 4f 46 46 2e 0a 53 45 52 4f 4e     ation OFF..SERON
     58e:	09 09 09 09 73 77 69 74 63 68 20 73 65 72 69 61     ....switch seria
     59e:	6c 20 63 6f 6d 6d 75 6e 69 63 61 74 69 6f 6e 20     l communication 
     5ae:	4f 4e 2e 0a 00                                      ON...

000005b3 <PM_INTERPRETER_HELP09>:
     5b3:	0a 53 45 52 42 41 55 44 20 3c 62 61 75 64 3e 09     .SERBAUD <baud>.
     5c3:	09 09 73 65 74 74 69 6e 67 20 73 65 72 69 61 6c     ..setting serial
     5d3:	20 62 61 75 64 20 72 61 74 65 2e 0a 00               baud rate...

000005e0 <PM_INTERPRETER_HELP08>:
     5e0:	52 45 42 4f 4f 54 09 09 09 09 72 65 62 6f 6f 74     REBOOT....reboot
     5f0:	20 74 68 65 20 66 69 72 6d 77 61 72 65 2e 0a 00      the firmware...

00000600 <PM_INTERPRETER_HELP07>:
     600:	4c 4f 41 44 45 52 09 09 09 09 65 6e 74 65 72 20     LOADER....enter 
     610:	62 6f 6f 74 6c 6f 61 64 65 72 2e 0a 00              bootloader...

0000061d <PM_INTERPRETER_HELP06>:
     61d:	49 4e 46 4f 09 09 09 09 74 6f 67 67 6c 65 73 20     INFO....toggles 
     62d:	61 64 64 69 74 69 6f 6e 61 6c 20 70 72 69 6e 74     additional print
     63d:	65 64 20 69 6e 66 6f 73 2e 0a 00                    ed infos...

00000648 <PM_INTERPRETER_HELP05>:
     648:	48 45 4c 50 09 09 09 09 74 68 69 73 20 6d 65 73     HELP....this mes
     658:	73 61 67 65 2e 0a 00                                sage...

0000065f <PM_INTERPRETER_HELP04>:
     65f:	48 41 4c 54 09 09 09 09 70 6f 77 65 72 73 20 74     HALT....powers t
     66f:	68 65 20 64 65 76 69 63 65 20 64 6f 77 6e 20 28     he device down (
     67f:	73 6c 65 65 70 20 6d 6f 64 65 29 2e 0a 00           sleep mode)...

0000068d <PM_INTERPRETER_HELP03>:
     68d:	41 50 43 4f 46 46 09 09 09 09 73 77 69 74 63 68     APCOFF....switch
     69d:	20 41 50 43 20 28 61 75 74 6f 6d 61 74 69 63 20      APC (automatic 
     6ad:	70 68 61 73 65 20 63 6f 6e 74 72 6f 6c 29 20 6f     phase control) o
     6bd:	66 66 2e 0a 41 50 43 4f 4e 09 09 09 09 73 77 69     ff..APCON....swi
     6cd:	74 63 68 20 41 50 43 20 28 61 75 74 6f 6d 61 74     tch APC (automat
     6dd:	69 63 20 70 68 61 73 65 20 63 6f 6e 74 72 6f 6c     ic phase control
     6ed:	29 20 6f 6e 2e 0a 00                                ) on...

000006f4 <PM_INTERPRETER_HELP02>:
     6f4:	41 46 43 4f 46 46 09 09 09 09 73 77 69 74 63 68     AFCOFF....switch
     704:	20 41 46 43 20 28 61 75 74 6f 6d 61 74 69 63 20      AFC (automatic 
     714:	66 72 65 71 75 65 6e 63 79 20 63 6f 6e 74 72 6f     frequency contro
     724:	6c 29 20 6f 66 66 2e 0a 41 46 43 4f 4e 09 09 09     l) off..AFCON...
     734:	09 73 77 69 74 63 68 20 41 46 43 20 28 61 75 74     .switch AFC (aut
     744:	6f 6d 61 74 69 63 20 66 72 65 71 75 65 6e 63 79     omatic frequency
     754:	20 63 6f 6e 74 72 6f 6c 29 20 6f 6e 2e 0a 00         control) on...

00000763 <PM_INTERPRETER_HELP01>:
     763:	0a 0a 3d 3d 3d 20 48 45 4c 50 20 3d 3d 3d 0a 0a     ..=== HELP ===..
     773:	24 20 3c 4e 4d 45 41 2d 4d 65 73 73 61 67 65 3e     $ <NMEA-Message>
     783:	09 09 73 65 6e 64 73 20 6d 65 73 73 61 67 65 20     ..sends message 
     793:	74 6f 20 74 68 65 20 47 50 53 20 6d 6f 64 75 6c     to the GPS modul
     7a3:	65 2e 0a 00                                         e...

000007a7 <PM_GPIB_SCM_RST>:
     7a7:	2a 52 53 54 00                                      *RST.

000007ac <PM_GPIB_SCM_IDN>:
     7ac:	2a 49 44 4e 3f 00                                   *IDN?.

000007b2 <PM_COMMAND_MINUSSIGN>:
     7b2:	2d 00                                               -.

000007b4 <PM_COMMAND_PLUSSIGN>:
     7b4:	2b 00                                               +.

000007b6 <PM_COMMAND_WRITEPWM>:
     7b6:	57 52 49 54 45 50 57 4d 00                          WRITEPWM.

000007bf <PM_COMMAND_TEST>:
     7bf:	54 45 53 54 00                                      TEST.

000007c4 <PM_COMMAND_SERBAUD>:
     7c4:	53 45 52 42 41 55 44 00                             SERBAUD.

000007cc <PM_COMMAND_SERON>:
     7cc:	53 45 52 4f 4e 00                                   SERON.

000007d2 <PM_COMMAND_SEROFF>:
     7d2:	53 45 52 4f 46 46 00                                SEROFF.

000007d9 <PM_COMMAND_REBOOT>:
     7d9:	52 45 42 4f 4f 54 00                                REBOOT.

000007e0 <PM_COMMAND_LOADER>:
     7e0:	4c 4f 41 44 45 52 00                                LOADER.

000007e7 <PM_COMMAND_INFO>:
     7e7:	49 4e 46 4f 00                                      INFO.

000007ec <PM_COMMAND_HELP>:
     7ec:	48 45 4c 50 00                                      HELP.

000007f1 <PM_COMMAND_HALT>:
     7f1:	48 41 4c 54 00                                      HALT.

000007f6 <PM_COMMAND_APCON>:
     7f6:	41 50 43 4f 4e 00                                   APCON.

000007fc <PM_COMMAND_APCOFF>:
     7fc:	41 50 43 4f 46 46 00                                APCOFF.

00000803 <PM_COMMAND_AFCON>:
     803:	41 46 43 4f 4e 00                                   AFCON.

00000809 <PM_COMMAND_AFCOFF>:
     809:	41 46 43 4f 46 46 00                                AFCOFF.

00000810 <eeprom_defaultValues_content>:
     810:	44 46 34 49 41 48 20 31 30 4d 68 7a 2d 52 65 66     DF4IAH 10Mhz-Ref
     820:	d8 96 00 00 ff ff ff ff ff ff ff ff 00 00 0c b0     ................
     830:	a5 2c 8f 40 48 e1 8a 3f 00 80 ae 43 00 a0 87 3f     .,.@H..?...C...?
     840:	ff ff ff ff ff ff ff ff ff ff ff ff 00 00 1c b0     ................
     850:	a0 94 18 4b 70 97 18 4b 00 00 40 40 00 00 00 00     ...Kp..K..@@....
     860:	00 00 3e 43 00 00 00 00 ba ff ff ff 00 00 2c b0     ..>C..........,.
     870:	c0 12 08 01 00 00 00 00 ff ff ff ff ff ff ff ff     ................
     880:	ff ff ff ff ff ff ff ff ff ff ff ff 00 00 3c b0     ..............<.
     890:	00 00 00 00 ff ff ff ff ff ff ff ff ff ff ff ff     ................
     8a0:	ff ff ff ff ff ff ff ff ff ff ff ff 00 00 4c b0     ..............L.

000008b0 <__c.2242>:
     8b0:	6e 61 6e 00                                         nan.

000008b4 <__c.2240>:
     8b4:	69 6e 66 00                                         inf.

000008b8 <__c.2437>:
     8b8:	63 64 69 6e 6f 70 73 75 78 58 5b 65 66 67 45 46     cdinopsuxX[efgEF
     8c8:	47 00                                               G.

000008ca <pstr_an>:
     8ca:	61 6e 00                                            an.

000008cd <pstr_nfinity>:
     8cd:	6e 66 69 6e 69 74 79 00                             nfinity.

000008d5 <pwr_m10>:
     8d5:	cd cc cc 3d 0a d7 23 3c 17 b7 d1 38 77 cc 2b 32     ...=..#<...8w.+2
     8e5:	95 95 e6 24 1f b1 4f 0a                             ...$..O.

000008ed <pwr_p10>:
     8ed:	00 00 20 41 00 00 c8 42 00 40 1c 46 20 bc be 4c     .. A...B.@.F ..L
     8fd:	ca 1b 0e 5a ae c5 9d 74 00 40 7a 10 f3 5a 00 a0     ...Z...t.@z..Z..
     90d:	72 4e 18 09 00 10 a5 d4 e8 00 00 e8 76 48 17 00     rN..........vH..
     91d:	00 e4 0b 54 02 00 00 ca 9a 3b 00 00 00 e1 f5 05     ...T.....;......
     92d:	00 00 80 96 98 00 00 00 40 42 0f 00 00 00 a0 86     ........@B......
     93d:	01 00 00 00 10 27 00 00 00 00 e8 03 00 00 00 00     .....'..........
     94d:	64 00 00 00 00 00 0a 00 00 00 00 00 01 00 00 00     d...............
     95d:	00 00 2c 76 d8 88 dc 67 4f 08 23 df c1 df ae 59     ..,v...gO.#....Y
     96d:	e1 b1 b7 96 e5 e3 e4 53 c6 3a e6 51 99 76 96 e8     .......S.:.Q.v..
     97d:	e6 c2 84 26 eb 89 8c 9b 62 ed 40 7c 6f fc ef bc     ...&....b.@|o...
     98d:	9c 9f 40 f2 ba a5 6f a5 f4 90 05 5a 2a f7 5c 93     ..@...o....Z*.\.
     99d:	6b 6c f9 67 6d c1 1b fc e0 e4 0d 47 fe f5 20 e6     kl.gm......G.. .
     9ad:	b5 00 d0 ed 90 2e 03 00 94 35 77 05 00 80 84 1e     .........5w.....
     9bd:	08 00 00 20 4e 0a 00 00 00 c8 0c 33 33 33 33 0f     ... N......3333.
     9cd:	98 6e 12 83 11 41 ef 8d 21 14 89 3b e6 55 16 cf     .n...A..!..;.U..
     9dd:	fe e6 db 18 d1 84 4b 38 1b f7 7c 1d 90 1d a4 bb     ......K8..|.....
     9ed:	e4 24 20 32 84 72 5e 22 81 00 c9 f1 24 ec a1 e5     .$ 2.r^"....$...
     9fd:	3d 27 00                                            ='.

00000a00 <__ctors_end>:
     a00:	11 24       	eor	r1, r1
     a02:	1f be       	out	0x3f, r1	; 63
     a04:	cf ef       	ldi	r28, 0xFF	; 255
     a06:	d8 e0       	ldi	r29, 0x08	; 8
     a08:	de bf       	out	0x3e, r29	; 62
     a0a:	cd bf       	out	0x3d, r28	; 61

00000a0c <__do_copy_data>:
     a0c:	11 e0       	ldi	r17, 0x01	; 1
     a0e:	a0 e0       	ldi	r26, 0x00	; 0
     a10:	b1 e0       	ldi	r27, 0x01	; 1
     a12:	e4 ed       	ldi	r30, 0xD4	; 212
     a14:	fa e2       	ldi	r31, 0x2A	; 42
     a16:	02 c0       	rjmp	.+4      	; 0xa1c <__do_copy_data+0x10>
     a18:	05 90       	lpm	r0, Z+
     a1a:	0d 92       	st	X+, r0
     a1c:	a0 31       	cpi	r26, 0x10	; 16
     a1e:	b1 07       	cpc	r27, r17
     a20:	d9 f7       	brne	.-10     	; 0xa18 <__do_copy_data+0xc>

00000a22 <__do_clear_bss>:
     a22:	15 e0       	ldi	r17, 0x05	; 5
     a24:	a0 e1       	ldi	r26, 0x10	; 16
     a26:	b1 e0       	ldi	r27, 0x01	; 1
     a28:	01 c0       	rjmp	.+2      	; 0xa2c <.do_clear_bss_start>

00000a2a <.do_clear_bss_loop>:
     a2a:	1d 92       	st	X+, r1

00000a2c <.do_clear_bss_start>:
     a2c:	ae 36       	cpi	r26, 0x6E	; 110
     a2e:	b1 07       	cpc	r27, r17
     a30:	e1 f7       	brne	.-8      	; 0xa2a <.do_clear_bss_loop>
     a32:	0e 94 68 21 	call	0x42d0	; 0x42d0 <main>
     a36:	0c 94 68 15 	jmp	0x2ad0	; 0x2ad0 <_exit>

00000a3a <__bad_interrupt>:
     a3a:	0c 94 00 00 	jmp	0	; 0x0 <__vectors>

00000a3e <usbCrc16>:
     a3e:	a8 2f       	mov	r26, r24
     a40:	b9 2f       	mov	r27, r25
     a42:	8f ef       	ldi	r24, 0xFF	; 255
     a44:	9f ef       	ldi	r25, 0xFF	; 255
     a46:	1b c0       	rjmp	.+54     	; 0xa7e <usbCrc16LoopTest>

00000a48 <usbCrc16ByteLoop>:
     a48:	2d 91       	ld	r18, X+
     a4a:	82 27       	eor	r24, r18
     a4c:	28 2f       	mov	r18, r24
     a4e:	22 95       	swap	r18
     a50:	28 27       	eor	r18, r24
     a52:	72 2f       	mov	r23, r18
     a54:	26 95       	lsr	r18
     a56:	26 95       	lsr	r18
     a58:	27 27       	eor	r18, r23
     a5a:	23 95       	inc	r18
     a5c:	26 95       	lsr	r18
     a5e:	21 70       	andi	r18, 0x01	; 1
     a60:	78 2f       	mov	r23, r24
     a62:	89 2f       	mov	r24, r25
     a64:	82 27       	eor	r24, r18
     a66:	21 95       	neg	r18
     a68:	20 7c       	andi	r18, 0xC0	; 192
     a6a:	92 2f       	mov	r25, r18
     a6c:	22 27       	eor	r18, r18
     a6e:	76 95       	lsr	r23
     a70:	27 95       	ror	r18
     a72:	97 27       	eor	r25, r23
     a74:	82 27       	eor	r24, r18
     a76:	76 95       	lsr	r23
     a78:	27 95       	ror	r18
     a7a:	97 27       	eor	r25, r23
     a7c:	82 27       	eor	r24, r18

00000a7e <usbCrc16LoopTest>:
     a7e:	61 50       	subi	r22, 0x01	; 1
     a80:	18 f7       	brcc	.-58     	; 0xa48 <usbCrc16ByteLoop>
     a82:	80 95       	com	r24
     a84:	90 95       	com	r25
     a86:	08 95       	ret

00000a88 <usbCrc16Append>:
     a88:	da df       	rcall	.-76     	; 0xa3e <usbCrc16>
     a8a:	8d 93       	st	X+, r24
     a8c:	9d 93       	st	X+, r25
     a8e:	08 95       	ret

00000a90 <__vector_1>:
     a90:	cf 93       	push	r28
     a92:	cf b7       	in	r28, 0x3f	; 63
     a94:	cf 93       	push	r28
     a96:	df 93       	push	r29

00000a98 <waitForJ>:
     a98:	c3 95       	inc	r28
     a9a:	33 9b       	sbis	0x06, 3	; 6
     a9c:	e9 f7       	brne	.-6      	; 0xa98 <waitForJ>

00000a9e <waitForK>:
     a9e:	33 9b       	sbis	0x06, 3	; 6
     aa0:	11 c0       	rjmp	.+34     	; 0xac4 <foundK>
     aa2:	33 9b       	sbis	0x06, 3	; 6
     aa4:	0f c0       	rjmp	.+30     	; 0xac4 <foundK>
     aa6:	33 9b       	sbis	0x06, 3	; 6
     aa8:	0d c0       	rjmp	.+26     	; 0xac4 <foundK>
     aaa:	33 9b       	sbis	0x06, 3	; 6
     aac:	0b c0       	rjmp	.+22     	; 0xac4 <foundK>
     aae:	33 9b       	sbis	0x06, 3	; 6
     ab0:	09 c0       	rjmp	.+18     	; 0xac4 <foundK>
     ab2:	33 9b       	sbis	0x06, 3	; 6
     ab4:	07 c0       	rjmp	.+14     	; 0xac4 <foundK>
     ab6:	33 9b       	sbis	0x06, 3	; 6
     ab8:	05 c0       	rjmp	.+10     	; 0xac4 <foundK>
     aba:	33 9b       	sbis	0x06, 3	; 6
     abc:	03 c0       	rjmp	.+6      	; 0xac4 <foundK>
     abe:	33 9b       	sbis	0x06, 3	; 6
     ac0:	01 c0       	rjmp	.+2      	; 0xac4 <foundK>
     ac2:	83 c0       	rjmp	.+262    	; 0xbca <sofError>

00000ac4 <foundK>:
     ac4:	6f 93       	push	r22
     ac6:	c0 91 51 05 	lds	r28, 0x0551
     aca:	dd 27       	eor	r29, r29
     acc:	c8 5a       	subi	r28, 0xA8	; 168
     ace:	da 4f       	sbci	r29, 0xFA	; 250
     ad0:	2f 93       	push	r18
     ad2:	20 e4       	ldi	r18, 0x40	; 64
     ad4:	00 c0       	rjmp	.+0      	; 0xad6 <foundK+0x12>
     ad6:	65 e0       	ldi	r22, 0x05	; 5
     ad8:	33 9b       	sbis	0x06, 3	; 6
     ada:	03 c0       	rjmp	.+6      	; 0xae2 <haveTwoBitsK>
     adc:	2f 91       	pop	r18
     ade:	6f 91       	pop	r22
     ae0:	de cf       	rjmp	.-68     	; 0xa9e <waitForK>

00000ae2 <haveTwoBitsK>:
     ae2:	0f 93       	push	r16
     ae4:	1f 93       	push	r17
     ae6:	4f 93       	push	r20
     ae8:	45 e5       	ldi	r20, 0x55	; 85
     aea:	5f 93       	push	r21
     aec:	55 e5       	ldi	r21, 0x55	; 85
     aee:	3f 93       	push	r19
     af0:	3b e0       	ldi	r19, 0x0B	; 11
     af2:	14 e0       	ldi	r17, 0x04	; 4

00000af4 <bit0>:
     af4:	06 b1       	in	r16, 0x06	; 6
     af6:	0c 70       	andi	r16, 0x0C	; 12
     af8:	2e c0       	rjmp	.+92     	; 0xb56 <handleBit>

00000afa <b6checkUnstuff>:
     afa:	6a 95       	dec	r22
     afc:	c9 f0       	breq	.+50     	; 0xb30 <unstuff6>

00000afe <bit7>:
     afe:	31 50       	subi	r19, 0x01	; 1
     b00:	d8 f1       	brcs	.+118    	; 0xb78 <overflow>
     b02:	06 b1       	in	r16, 0x06	; 6
     b04:	0c 70       	andi	r16, 0x0C	; 12
     b06:	01 13       	cpse	r16, r17
     b08:	0b c0       	rjmp	.+22     	; 0xb20 <b7handle0>
     b0a:	08 94       	sec
     b0c:	27 95       	ror	r18
     b0e:	29 93       	st	Y+, r18
     b10:	20 e4       	ldi	r18, 0x40	; 64
     b12:	55 55       	subi	r21, 0x55	; 85
     b14:	00 f4       	brcc	.+0      	; 0xb16 <bit7+0x18>
     b16:	6a 95       	dec	r22
     b18:	69 f7       	brne	.-38     	; 0xaf4 <bit0>
     b1a:	01 e0       	ldi	r16, 0x01	; 1
     b1c:	66 b1       	in	r22, 0x06	; 6
     b1e:	0b c0       	rjmp	.+22     	; 0xb36 <unstuff>

00000b20 <b7handle0>:
     b20:	10 2f       	mov	r17, r16
     b22:	66 e0       	ldi	r22, 0x06	; 6
     b24:	26 95       	lsr	r18
     b26:	29 93       	st	Y+, r18
     b28:	20 e4       	ldi	r18, 0x40	; 64
     b2a:	55 55       	subi	r21, 0x55	; 85
     b2c:	18 f3       	brcs	.-58     	; 0xaf4 <bit0>
     b2e:	e2 cf       	rjmp	.-60     	; 0xaf4 <bit0>

00000b30 <unstuff6>:
     b30:	0f ef       	ldi	r16, 0xFF	; 255
     b32:	66 b1       	in	r22, 0x06	; 6
	...

00000b36 <unstuff>:
     b36:	16 2f       	mov	r17, r22
     b38:	45 55       	subi	r20, 0x55	; 85
     b3a:	00 f0       	brcs	.+0      	; 0xb3c <unstuff+0x6>
     b3c:	40 40       	sbci	r20, 0x00	; 0
     b3e:	66 e0       	ldi	r22, 0x06	; 6
     b40:	1c 70       	andi	r17, 0x0C	; 12
     b42:	00 30       	cpi	r16, 0x00	; 0
     b44:	e2 f2       	brmi	.-72     	; 0xafe <bit7>
     b46:	21 f0       	breq	.+8      	; 0xb50 <bitloop>
     b48:	00 00       	nop
     b4a:	06 b1       	in	r16, 0x06	; 6
     b4c:	0c 70       	andi	r16, 0x0C	; 12
     b4e:	03 c0       	rjmp	.+6      	; 0xb56 <handleBit>

00000b50 <bitloop>:
     b50:	06 b1       	in	r16, 0x06	; 6
     b52:	0c 70       	andi	r16, 0x0C	; 12
     b54:	a9 f0       	breq	.+42     	; 0xb80 <se0>

00000b56 <handleBit>:
     b56:	01 13       	cpse	r16, r17
     b58:	09 c0       	rjmp	.+18     	; 0xb6c <handle0>
     b5a:	08 94       	sec
     b5c:	27 95       	ror	r18
     b5e:	68 f2       	brcs	.-102    	; 0xafa <b6checkUnstuff>
     b60:	00 c0       	rjmp	.+0      	; 0xb62 <handleBit+0xc>
     b62:	6a 95       	dec	r22
     b64:	a9 f7       	brne	.-22     	; 0xb50 <bitloop>
     b66:	00 e0       	ldi	r16, 0x00	; 0
     b68:	66 b1       	in	r22, 0x06	; 6
     b6a:	e5 cf       	rjmp	.-54     	; 0xb36 <unstuff>

00000b6c <handle0>:
     b6c:	10 2f       	mov	r17, r16
     b6e:	66 e0       	ldi	r22, 0x06	; 6
     b70:	26 95       	lsr	r18
     b72:	28 f2       	brcs	.-118    	; 0xafe <bit7>
     b74:	00 00       	nop
     b76:	ec cf       	rjmp	.-40     	; 0xb50 <bitloop>

00000b78 <overflow>:
     b78:	11 e0       	ldi	r17, 0x01	; 1
     b7a:	1c bb       	out	0x1c, r17	; 28

00000b7c <ignorePacket>:
     b7c:	00 27       	eor	r16, r16
     b7e:	19 c0       	rjmp	.+50     	; 0xbb2 <handleSetupOrOut>

00000b80 <se0>:
     b80:	3b 50       	subi	r19, 0x0B	; 11
     b82:	31 95       	neg	r19
     b84:	c3 1b       	sub	r28, r19
     b86:	d0 40       	sbci	r29, 0x00	; 0
     b88:	11 e0       	ldi	r17, 0x01	; 1
     b8a:	1c bb       	out	0x1c, r17	; 28
     b8c:	08 81       	ld	r16, Y
     b8e:	03 3c       	cpi	r16, 0xC3	; 195
     b90:	09 f1       	breq	.+66     	; 0xbd4 <handleData>
     b92:	0b 34       	cpi	r16, 0x4B	; 75
     b94:	f9 f0       	breq	.+62     	; 0xbd4 <handleData>
     b96:	20 91 4f 05 	lds	r18, 0x054F
     b9a:	19 81       	ldd	r17, Y+1	; 0x01
     b9c:	11 0f       	add	r17, r17
     b9e:	12 13       	cpse	r17, r18
     ba0:	ed cf       	rjmp	.-38     	; 0xb7c <ignorePacket>
     ba2:	4a 81       	ldd	r20, Y+2	; 0x02
     ba4:	44 1f       	adc	r20, r20
     ba6:	09 36       	cpi	r16, 0x69	; 105
     ba8:	51 f1       	breq	.+84     	; 0xbfe <handleIn>
     baa:	0d 32       	cpi	r16, 0x2D	; 45
     bac:	11 f0       	breq	.+4      	; 0xbb2 <handleSetupOrOut>
     bae:	01 3e       	cpi	r16, 0xE1	; 225
     bb0:	29 f7       	brne	.-54     	; 0xb7c <ignorePacket>

00000bb2 <handleSetupOrOut>:
     bb2:	00 93 56 05 	sts	0x0556, r16

00000bb6 <doReturn>:
     bb6:	3f 91       	pop	r19
     bb8:	5f 91       	pop	r21
     bba:	4f 91       	pop	r20
     bbc:	1f 91       	pop	r17
     bbe:	0f 91       	pop	r16
     bc0:	2f 91       	pop	r18
     bc2:	6f 91       	pop	r22
     bc4:	cc b3       	in	r28, 0x1c	; 28
     bc6:	c0 fd       	sbrc	r28, 0
     bc8:	67 cf       	rjmp	.-306    	; 0xa98 <waitForJ>

00000bca <sofError>:
     bca:	df 91       	pop	r29
     bcc:	cf 91       	pop	r28
     bce:	cf bf       	out	0x3f, r28	; 63
     bd0:	cf 91       	pop	r28
     bd2:	18 95       	reti

00000bd4 <handleData>:
     bd4:	20 91 56 05 	lds	r18, 0x0556
     bd8:	22 23       	and	r18, r18
     bda:	69 f3       	breq	.-38     	; 0xbb6 <doReturn>
     bdc:	10 91 54 05 	lds	r17, 0x0554
     be0:	11 23       	and	r17, r17
     be2:	81 f5       	brne	.+96     	; 0xc44 <sendNakAndReti>
     be4:	34 30       	cpi	r19, 0x04	; 4
     be6:	82 f1       	brmi	.+96     	; 0xc48 <sendAckAndReti>
     be8:	30 93 54 05 	sts	0x0554, r19
     bec:	20 93 50 05 	sts	0x0550, r18
     bf0:	10 91 51 05 	lds	r17, 0x0551
     bf4:	3b e0       	ldi	r19, 0x0B	; 11
     bf6:	31 1b       	sub	r19, r17
     bf8:	30 93 51 05 	sts	0x0551, r19
     bfc:	25 c0       	rjmp	.+74     	; 0xc48 <sendAckAndReti>

00000bfe <handleIn>:
     bfe:	00 91 54 05 	lds	r16, 0x0554
     c02:	01 30       	cpi	r16, 0x01	; 1
     c04:	fc f4       	brge	.+62     	; 0xc44 <sendNakAndReti>
     c06:	0a e5       	ldi	r16, 0x5A	; 90
     c08:	4f 70       	andi	r20, 0x0F	; 15
     c0a:	49 f4       	brne	.+18     	; 0xc1e <handleIn1>
     c0c:	30 91 01 01 	lds	r19, 0x0101
     c10:	34 fd       	sbrc	r19, 4
     c12:	1b c0       	rjmp	.+54     	; 0xc4a <sendCntAndReti>
     c14:	00 93 01 01 	sts	0x0101, r16
     c18:	c4 e4       	ldi	r28, 0x44	; 68
     c1a:	d5 e0       	ldi	r29, 0x05	; 5
     c1c:	1a c0       	rjmp	.+52     	; 0xc52 <usbSendAndReti>

00000c1e <handleIn1>:
     c1e:	30 91 fb 04 	lds	r19, 0x04FB
     c22:	34 fd       	sbrc	r19, 4
     c24:	12 c0       	rjmp	.+36     	; 0xc4a <sendCntAndReti>
     c26:	00 93 fb 04 	sts	0x04FB, r16
     c2a:	cc ef       	ldi	r28, 0xFC	; 252
     c2c:	d4 e0       	ldi	r29, 0x04	; 4
     c2e:	11 c0       	rjmp	.+34     	; 0xc52 <usbSendAndReti>

00000c30 <bitstuffN>:
     c30:	05 27       	eor	r16, r21
     c32:	10 e0       	ldi	r17, 0x00	; 0
     c34:	00 c0       	rjmp	.+0      	; 0xc36 <bitstuffN+0x6>
     c36:	08 b9       	out	0x08, r16	; 8
     c38:	19 c0       	rjmp	.+50     	; 0xc6c <didStuffN>

00000c3a <bitstuff7>:
     c3a:	05 27       	eor	r16, r21
     c3c:	10 e0       	ldi	r17, 0x00	; 0
     c3e:	22 1f       	adc	r18, r18
     c40:	00 c0       	rjmp	.+0      	; 0xc42 <bitstuff7+0x8>
     c42:	1d c0       	rjmp	.+58     	; 0xc7e <didStuff7>

00000c44 <sendNakAndReti>:
     c44:	4a e5       	ldi	r20, 0x5A	; 90
     c46:	02 c0       	rjmp	.+4      	; 0xc4c <sendX3AndReti>

00000c48 <sendAckAndReti>:
     c48:	32 ed       	ldi	r19, 0xD2	; 210

00000c4a <sendCntAndReti>:
     c4a:	43 2f       	mov	r20, r19

00000c4c <sendX3AndReti>:
     c4c:	c4 e1       	ldi	r28, 0x14	; 20
     c4e:	d0 e0       	ldi	r29, 0x00	; 0
     c50:	32 e0       	ldi	r19, 0x02	; 2

00000c52 <usbSendAndReti>:
     c52:	17 b1       	in	r17, 0x07	; 7
     c54:	1c 60       	ori	r17, 0x0C	; 12
     c56:	43 9a       	sbi	0x08, 3	; 8
     c58:	08 b1       	in	r16, 0x08	; 8
     c5a:	17 b9       	out	0x07, r17	; 7
     c5c:	5c e0       	ldi	r21, 0x0C	; 12
     c5e:	20 e8       	ldi	r18, 0x80	; 128

00000c60 <txByteLoop>:
     c60:	69 e4       	ldi	r22, 0x49	; 73

00000c62 <txBitLoop>:
     c62:	20 ff       	sbrs	r18, 0
     c64:	05 27       	eor	r16, r21
     c66:	08 b9       	out	0x08, r16	; 8
     c68:	27 95       	ror	r18
     c6a:	17 95       	ror	r17

00000c6c <didStuffN>:
     c6c:	00 c0       	rjmp	.+0      	; 0xc6e <didStuffN+0x2>
     c6e:	00 00       	nop
     c70:	1c 3f       	cpi	r17, 0xFC	; 252
     c72:	f0 f6       	brcc	.-68     	; 0xc30 <bitstuffN>
     c74:	66 95       	lsr	r22
     c76:	a8 f7       	brcc	.-22     	; 0xc62 <txBitLoop>
     c78:	a1 f7       	brne	.-24     	; 0xc62 <txBitLoop>
     c7a:	20 ff       	sbrs	r18, 0
     c7c:	05 27       	eor	r16, r21

00000c7e <didStuff7>:
     c7e:	08 b9       	out	0x08, r16	; 8
     c80:	27 95       	ror	r18
     c82:	17 95       	ror	r17
     c84:	00 00       	nop
     c86:	1c 3f       	cpi	r17, 0xFC	; 252
     c88:	c0 f6       	brcc	.-80     	; 0xc3a <bitstuff7>
     c8a:	29 91       	ld	r18, Y+
     c8c:	3a 95       	dec	r19
     c8e:	41 f7       	brne	.-48     	; 0xc60 <txByteLoop>
     c90:	03 7f       	andi	r16, 0xF3	; 243
     c92:	10 91 55 05 	lds	r17, 0x0555
     c96:	11 0f       	add	r17, r17
     c98:	08 b9       	out	0x08, r16	; 8
     c9a:	c6 51       	subi	r28, 0x16	; 22
     c9c:	d0 40       	sbci	r29, 0x00	; 0
     c9e:	11 f0       	breq	.+4      	; 0xca4 <skipAddrAssign>
     ca0:	10 93 4f 05 	sts	0x054F, r17

00000ca4 <skipAddrAssign>:
     ca4:	11 e0       	ldi	r17, 0x01	; 1
     ca6:	1c bb       	out	0x1c, r17	; 28
     ca8:	08 60       	ori	r16, 0x08	; 8
     caa:	17 b1       	in	r17, 0x07	; 7
     cac:	13 7f       	andi	r17, 0xF3	; 243
     cae:	40 2f       	mov	r20, r16
     cb0:	43 7f       	andi	r20, 0xF3	; 243
     cb2:	55 e0       	ldi	r21, 0x05	; 5

00000cb4 <se0Delay>:
     cb4:	5a 95       	dec	r21
     cb6:	f1 f7       	brne	.-4      	; 0xcb4 <se0Delay>
     cb8:	08 b9       	out	0x08, r16	; 8
     cba:	17 b9       	out	0x07, r17	; 7
     cbc:	48 b9       	out	0x08, r20	; 8
     cbe:	7b cf       	rjmp	.-266    	; 0xbb6 <doReturn>

00000cc0 <usbSetInterrupt>:
     cc0:	cf 93       	push	r28
     cc2:	20 91 fb 04 	lds	r18, 0x04FB
     cc6:	2e 31       	cpi	r18, 0x1E	; 30
     cc8:	f9 f0       	breq	.+62     	; 0xd08 <usbSetInterrupt+0x48>
     cca:	20 91 fb 04 	lds	r18, 0x04FB
     cce:	24 ff       	sbrs	r18, 4
     cd0:	07 c0       	rjmp	.+14     	; 0xce0 <usbSetInterrupt+0x20>
     cd2:	30 91 fc 04 	lds	r19, 0x04FC
     cd6:	28 e8       	ldi	r18, 0x88	; 136
     cd8:	23 27       	eor	r18, r19
     cda:	20 93 fc 04 	sts	0x04FC, r18
     cde:	03 c0       	rjmp	.+6      	; 0xce6 <usbSetInterrupt+0x26>
     ce0:	2a e5       	ldi	r18, 0x5A	; 90
     ce2:	20 93 fb 04 	sts	0x04FB, r18
     ce6:	dc 01       	movw	r26, r24
     ce8:	ed ef       	ldi	r30, 0xFD	; 253
     cea:	f4 e0       	ldi	r31, 0x04	; 4
     cec:	86 2f       	mov	r24, r22
     cee:	8e 0f       	add	r24, r30
     cf0:	9d 91       	ld	r25, X+
     cf2:	91 93       	st	Z+, r25
     cf4:	8e 13       	cpse	r24, r30
     cf6:	fc cf       	rjmp	.-8      	; 0xcf0 <usbSetInterrupt+0x30>
     cf8:	c6 2f       	mov	r28, r22
     cfa:	8d ef       	ldi	r24, 0xFD	; 253
     cfc:	94 e0       	ldi	r25, 0x04	; 4
     cfe:	0e 94 44 05 	call	0xa88	; 0xa88 <usbCrc16Append>
     d02:	cc 5f       	subi	r28, 0xFC	; 252
     d04:	c0 93 fb 04 	sts	0x04FB, r28
     d08:	cf 91       	pop	r28
     d0a:	08 95       	ret

00000d0c <usbPoll>:
     d0c:	cf 93       	push	r28
     d0e:	df 93       	push	r29
     d10:	60 91 54 05 	lds	r22, 0x0554
     d14:	63 50       	subi	r22, 0x03	; 3
     d16:	67 fd       	sbrc	r22, 7
     d18:	e2 c0       	rjmp	.+452    	; 0xede <usbPoll+0x1d2>
     d1a:	80 91 51 05 	lds	r24, 0x0551
     d1e:	cc e0       	ldi	r28, 0x0C	; 12
     d20:	d0 e0       	ldi	r29, 0x00	; 0
     d22:	c8 1b       	sub	r28, r24
     d24:	d1 09       	sbc	r29, r1
     d26:	c8 5a       	subi	r28, 0xA8	; 168
     d28:	da 4f       	sbci	r29, 0xFA	; 250
     d2a:	80 91 50 05 	lds	r24, 0x0550
     d2e:	8d 32       	cpi	r24, 0x2D	; 45
     d30:	09 f0       	breq	.+2      	; 0xd34 <usbPoll+0x28>
     d32:	c3 c0       	rjmp	.+390    	; 0xeba <usbPoll+0x1ae>
     d34:	68 30       	cpi	r22, 0x08	; 8
     d36:	09 f0       	breq	.+2      	; 0xd3a <usbPoll+0x2e>
     d38:	d0 c0       	rjmp	.+416    	; 0xeda <usbPoll+0x1ce>
     d3a:	83 ec       	ldi	r24, 0xC3	; 195
     d3c:	80 93 44 05 	sts	0x0544, r24
     d40:	8a e5       	ldi	r24, 0x5A	; 90
     d42:	80 93 01 01 	sts	0x0101, r24
     d46:	10 92 10 01 	sts	0x0110, r1
     d4a:	28 81       	ld	r18, Y
     d4c:	82 2f       	mov	r24, r18
     d4e:	80 76       	andi	r24, 0x60	; 96
     d50:	41 f0       	breq	.+16     	; 0xd62 <usbPoll+0x56>
     d52:	ce 01       	movw	r24, r28
     d54:	0e 94 30 25 	call	0x4a60	; 0x4a60 <usbFunctionSetup>
     d58:	98 2f       	mov	r25, r24
     d5a:	8f 3f       	cpi	r24, 0xFF	; 255
     d5c:	09 f4       	brne	.+2      	; 0xd60 <usbPoll+0x54>
     d5e:	9c c0       	rjmp	.+312    	; 0xe98 <usbPoll+0x18c>
     d60:	a2 c0       	rjmp	.+324    	; 0xea6 <usbPoll+0x19a>
     d62:	9a 81       	ldd	r25, Y+2	; 0x02
     d64:	3c 81       	ldd	r19, Y+4	; 0x04
     d66:	10 92 4d 05 	sts	0x054D, r1
     d6a:	89 81       	ldd	r24, Y+1	; 0x01
     d6c:	81 11       	cpse	r24, r1
     d6e:	13 c0       	rjmp	.+38     	; 0xd96 <usbPoll+0x8a>
     d70:	2f 71       	andi	r18, 0x1F	; 31
     d72:	22 30       	cpi	r18, 0x02	; 2
     d74:	51 f4       	brne	.+20     	; 0xd8a <usbPoll+0x7e>
     d76:	31 38       	cpi	r19, 0x81	; 129
     d78:	41 f4       	brne	.+16     	; 0xd8a <usbPoll+0x7e>
     d7a:	90 91 fb 04 	lds	r25, 0x04FB
     d7e:	81 e0       	ldi	r24, 0x01	; 1
     d80:	9e 31       	cpi	r25, 0x1E	; 30
     d82:	09 f0       	breq	.+2      	; 0xd86 <usbPoll+0x7a>
     d84:	80 e0       	ldi	r24, 0x00	; 0
     d86:	80 93 4d 05 	sts	0x054D, r24
     d8a:	10 92 4e 05 	sts	0x054E, r1
     d8e:	2d e4       	ldi	r18, 0x4D	; 77
     d90:	35 e0       	ldi	r19, 0x05	; 5
     d92:	92 e0       	ldi	r25, 0x02	; 2
     d94:	7c c0       	rjmp	.+248    	; 0xe8e <usbPoll+0x182>
     d96:	28 2f       	mov	r18, r24
     d98:	2d 7f       	andi	r18, 0xFD	; 253
     d9a:	21 30       	cpi	r18, 0x01	; 1
     d9c:	81 f4       	brne	.+32     	; 0xdbe <usbPoll+0xb2>
     d9e:	91 11       	cpse	r25, r1
     da0:	73 c0       	rjmp	.+230    	; 0xe88 <usbPoll+0x17c>
     da2:	31 38       	cpi	r19, 0x81	; 129
     da4:	09 f0       	breq	.+2      	; 0xda8 <usbPoll+0x9c>
     da6:	70 c0       	rjmp	.+224    	; 0xe88 <usbPoll+0x17c>
     da8:	81 30       	cpi	r24, 0x01	; 1
     daa:	11 f0       	breq	.+4      	; 0xdb0 <usbPoll+0xa4>
     dac:	8e e1       	ldi	r24, 0x1E	; 30
     dae:	01 c0       	rjmp	.+2      	; 0xdb2 <usbPoll+0xa6>
     db0:	8a e5       	ldi	r24, 0x5A	; 90
     db2:	80 93 fb 04 	sts	0x04FB, r24
     db6:	8b e4       	ldi	r24, 0x4B	; 75
     db8:	80 93 fc 04 	sts	0x04FC, r24
     dbc:	65 c0       	rjmp	.+202    	; 0xe88 <usbPoll+0x17c>
     dbe:	85 30       	cpi	r24, 0x05	; 5
     dc0:	19 f4       	brne	.+6      	; 0xdc8 <usbPoll+0xbc>
     dc2:	90 93 55 05 	sts	0x0555, r25
     dc6:	60 c0       	rjmp	.+192    	; 0xe88 <usbPoll+0x17c>
     dc8:	86 30       	cpi	r24, 0x06	; 6
     dca:	09 f0       	breq	.+2      	; 0xdce <usbPoll+0xc2>
     dcc:	44 c0       	rjmp	.+136    	; 0xe56 <usbPoll+0x14a>
     dce:	8b 81       	ldd	r24, Y+3	; 0x03
     dd0:	81 30       	cpi	r24, 0x01	; 1
     dd2:	41 f4       	brne	.+16     	; 0xde4 <usbPoll+0xd8>
     dd4:	85 ef       	ldi	r24, 0xF5	; 245
     dd6:	90 e0       	ldi	r25, 0x00	; 0
     dd8:	90 93 53 05 	sts	0x0553, r25
     ddc:	80 93 52 05 	sts	0x0552, r24
     de0:	92 e1       	ldi	r25, 0x12	; 18
     de2:	35 c0       	rjmp	.+106    	; 0xe4e <usbPoll+0x142>
     de4:	82 30       	cpi	r24, 0x02	; 2
     de6:	41 f4       	brne	.+16     	; 0xdf8 <usbPoll+0xec>
     de8:	8c ed       	ldi	r24, 0xDC	; 220
     dea:	90 e0       	ldi	r25, 0x00	; 0
     dec:	90 93 53 05 	sts	0x0553, r25
     df0:	80 93 52 05 	sts	0x0552, r24
     df4:	99 e1       	ldi	r25, 0x19	; 25
     df6:	2b c0       	rjmp	.+86     	; 0xe4e <usbPoll+0x142>
     df8:	83 30       	cpi	r24, 0x03	; 3
     dfa:	41 f5       	brne	.+80     	; 0xe4c <usbPoll+0x140>
     dfc:	91 11       	cpse	r25, r1
     dfe:	08 c0       	rjmp	.+16     	; 0xe10 <usbPoll+0x104>
     e00:	8f e4       	ldi	r24, 0x4F	; 79
     e02:	91 e0       	ldi	r25, 0x01	; 1
     e04:	90 93 53 05 	sts	0x0553, r25
     e08:	80 93 52 05 	sts	0x0552, r24
     e0c:	94 e0       	ldi	r25, 0x04	; 4
     e0e:	1f c0       	rjmp	.+62     	; 0xe4e <usbPoll+0x142>
     e10:	91 30       	cpi	r25, 0x01	; 1
     e12:	41 f4       	brne	.+16     	; 0xe24 <usbPoll+0x118>
     e14:	81 e4       	ldi	r24, 0x41	; 65
     e16:	91 e0       	ldi	r25, 0x01	; 1
     e18:	90 93 53 05 	sts	0x0553, r25
     e1c:	80 93 52 05 	sts	0x0552, r24
     e20:	9e e0       	ldi	r25, 0x0E	; 14
     e22:	15 c0       	rjmp	.+42     	; 0xe4e <usbPoll+0x142>
     e24:	92 30       	cpi	r25, 0x02	; 2
     e26:	41 f4       	brne	.+16     	; 0xe38 <usbPoll+0x12c>
     e28:	87 e1       	ldi	r24, 0x17	; 23
     e2a:	91 e0       	ldi	r25, 0x01	; 1
     e2c:	90 93 53 05 	sts	0x0553, r25
     e30:	80 93 52 05 	sts	0x0552, r24
     e34:	9a e2       	ldi	r25, 0x2A	; 42
     e36:	0b c0       	rjmp	.+22     	; 0xe4e <usbPoll+0x142>
     e38:	93 30       	cpi	r25, 0x03	; 3
     e3a:	41 f4       	brne	.+16     	; 0xe4c <usbPoll+0x140>
     e3c:	87 e0       	ldi	r24, 0x07	; 7
     e3e:	91 e0       	ldi	r25, 0x01	; 1
     e40:	90 93 53 05 	sts	0x0553, r25
     e44:	80 93 52 05 	sts	0x0552, r24
     e48:	90 e1       	ldi	r25, 0x10	; 16
     e4a:	01 c0       	rjmp	.+2      	; 0xe4e <usbPoll+0x142>
     e4c:	90 e0       	ldi	r25, 0x00	; 0
     e4e:	80 e4       	ldi	r24, 0x40	; 64
     e50:	80 93 10 01 	sts	0x0110, r24
     e54:	28 c0       	rjmp	.+80     	; 0xea6 <usbPoll+0x19a>
     e56:	88 30       	cpi	r24, 0x08	; 8
     e58:	81 f0       	breq	.+32     	; 0xe7a <usbPoll+0x16e>
     e5a:	89 30       	cpi	r24, 0x09	; 9
     e5c:	19 f4       	brne	.+6      	; 0xe64 <usbPoll+0x158>
     e5e:	90 93 57 05 	sts	0x0557, r25
     e62:	07 c0       	rjmp	.+14     	; 0xe72 <usbPoll+0x166>
     e64:	8a 30       	cpi	r24, 0x0A	; 10
     e66:	61 f0       	breq	.+24     	; 0xe80 <usbPoll+0x174>
     e68:	8b 30       	cpi	r24, 0x0B	; 11
     e6a:	71 f4       	brne	.+28     	; 0xe88 <usbPoll+0x17c>
     e6c:	8b e4       	ldi	r24, 0x4B	; 75
     e6e:	80 93 fc 04 	sts	0x04FC, r24
     e72:	8a e5       	ldi	r24, 0x5A	; 90
     e74:	80 93 fb 04 	sts	0x04FB, r24
     e78:	07 c0       	rjmp	.+14     	; 0xe88 <usbPoll+0x17c>
     e7a:	27 e5       	ldi	r18, 0x57	; 87
     e7c:	35 e0       	ldi	r19, 0x05	; 5
     e7e:	02 c0       	rjmp	.+4      	; 0xe84 <usbPoll+0x178>
     e80:	2d e4       	ldi	r18, 0x4D	; 77
     e82:	35 e0       	ldi	r19, 0x05	; 5
     e84:	91 e0       	ldi	r25, 0x01	; 1
     e86:	03 c0       	rjmp	.+6      	; 0xe8e <usbPoll+0x182>
     e88:	2d e4       	ldi	r18, 0x4D	; 77
     e8a:	35 e0       	ldi	r19, 0x05	; 5
     e8c:	90 e0       	ldi	r25, 0x00	; 0
     e8e:	30 93 53 05 	sts	0x0553, r19
     e92:	20 93 52 05 	sts	0x0552, r18
     e96:	07 c0       	rjmp	.+14     	; 0xea6 <usbPoll+0x19a>
     e98:	88 81       	ld	r24, Y
     e9a:	87 fd       	sbrc	r24, 7
     e9c:	9e 81       	ldd	r25, Y+6	; 0x06
     e9e:	80 e8       	ldi	r24, 0x80	; 128
     ea0:	80 93 10 01 	sts	0x0110, r24
     ea4:	07 c0       	rjmp	.+14     	; 0xeb4 <usbPoll+0x1a8>
     ea6:	8f 81       	ldd	r24, Y+7	; 0x07
     ea8:	81 11       	cpse	r24, r1
     eaa:	04 c0       	rjmp	.+8      	; 0xeb4 <usbPoll+0x1a8>
     eac:	8e 81       	ldd	r24, Y+6	; 0x06
     eae:	89 17       	cp	r24, r25
     eb0:	08 f4       	brcc	.+2      	; 0xeb4 <usbPoll+0x1a8>
     eb2:	98 2f       	mov	r25, r24
     eb4:	90 93 00 01 	sts	0x0100, r25
     eb8:	10 c0       	rjmp	.+32     	; 0xeda <usbPoll+0x1ce>
     eba:	80 91 10 01 	lds	r24, 0x0110
     ebe:	87 ff       	sbrs	r24, 7
     ec0:	0c c0       	rjmp	.+24     	; 0xeda <usbPoll+0x1ce>
     ec2:	ce 01       	movw	r24, r28
     ec4:	0e 94 ee 25 	call	0x4bdc	; 0x4bdc <usbFunctionWrite>
     ec8:	8f 3f       	cpi	r24, 0xFF	; 255
     eca:	21 f4       	brne	.+8      	; 0xed4 <usbPoll+0x1c8>
     ecc:	8e e1       	ldi	r24, 0x1E	; 30
     ece:	80 93 01 01 	sts	0x0101, r24
     ed2:	03 c0       	rjmp	.+6      	; 0xeda <usbPoll+0x1ce>
     ed4:	81 11       	cpse	r24, r1
     ed6:	10 92 00 01 	sts	0x0100, r1
     eda:	10 92 54 05 	sts	0x0554, r1
     ede:	80 91 01 01 	lds	r24, 0x0101
     ee2:	84 ff       	sbrs	r24, 4
     ee4:	51 c0       	rjmp	.+162    	; 0xf88 <usbPoll+0x27c>
     ee6:	80 91 00 01 	lds	r24, 0x0100
     eea:	8f 3f       	cpi	r24, 0xFF	; 255
     eec:	09 f4       	brne	.+2      	; 0xef0 <usbPoll+0x1e4>
     eee:	4c c0       	rjmp	.+152    	; 0xf88 <usbPoll+0x27c>
     ef0:	c8 2f       	mov	r28, r24
     ef2:	89 30       	cpi	r24, 0x09	; 9
     ef4:	08 f0       	brcs	.+2      	; 0xef8 <usbPoll+0x1ec>
     ef6:	c8 e0       	ldi	r28, 0x08	; 8
     ef8:	8c 1b       	sub	r24, r28
     efa:	80 93 00 01 	sts	0x0100, r24
     efe:	90 91 44 05 	lds	r25, 0x0544
     f02:	88 e8       	ldi	r24, 0x88	; 136
     f04:	89 27       	eor	r24, r25
     f06:	80 93 44 05 	sts	0x0544, r24
     f0a:	cc 23       	and	r28, r28
     f0c:	59 f1       	breq	.+86     	; 0xf64 <usbPoll+0x258>
     f0e:	30 91 10 01 	lds	r19, 0x0110
     f12:	37 ff       	sbrs	r19, 7
     f14:	09 c0       	rjmp	.+18     	; 0xf28 <usbPoll+0x21c>
     f16:	6c 2f       	mov	r22, r28
     f18:	85 e4       	ldi	r24, 0x45	; 69
     f1a:	95 e0       	ldi	r25, 0x05	; 5
     f1c:	0e 94 69 25 	call	0x4ad2	; 0x4ad2 <usbFunctionRead>
     f20:	c8 2f       	mov	r28, r24
     f22:	89 30       	cpi	r24, 0x09	; 9
     f24:	58 f5       	brcc	.+86     	; 0xf7c <usbPoll+0x270>
     f26:	1e c0       	rjmp	.+60     	; 0xf64 <usbPoll+0x258>
     f28:	80 91 52 05 	lds	r24, 0x0552
     f2c:	90 91 53 05 	lds	r25, 0x0553
     f30:	2c 2f       	mov	r18, r28
     f32:	28 0f       	add	r18, r24
     f34:	a5 e4       	ldi	r26, 0x45	; 69
     f36:	b5 e0       	ldi	r27, 0x05	; 5
     f38:	fc 01       	movw	r30, r24
     f3a:	36 ff       	sbrs	r19, 6
     f3c:	06 c0       	rjmp	.+12     	; 0xf4a <usbPoll+0x23e>
     f3e:	34 91       	lpm	r19, Z
     f40:	3d 93       	st	X+, r19
     f42:	31 96       	adiw	r30, 0x01	; 1
     f44:	2e 13       	cpse	r18, r30
     f46:	fb cf       	rjmp	.-10     	; 0xf3e <usbPoll+0x232>
     f48:	04 c0       	rjmp	.+8      	; 0xf52 <usbPoll+0x246>
     f4a:	31 91       	ld	r19, Z+
     f4c:	3d 93       	st	X+, r19
     f4e:	2e 13       	cpse	r18, r30
     f50:	fc cf       	rjmp	.-8      	; 0xf4a <usbPoll+0x23e>
     f52:	01 96       	adiw	r24, 0x01	; 1
     f54:	2f ef       	ldi	r18, 0xFF	; 255
     f56:	2c 0f       	add	r18, r28
     f58:	82 0f       	add	r24, r18
     f5a:	91 1d       	adc	r25, r1
     f5c:	90 93 53 05 	sts	0x0553, r25
     f60:	80 93 52 05 	sts	0x0552, r24
     f64:	6c 2f       	mov	r22, r28
     f66:	85 e4       	ldi	r24, 0x45	; 69
     f68:	95 e0       	ldi	r25, 0x05	; 5
     f6a:	0e 94 44 05 	call	0xa88	; 0xa88 <usbCrc16Append>
     f6e:	cc 5f       	subi	r28, 0xFC	; 252
     f70:	cc 30       	cpi	r28, 0x0C	; 12
     f72:	41 f0       	breq	.+16     	; 0xf84 <usbPoll+0x278>
     f74:	8f ef       	ldi	r24, 0xFF	; 255
     f76:	80 93 00 01 	sts	0x0100, r24
     f7a:	04 c0       	rjmp	.+8      	; 0xf84 <usbPoll+0x278>
     f7c:	8f ef       	ldi	r24, 0xFF	; 255
     f7e:	80 93 00 01 	sts	0x0100, r24
     f82:	ce e1       	ldi	r28, 0x1E	; 30
     f84:	c0 93 01 01 	sts	0x0101, r28
     f88:	84 e1       	ldi	r24, 0x14	; 20
     f8a:	96 b1       	in	r25, 0x06	; 6
     f8c:	9c 70       	andi	r25, 0x0C	; 12
     f8e:	49 f4       	brne	.+18     	; 0xfa2 <usbPoll+0x296>
     f90:	81 50       	subi	r24, 0x01	; 1
     f92:	d9 f7       	brne	.-10     	; 0xf8a <usbPoll+0x27e>
     f94:	10 92 55 05 	sts	0x0555, r1
     f98:	10 92 4f 05 	sts	0x054F, r1
     f9c:	8a e5       	ldi	r24, 0x5A	; 90
     f9e:	80 93 fb 04 	sts	0x04FB, r24
     fa2:	df 91       	pop	r29
     fa4:	cf 91       	pop	r28
     fa6:	08 95       	ret

00000fa8 <usbInit>:
     fa8:	e9 e6       	ldi	r30, 0x69	; 105
     faa:	f0 e0       	ldi	r31, 0x00	; 0
     fac:	80 81       	ld	r24, Z
     fae:	83 60       	ori	r24, 0x03	; 3
     fb0:	80 83       	st	Z, r24
     fb2:	e8 9a       	sbi	0x1d, 0	; 29
     fb4:	eb ef       	ldi	r30, 0xFB	; 251
     fb6:	f4 e0       	ldi	r31, 0x04	; 4
     fb8:	8b e4       	ldi	r24, 0x4B	; 75
     fba:	81 83       	std	Z+1, r24	; 0x01
     fbc:	8a e5       	ldi	r24, 0x5A	; 90
     fbe:	80 83       	st	Z, r24
     fc0:	08 95       	ret

00000fc2 <anlgComp_fw_startAdcConvertion>:
     fc2:	ea e7       	ldi	r30, 0x7A	; 122
     fc4:	f0 e0       	ldi	r31, 0x00	; 0
     fc6:	80 81       	ld	r24, Z
     fc8:	80 64       	ori	r24, 0x40	; 64
     fca:	80 83       	st	Z, r24
     fcc:	08 95       	ret

00000fce <vfprintf>:
     fce:	a3 e1       	ldi	r26, 0x13	; 19
     fd0:	b0 e0       	ldi	r27, 0x00	; 0
     fd2:	ed ee       	ldi	r30, 0xED	; 237
     fd4:	f7 e0       	ldi	r31, 0x07	; 7
     fd6:	0c 94 99 0f 	jmp	0x1f32	; 0x1f32 <__prologue_saves__>
     fda:	6c 01       	movw	r12, r24
     fdc:	4b 01       	movw	r8, r22
     fde:	2a 01       	movw	r4, r20
     fe0:	fc 01       	movw	r30, r24
     fe2:	17 82       	std	Z+7, r1	; 0x07
     fe4:	16 82       	std	Z+6, r1	; 0x06
     fe6:	83 81       	ldd	r24, Z+3	; 0x03
     fe8:	81 ff       	sbrs	r24, 1
     fea:	43 c3       	rjmp	.+1670   	; 0x1672 <vfprintf+0x6a4>
     fec:	ae 01       	movw	r20, r28
     fee:	4f 5f       	subi	r20, 0xFF	; 255
     ff0:	5f 4f       	sbci	r21, 0xFF	; 255
     ff2:	3a 01       	movw	r6, r20
     ff4:	f6 01       	movw	r30, r12
     ff6:	93 81       	ldd	r25, Z+3	; 0x03
     ff8:	f4 01       	movw	r30, r8
     ffa:	93 fd       	sbrc	r25, 3
     ffc:	85 91       	lpm	r24, Z+
     ffe:	93 ff       	sbrs	r25, 3
    1000:	81 91       	ld	r24, Z+
    1002:	4f 01       	movw	r8, r30
    1004:	88 23       	and	r24, r24
    1006:	09 f4       	brne	.+2      	; 0x100a <vfprintf+0x3c>
    1008:	30 c3       	rjmp	.+1632   	; 0x166a <vfprintf+0x69c>
    100a:	85 32       	cpi	r24, 0x25	; 37
    100c:	39 f4       	brne	.+14     	; 0x101c <vfprintf+0x4e>
    100e:	93 fd       	sbrc	r25, 3
    1010:	85 91       	lpm	r24, Z+
    1012:	93 ff       	sbrs	r25, 3
    1014:	81 91       	ld	r24, Z+
    1016:	4f 01       	movw	r8, r30
    1018:	85 32       	cpi	r24, 0x25	; 37
    101a:	39 f4       	brne	.+14     	; 0x102a <vfprintf+0x5c>
    101c:	b6 01       	movw	r22, r12
    101e:	90 e0       	ldi	r25, 0x00	; 0
    1020:	0e 94 34 14 	call	0x2868	; 0x2868 <fputc>
    1024:	52 01       	movw	r10, r4
    1026:	25 01       	movw	r4, r10
    1028:	e5 cf       	rjmp	.-54     	; 0xff4 <vfprintf+0x26>
    102a:	10 e0       	ldi	r17, 0x00	; 0
    102c:	f1 2c       	mov	r15, r1
    102e:	20 e0       	ldi	r18, 0x00	; 0
    1030:	20 32       	cpi	r18, 0x20	; 32
    1032:	a0 f4       	brcc	.+40     	; 0x105c <vfprintf+0x8e>
    1034:	8b 32       	cpi	r24, 0x2B	; 43
    1036:	69 f0       	breq	.+26     	; 0x1052 <vfprintf+0x84>
    1038:	30 f4       	brcc	.+12     	; 0x1046 <vfprintf+0x78>
    103a:	80 32       	cpi	r24, 0x20	; 32
    103c:	59 f0       	breq	.+22     	; 0x1054 <vfprintf+0x86>
    103e:	83 32       	cpi	r24, 0x23	; 35
    1040:	69 f4       	brne	.+26     	; 0x105c <vfprintf+0x8e>
    1042:	20 61       	ori	r18, 0x10	; 16
    1044:	2c c0       	rjmp	.+88     	; 0x109e <vfprintf+0xd0>
    1046:	8d 32       	cpi	r24, 0x2D	; 45
    1048:	39 f0       	breq	.+14     	; 0x1058 <vfprintf+0x8a>
    104a:	80 33       	cpi	r24, 0x30	; 48
    104c:	39 f4       	brne	.+14     	; 0x105c <vfprintf+0x8e>
    104e:	21 60       	ori	r18, 0x01	; 1
    1050:	26 c0       	rjmp	.+76     	; 0x109e <vfprintf+0xd0>
    1052:	22 60       	ori	r18, 0x02	; 2
    1054:	24 60       	ori	r18, 0x04	; 4
    1056:	23 c0       	rjmp	.+70     	; 0x109e <vfprintf+0xd0>
    1058:	28 60       	ori	r18, 0x08	; 8
    105a:	21 c0       	rjmp	.+66     	; 0x109e <vfprintf+0xd0>
    105c:	27 fd       	sbrc	r18, 7
    105e:	27 c0       	rjmp	.+78     	; 0x10ae <vfprintf+0xe0>
    1060:	30 ed       	ldi	r19, 0xD0	; 208
    1062:	38 0f       	add	r19, r24
    1064:	3a 30       	cpi	r19, 0x0A	; 10
    1066:	78 f4       	brcc	.+30     	; 0x1086 <vfprintf+0xb8>
    1068:	26 ff       	sbrs	r18, 6
    106a:	06 c0       	rjmp	.+12     	; 0x1078 <vfprintf+0xaa>
    106c:	fa e0       	ldi	r31, 0x0A	; 10
    106e:	1f 9f       	mul	r17, r31
    1070:	30 0d       	add	r19, r0
    1072:	11 24       	eor	r1, r1
    1074:	13 2f       	mov	r17, r19
    1076:	13 c0       	rjmp	.+38     	; 0x109e <vfprintf+0xd0>
    1078:	4a e0       	ldi	r20, 0x0A	; 10
    107a:	f4 9e       	mul	r15, r20
    107c:	30 0d       	add	r19, r0
    107e:	11 24       	eor	r1, r1
    1080:	f3 2e       	mov	r15, r19
    1082:	20 62       	ori	r18, 0x20	; 32
    1084:	0c c0       	rjmp	.+24     	; 0x109e <vfprintf+0xd0>
    1086:	8e 32       	cpi	r24, 0x2E	; 46
    1088:	21 f4       	brne	.+8      	; 0x1092 <vfprintf+0xc4>
    108a:	26 fd       	sbrc	r18, 6
    108c:	ee c2       	rjmp	.+1500   	; 0x166a <vfprintf+0x69c>
    108e:	20 64       	ori	r18, 0x40	; 64
    1090:	06 c0       	rjmp	.+12     	; 0x109e <vfprintf+0xd0>
    1092:	8c 36       	cpi	r24, 0x6C	; 108
    1094:	11 f4       	brne	.+4      	; 0x109a <vfprintf+0xcc>
    1096:	20 68       	ori	r18, 0x80	; 128
    1098:	02 c0       	rjmp	.+4      	; 0x109e <vfprintf+0xd0>
    109a:	88 36       	cpi	r24, 0x68	; 104
    109c:	41 f4       	brne	.+16     	; 0x10ae <vfprintf+0xe0>
    109e:	f4 01       	movw	r30, r8
    10a0:	93 fd       	sbrc	r25, 3
    10a2:	85 91       	lpm	r24, Z+
    10a4:	93 ff       	sbrs	r25, 3
    10a6:	81 91       	ld	r24, Z+
    10a8:	4f 01       	movw	r8, r30
    10aa:	81 11       	cpse	r24, r1
    10ac:	c1 cf       	rjmp	.-126    	; 0x1030 <vfprintf+0x62>
    10ae:	9b eb       	ldi	r25, 0xBB	; 187
    10b0:	98 0f       	add	r25, r24
    10b2:	93 30       	cpi	r25, 0x03	; 3
    10b4:	18 f4       	brcc	.+6      	; 0x10bc <vfprintf+0xee>
    10b6:	20 61       	ori	r18, 0x10	; 16
    10b8:	80 5e       	subi	r24, 0xE0	; 224
    10ba:	06 c0       	rjmp	.+12     	; 0x10c8 <vfprintf+0xfa>
    10bc:	9b e9       	ldi	r25, 0x9B	; 155
    10be:	98 0f       	add	r25, r24
    10c0:	93 30       	cpi	r25, 0x03	; 3
    10c2:	08 f0       	brcs	.+2      	; 0x10c6 <vfprintf+0xf8>
    10c4:	71 c1       	rjmp	.+738    	; 0x13a8 <vfprintf+0x3da>
    10c6:	2f 7e       	andi	r18, 0xEF	; 239
    10c8:	26 ff       	sbrs	r18, 6
    10ca:	16 e0       	ldi	r17, 0x06	; 6
    10cc:	2f 73       	andi	r18, 0x3F	; 63
    10ce:	32 2e       	mov	r3, r18
    10d0:	85 36       	cpi	r24, 0x65	; 101
    10d2:	19 f4       	brne	.+6      	; 0x10da <vfprintf+0x10c>
    10d4:	20 64       	ori	r18, 0x40	; 64
    10d6:	32 2e       	mov	r3, r18
    10d8:	08 c0       	rjmp	.+16     	; 0x10ea <vfprintf+0x11c>
    10da:	86 36       	cpi	r24, 0x66	; 102
    10dc:	21 f4       	brne	.+8      	; 0x10e6 <vfprintf+0x118>
    10de:	f2 2f       	mov	r31, r18
    10e0:	f0 68       	ori	r31, 0x80	; 128
    10e2:	3f 2e       	mov	r3, r31
    10e4:	02 c0       	rjmp	.+4      	; 0x10ea <vfprintf+0x11c>
    10e6:	11 11       	cpse	r17, r1
    10e8:	11 50       	subi	r17, 0x01	; 1
    10ea:	37 fe       	sbrs	r3, 7
    10ec:	07 c0       	rjmp	.+14     	; 0x10fc <vfprintf+0x12e>
    10ee:	1c 33       	cpi	r17, 0x3C	; 60
    10f0:	50 f4       	brcc	.+20     	; 0x1106 <vfprintf+0x138>
    10f2:	ee 24       	eor	r14, r14
    10f4:	e3 94       	inc	r14
    10f6:	e1 0e       	add	r14, r17
    10f8:	27 e0       	ldi	r18, 0x07	; 7
    10fa:	0b c0       	rjmp	.+22     	; 0x1112 <vfprintf+0x144>
    10fc:	18 30       	cpi	r17, 0x08	; 8
    10fe:	38 f0       	brcs	.+14     	; 0x110e <vfprintf+0x140>
    1100:	27 e0       	ldi	r18, 0x07	; 7
    1102:	17 e0       	ldi	r17, 0x07	; 7
    1104:	05 c0       	rjmp	.+10     	; 0x1110 <vfprintf+0x142>
    1106:	27 e0       	ldi	r18, 0x07	; 7
    1108:	4c e3       	ldi	r20, 0x3C	; 60
    110a:	e4 2e       	mov	r14, r20
    110c:	02 c0       	rjmp	.+4      	; 0x1112 <vfprintf+0x144>
    110e:	21 2f       	mov	r18, r17
    1110:	e1 2c       	mov	r14, r1
    1112:	52 01       	movw	r10, r4
    1114:	44 e0       	ldi	r20, 0x04	; 4
    1116:	a4 0e       	add	r10, r20
    1118:	b1 1c       	adc	r11, r1
    111a:	f2 01       	movw	r30, r4
    111c:	60 81       	ld	r22, Z
    111e:	71 81       	ldd	r23, Z+1	; 0x01
    1120:	82 81       	ldd	r24, Z+2	; 0x02
    1122:	93 81       	ldd	r25, Z+3	; 0x03
    1124:	0e 2d       	mov	r16, r14
    1126:	a3 01       	movw	r20, r6
    1128:	0e 94 c9 12 	call	0x2592	; 0x2592 <__ftoa_engine>
    112c:	2c 01       	movw	r4, r24
    112e:	09 81       	ldd	r16, Y+1	; 0x01
    1130:	00 ff       	sbrs	r16, 0
    1132:	02 c0       	rjmp	.+4      	; 0x1138 <vfprintf+0x16a>
    1134:	03 ff       	sbrs	r16, 3
    1136:	07 c0       	rjmp	.+14     	; 0x1146 <vfprintf+0x178>
    1138:	31 fc       	sbrc	r3, 1
    113a:	08 c0       	rjmp	.+16     	; 0x114c <vfprintf+0x17e>
    113c:	32 fe       	sbrs	r3, 2
    113e:	09 c0       	rjmp	.+18     	; 0x1152 <vfprintf+0x184>
    1140:	30 e2       	ldi	r19, 0x20	; 32
    1142:	23 2e       	mov	r2, r19
    1144:	07 c0       	rjmp	.+14     	; 0x1154 <vfprintf+0x186>
    1146:	2d e2       	ldi	r18, 0x2D	; 45
    1148:	22 2e       	mov	r2, r18
    114a:	04 c0       	rjmp	.+8      	; 0x1154 <vfprintf+0x186>
    114c:	9b e2       	ldi	r25, 0x2B	; 43
    114e:	29 2e       	mov	r2, r25
    1150:	01 c0       	rjmp	.+2      	; 0x1154 <vfprintf+0x186>
    1152:	21 2c       	mov	r2, r1
    1154:	80 2f       	mov	r24, r16
    1156:	8c 70       	andi	r24, 0x0C	; 12
    1158:	19 f0       	breq	.+6      	; 0x1160 <vfprintf+0x192>
    115a:	21 10       	cpse	r2, r1
    115c:	68 c2       	rjmp	.+1232   	; 0x162e <vfprintf+0x660>
    115e:	a8 c2       	rjmp	.+1360   	; 0x16b0 <vfprintf+0x6e2>
    1160:	37 fe       	sbrs	r3, 7
    1162:	0f c0       	rjmp	.+30     	; 0x1182 <vfprintf+0x1b4>
    1164:	e4 0c       	add	r14, r4
    1166:	04 ff       	sbrs	r16, 4
    1168:	04 c0       	rjmp	.+8      	; 0x1172 <vfprintf+0x1a4>
    116a:	8a 81       	ldd	r24, Y+2	; 0x02
    116c:	81 33       	cpi	r24, 0x31	; 49
    116e:	09 f4       	brne	.+2      	; 0x1172 <vfprintf+0x1a4>
    1170:	ea 94       	dec	r14
    1172:	1e 14       	cp	r1, r14
    1174:	74 f5       	brge	.+92     	; 0x11d2 <vfprintf+0x204>
    1176:	f8 e0       	ldi	r31, 0x08	; 8
    1178:	fe 15       	cp	r31, r14
    117a:	78 f5       	brcc	.+94     	; 0x11da <vfprintf+0x20c>
    117c:	88 e0       	ldi	r24, 0x08	; 8
    117e:	e8 2e       	mov	r14, r24
    1180:	2c c0       	rjmp	.+88     	; 0x11da <vfprintf+0x20c>
    1182:	36 fc       	sbrc	r3, 6
    1184:	2a c0       	rjmp	.+84     	; 0x11da <vfprintf+0x20c>
    1186:	81 2f       	mov	r24, r17
    1188:	90 e0       	ldi	r25, 0x00	; 0
    118a:	84 15       	cp	r24, r4
    118c:	95 05       	cpc	r25, r5
    118e:	9c f0       	brlt	.+38     	; 0x11b6 <vfprintf+0x1e8>
    1190:	2c ef       	ldi	r18, 0xFC	; 252
    1192:	42 16       	cp	r4, r18
    1194:	2f ef       	ldi	r18, 0xFF	; 255
    1196:	52 06       	cpc	r5, r18
    1198:	74 f0       	brlt	.+28     	; 0x11b6 <vfprintf+0x1e8>
    119a:	43 2d       	mov	r20, r3
    119c:	40 68       	ori	r20, 0x80	; 128
    119e:	34 2e       	mov	r3, r20
    11a0:	0a c0       	rjmp	.+20     	; 0x11b6 <vfprintf+0x1e8>
    11a2:	e2 e0       	ldi	r30, 0x02	; 2
    11a4:	f0 e0       	ldi	r31, 0x00	; 0
    11a6:	ec 0f       	add	r30, r28
    11a8:	fd 1f       	adc	r31, r29
    11aa:	e1 0f       	add	r30, r17
    11ac:	f1 1d       	adc	r31, r1
    11ae:	80 81       	ld	r24, Z
    11b0:	80 33       	cpi	r24, 0x30	; 48
    11b2:	19 f4       	brne	.+6      	; 0x11ba <vfprintf+0x1ec>
    11b4:	11 50       	subi	r17, 0x01	; 1
    11b6:	11 11       	cpse	r17, r1
    11b8:	f4 cf       	rjmp	.-24     	; 0x11a2 <vfprintf+0x1d4>
    11ba:	37 fe       	sbrs	r3, 7
    11bc:	0e c0       	rjmp	.+28     	; 0x11da <vfprintf+0x20c>
    11be:	ee 24       	eor	r14, r14
    11c0:	e3 94       	inc	r14
    11c2:	e1 0e       	add	r14, r17
    11c4:	81 2f       	mov	r24, r17
    11c6:	90 e0       	ldi	r25, 0x00	; 0
    11c8:	48 16       	cp	r4, r24
    11ca:	59 06       	cpc	r5, r25
    11cc:	2c f4       	brge	.+10     	; 0x11d8 <vfprintf+0x20a>
    11ce:	14 19       	sub	r17, r4
    11d0:	04 c0       	rjmp	.+8      	; 0x11da <vfprintf+0x20c>
    11d2:	ee 24       	eor	r14, r14
    11d4:	e3 94       	inc	r14
    11d6:	01 c0       	rjmp	.+2      	; 0x11da <vfprintf+0x20c>
    11d8:	10 e0       	ldi	r17, 0x00	; 0
    11da:	37 fe       	sbrs	r3, 7
    11dc:	06 c0       	rjmp	.+12     	; 0x11ea <vfprintf+0x21c>
    11de:	14 14       	cp	r1, r4
    11e0:	15 04       	cpc	r1, r5
    11e2:	34 f4       	brge	.+12     	; 0x11f0 <vfprintf+0x222>
    11e4:	c2 01       	movw	r24, r4
    11e6:	01 96       	adiw	r24, 0x01	; 1
    11e8:	05 c0       	rjmp	.+10     	; 0x11f4 <vfprintf+0x226>
    11ea:	85 e0       	ldi	r24, 0x05	; 5
    11ec:	90 e0       	ldi	r25, 0x00	; 0
    11ee:	02 c0       	rjmp	.+4      	; 0x11f4 <vfprintf+0x226>
    11f0:	81 e0       	ldi	r24, 0x01	; 1
    11f2:	90 e0       	ldi	r25, 0x00	; 0
    11f4:	21 10       	cpse	r2, r1
    11f6:	01 96       	adiw	r24, 0x01	; 1
    11f8:	11 23       	and	r17, r17
    11fa:	31 f0       	breq	.+12     	; 0x1208 <vfprintf+0x23a>
    11fc:	21 2f       	mov	r18, r17
    11fe:	30 e0       	ldi	r19, 0x00	; 0
    1200:	2f 5f       	subi	r18, 0xFF	; 255
    1202:	3f 4f       	sbci	r19, 0xFF	; 255
    1204:	82 0f       	add	r24, r18
    1206:	93 1f       	adc	r25, r19
    1208:	2f 2d       	mov	r18, r15
    120a:	30 e0       	ldi	r19, 0x00	; 0
    120c:	82 17       	cp	r24, r18
    120e:	93 07       	cpc	r25, r19
    1210:	14 f4       	brge	.+4      	; 0x1216 <vfprintf+0x248>
    1212:	f8 1a       	sub	r15, r24
    1214:	01 c0       	rjmp	.+2      	; 0x1218 <vfprintf+0x24a>
    1216:	f1 2c       	mov	r15, r1
    1218:	83 2d       	mov	r24, r3
    121a:	89 70       	andi	r24, 0x09	; 9
    121c:	49 f4       	brne	.+18     	; 0x1230 <vfprintf+0x262>
    121e:	ff 20       	and	r15, r15
    1220:	39 f0       	breq	.+14     	; 0x1230 <vfprintf+0x262>
    1222:	b6 01       	movw	r22, r12
    1224:	80 e2       	ldi	r24, 0x20	; 32
    1226:	90 e0       	ldi	r25, 0x00	; 0
    1228:	0e 94 34 14 	call	0x2868	; 0x2868 <fputc>
    122c:	fa 94       	dec	r15
    122e:	f7 cf       	rjmp	.-18     	; 0x121e <vfprintf+0x250>
    1230:	22 20       	and	r2, r2
    1232:	29 f0       	breq	.+10     	; 0x123e <vfprintf+0x270>
    1234:	b6 01       	movw	r22, r12
    1236:	82 2d       	mov	r24, r2
    1238:	90 e0       	ldi	r25, 0x00	; 0
    123a:	0e 94 34 14 	call	0x2868	; 0x2868 <fputc>
    123e:	33 fc       	sbrc	r3, 3
    1240:	09 c0       	rjmp	.+18     	; 0x1254 <vfprintf+0x286>
    1242:	ff 20       	and	r15, r15
    1244:	39 f0       	breq	.+14     	; 0x1254 <vfprintf+0x286>
    1246:	b6 01       	movw	r22, r12
    1248:	80 e3       	ldi	r24, 0x30	; 48
    124a:	90 e0       	ldi	r25, 0x00	; 0
    124c:	0e 94 34 14 	call	0x2868	; 0x2868 <fputc>
    1250:	fa 94       	dec	r15
    1252:	f7 cf       	rjmp	.-18     	; 0x1242 <vfprintf+0x274>
    1254:	37 fe       	sbrs	r3, 7
    1256:	5a c0       	rjmp	.+180    	; 0x130c <vfprintf+0x33e>
    1258:	94 2d       	mov	r25, r4
    125a:	85 2d       	mov	r24, r5
    125c:	57 fe       	sbrs	r5, 7
    125e:	02 c0       	rjmp	.+4      	; 0x1264 <vfprintf+0x296>
    1260:	90 e0       	ldi	r25, 0x00	; 0
    1262:	80 e0       	ldi	r24, 0x00	; 0
    1264:	29 2e       	mov	r2, r25
    1266:	38 2e       	mov	r3, r24
    1268:	20 e0       	ldi	r18, 0x00	; 0
    126a:	30 e0       	ldi	r19, 0x00	; 0
    126c:	a2 01       	movw	r20, r4
    126e:	4e 19       	sub	r20, r14
    1270:	51 09       	sbc	r21, r1
    1272:	5d 87       	std	Y+13, r21	; 0x0d
    1274:	4c 87       	std	Y+12, r20	; 0x0c
    1276:	a2 01       	movw	r20, r4
    1278:	42 19       	sub	r20, r2
    127a:	53 09       	sbc	r21, r3
    127c:	5f 87       	std	Y+15, r21	; 0x0f
    127e:	4e 87       	std	Y+14, r20	; 0x0e
    1280:	61 2f       	mov	r22, r17
    1282:	70 e0       	ldi	r23, 0x00	; 0
    1284:	44 27       	eor	r20, r20
    1286:	55 27       	eor	r21, r21
    1288:	46 1b       	sub	r20, r22
    128a:	57 0b       	sbc	r21, r23
    128c:	59 8b       	std	Y+17, r21	; 0x11
    128e:	48 8b       	std	Y+16, r20	; 0x10
    1290:	5f ef       	ldi	r21, 0xFF	; 255
    1292:	25 16       	cp	r2, r21
    1294:	35 06       	cpc	r3, r21
    1296:	49 f4       	brne	.+18     	; 0x12aa <vfprintf+0x2dc>
    1298:	b6 01       	movw	r22, r12
    129a:	8e e2       	ldi	r24, 0x2E	; 46
    129c:	90 e0       	ldi	r25, 0x00	; 0
    129e:	2a 8b       	std	Y+18, r18	; 0x12
    12a0:	3b 8b       	std	Y+19, r19	; 0x13
    12a2:	0e 94 34 14 	call	0x2868	; 0x2868 <fputc>
    12a6:	3b 89       	ldd	r19, Y+19	; 0x13
    12a8:	2a 89       	ldd	r18, Y+18	; 0x12
    12aa:	42 14       	cp	r4, r2
    12ac:	53 04       	cpc	r5, r3
    12ae:	6c f0       	brlt	.+26     	; 0x12ca <vfprintf+0x2fc>
    12b0:	4c 85       	ldd	r20, Y+12	; 0x0c
    12b2:	5d 85       	ldd	r21, Y+13	; 0x0d
    12b4:	42 15       	cp	r20, r2
    12b6:	53 05       	cpc	r21, r3
    12b8:	44 f4       	brge	.+16     	; 0x12ca <vfprintf+0x2fc>
    12ba:	ee 85       	ldd	r30, Y+14	; 0x0e
    12bc:	ff 85       	ldd	r31, Y+15	; 0x0f
    12be:	e2 0f       	add	r30, r18
    12c0:	f3 1f       	adc	r31, r19
    12c2:	e6 0d       	add	r30, r6
    12c4:	f7 1d       	adc	r31, r7
    12c6:	81 81       	ldd	r24, Z+1	; 0x01
    12c8:	01 c0       	rjmp	.+2      	; 0x12cc <vfprintf+0x2fe>
    12ca:	80 e3       	ldi	r24, 0x30	; 48
    12cc:	51 e0       	ldi	r21, 0x01	; 1
    12ce:	25 1a       	sub	r2, r21
    12d0:	31 08       	sbc	r3, r1
    12d2:	2f 5f       	subi	r18, 0xFF	; 255
    12d4:	3f 4f       	sbci	r19, 0xFF	; 255
    12d6:	48 89       	ldd	r20, Y+16	; 0x10
    12d8:	59 89       	ldd	r21, Y+17	; 0x11
    12da:	24 16       	cp	r2, r20
    12dc:	35 06       	cpc	r3, r21
    12de:	4c f0       	brlt	.+18     	; 0x12f2 <vfprintf+0x324>
    12e0:	b6 01       	movw	r22, r12
    12e2:	90 e0       	ldi	r25, 0x00	; 0
    12e4:	2a 8b       	std	Y+18, r18	; 0x12
    12e6:	3b 8b       	std	Y+19, r19	; 0x13
    12e8:	0e 94 34 14 	call	0x2868	; 0x2868 <fputc>
    12ec:	2a 89       	ldd	r18, Y+18	; 0x12
    12ee:	3b 89       	ldd	r19, Y+19	; 0x13
    12f0:	cf cf       	rjmp	.-98     	; 0x1290 <vfprintf+0x2c2>
    12f2:	24 14       	cp	r2, r4
    12f4:	35 04       	cpc	r3, r5
    12f6:	39 f4       	brne	.+14     	; 0x1306 <vfprintf+0x338>
    12f8:	9a 81       	ldd	r25, Y+2	; 0x02
    12fa:	96 33       	cpi	r25, 0x36	; 54
    12fc:	18 f4       	brcc	.+6      	; 0x1304 <vfprintf+0x336>
    12fe:	95 33       	cpi	r25, 0x35	; 53
    1300:	11 f4       	brne	.+4      	; 0x1306 <vfprintf+0x338>
    1302:	04 ff       	sbrs	r16, 4
    1304:	81 e3       	ldi	r24, 0x31	; 49
    1306:	b6 01       	movw	r22, r12
    1308:	90 e0       	ldi	r25, 0x00	; 0
    130a:	4b c0       	rjmp	.+150    	; 0x13a2 <vfprintf+0x3d4>
    130c:	8a 81       	ldd	r24, Y+2	; 0x02
    130e:	81 33       	cpi	r24, 0x31	; 49
    1310:	09 f0       	breq	.+2      	; 0x1314 <vfprintf+0x346>
    1312:	0f 7e       	andi	r16, 0xEF	; 239
    1314:	b6 01       	movw	r22, r12
    1316:	90 e0       	ldi	r25, 0x00	; 0
    1318:	0e 94 34 14 	call	0x2868	; 0x2868 <fputc>
    131c:	11 11       	cpse	r17, r1
    131e:	05 c0       	rjmp	.+10     	; 0x132a <vfprintf+0x35c>
    1320:	34 fc       	sbrc	r3, 4
    1322:	18 c0       	rjmp	.+48     	; 0x1354 <vfprintf+0x386>
    1324:	85 e6       	ldi	r24, 0x65	; 101
    1326:	90 e0       	ldi	r25, 0x00	; 0
    1328:	17 c0       	rjmp	.+46     	; 0x1358 <vfprintf+0x38a>
    132a:	b6 01       	movw	r22, r12
    132c:	8e e2       	ldi	r24, 0x2E	; 46
    132e:	90 e0       	ldi	r25, 0x00	; 0
    1330:	0e 94 34 14 	call	0x2868	; 0x2868 <fputc>
    1334:	82 e0       	ldi	r24, 0x02	; 2
    1336:	ee 24       	eor	r14, r14
    1338:	e3 94       	inc	r14
    133a:	e8 0e       	add	r14, r24
    133c:	f3 01       	movw	r30, r6
    133e:	e8 0f       	add	r30, r24
    1340:	f1 1d       	adc	r31, r1
    1342:	80 81       	ld	r24, Z
    1344:	b6 01       	movw	r22, r12
    1346:	90 e0       	ldi	r25, 0x00	; 0
    1348:	0e 94 34 14 	call	0x2868	; 0x2868 <fputc>
    134c:	11 50       	subi	r17, 0x01	; 1
    134e:	8e 2d       	mov	r24, r14
    1350:	91 f7       	brne	.-28     	; 0x1336 <vfprintf+0x368>
    1352:	e6 cf       	rjmp	.-52     	; 0x1320 <vfprintf+0x352>
    1354:	85 e4       	ldi	r24, 0x45	; 69
    1356:	90 e0       	ldi	r25, 0x00	; 0
    1358:	b6 01       	movw	r22, r12
    135a:	0e 94 34 14 	call	0x2868	; 0x2868 <fputc>
    135e:	57 fc       	sbrc	r5, 7
    1360:	05 c0       	rjmp	.+10     	; 0x136c <vfprintf+0x39e>
    1362:	41 14       	cp	r4, r1
    1364:	51 04       	cpc	r5, r1
    1366:	39 f4       	brne	.+14     	; 0x1376 <vfprintf+0x3a8>
    1368:	04 ff       	sbrs	r16, 4
    136a:	05 c0       	rjmp	.+10     	; 0x1376 <vfprintf+0x3a8>
    136c:	51 94       	neg	r5
    136e:	41 94       	neg	r4
    1370:	51 08       	sbc	r5, r1
    1372:	8d e2       	ldi	r24, 0x2D	; 45
    1374:	01 c0       	rjmp	.+2      	; 0x1378 <vfprintf+0x3aa>
    1376:	8b e2       	ldi	r24, 0x2B	; 43
    1378:	b6 01       	movw	r22, r12
    137a:	90 e0       	ldi	r25, 0x00	; 0
    137c:	0e 94 34 14 	call	0x2868	; 0x2868 <fputc>
    1380:	80 e3       	ldi	r24, 0x30	; 48
    1382:	9a e0       	ldi	r25, 0x0A	; 10
    1384:	49 16       	cp	r4, r25
    1386:	51 04       	cpc	r5, r1
    1388:	2c f0       	brlt	.+10     	; 0x1394 <vfprintf+0x3c6>
    138a:	8f 5f       	subi	r24, 0xFF	; 255
    138c:	5a e0       	ldi	r21, 0x0A	; 10
    138e:	45 1a       	sub	r4, r21
    1390:	51 08       	sbc	r5, r1
    1392:	f7 cf       	rjmp	.-18     	; 0x1382 <vfprintf+0x3b4>
    1394:	b6 01       	movw	r22, r12
    1396:	90 e0       	ldi	r25, 0x00	; 0
    1398:	0e 94 34 14 	call	0x2868	; 0x2868 <fputc>
    139c:	b6 01       	movw	r22, r12
    139e:	c2 01       	movw	r24, r4
    13a0:	c0 96       	adiw	r24, 0x30	; 48
    13a2:	0e 94 34 14 	call	0x2868	; 0x2868 <fputc>
    13a6:	57 c1       	rjmp	.+686    	; 0x1656 <vfprintf+0x688>
    13a8:	83 36       	cpi	r24, 0x63	; 99
    13aa:	31 f0       	breq	.+12     	; 0x13b8 <vfprintf+0x3ea>
    13ac:	83 37       	cpi	r24, 0x73	; 115
    13ae:	79 f0       	breq	.+30     	; 0x13ce <vfprintf+0x400>
    13b0:	83 35       	cpi	r24, 0x53	; 83
    13b2:	09 f0       	breq	.+2      	; 0x13b6 <vfprintf+0x3e8>
    13b4:	58 c0       	rjmp	.+176    	; 0x1466 <vfprintf+0x498>
    13b6:	21 c0       	rjmp	.+66     	; 0x13fa <vfprintf+0x42c>
    13b8:	52 01       	movw	r10, r4
    13ba:	e2 e0       	ldi	r30, 0x02	; 2
    13bc:	ae 0e       	add	r10, r30
    13be:	b1 1c       	adc	r11, r1
    13c0:	f2 01       	movw	r30, r4
    13c2:	80 81       	ld	r24, Z
    13c4:	89 83       	std	Y+1, r24	; 0x01
    13c6:	01 e0       	ldi	r16, 0x01	; 1
    13c8:	10 e0       	ldi	r17, 0x00	; 0
    13ca:	23 01       	movw	r4, r6
    13cc:	14 c0       	rjmp	.+40     	; 0x13f6 <vfprintf+0x428>
    13ce:	52 01       	movw	r10, r4
    13d0:	f2 e0       	ldi	r31, 0x02	; 2
    13d2:	af 0e       	add	r10, r31
    13d4:	b1 1c       	adc	r11, r1
    13d6:	f2 01       	movw	r30, r4
    13d8:	40 80       	ld	r4, Z
    13da:	51 80       	ldd	r5, Z+1	; 0x01
    13dc:	26 ff       	sbrs	r18, 6
    13de:	03 c0       	rjmp	.+6      	; 0x13e6 <vfprintf+0x418>
    13e0:	61 2f       	mov	r22, r17
    13e2:	70 e0       	ldi	r23, 0x00	; 0
    13e4:	02 c0       	rjmp	.+4      	; 0x13ea <vfprintf+0x41c>
    13e6:	6f ef       	ldi	r22, 0xFF	; 255
    13e8:	7f ef       	ldi	r23, 0xFF	; 255
    13ea:	c2 01       	movw	r24, r4
    13ec:	2a 8b       	std	Y+18, r18	; 0x12
    13ee:	0e 94 eb 13 	call	0x27d6	; 0x27d6 <strnlen>
    13f2:	8c 01       	movw	r16, r24
    13f4:	2a 89       	ldd	r18, Y+18	; 0x12
    13f6:	2f 77       	andi	r18, 0x7F	; 127
    13f8:	15 c0       	rjmp	.+42     	; 0x1424 <vfprintf+0x456>
    13fa:	52 01       	movw	r10, r4
    13fc:	f2 e0       	ldi	r31, 0x02	; 2
    13fe:	af 0e       	add	r10, r31
    1400:	b1 1c       	adc	r11, r1
    1402:	f2 01       	movw	r30, r4
    1404:	40 80       	ld	r4, Z
    1406:	51 80       	ldd	r5, Z+1	; 0x01
    1408:	26 ff       	sbrs	r18, 6
    140a:	03 c0       	rjmp	.+6      	; 0x1412 <vfprintf+0x444>
    140c:	61 2f       	mov	r22, r17
    140e:	70 e0       	ldi	r23, 0x00	; 0
    1410:	02 c0       	rjmp	.+4      	; 0x1416 <vfprintf+0x448>
    1412:	6f ef       	ldi	r22, 0xFF	; 255
    1414:	7f ef       	ldi	r23, 0xFF	; 255
    1416:	c2 01       	movw	r24, r4
    1418:	2a 8b       	std	Y+18, r18	; 0x12
    141a:	0e 94 bc 13 	call	0x2778	; 0x2778 <strnlen_P>
    141e:	8c 01       	movw	r16, r24
    1420:	2a 89       	ldd	r18, Y+18	; 0x12
    1422:	20 68       	ori	r18, 0x80	; 128
    1424:	32 2e       	mov	r3, r18
    1426:	23 fd       	sbrc	r18, 3
    1428:	1a c0       	rjmp	.+52     	; 0x145e <vfprintf+0x490>
    142a:	8f 2d       	mov	r24, r15
    142c:	90 e0       	ldi	r25, 0x00	; 0
    142e:	08 17       	cp	r16, r24
    1430:	19 07       	cpc	r17, r25
    1432:	a8 f4       	brcc	.+42     	; 0x145e <vfprintf+0x490>
    1434:	b6 01       	movw	r22, r12
    1436:	80 e2       	ldi	r24, 0x20	; 32
    1438:	90 e0       	ldi	r25, 0x00	; 0
    143a:	0e 94 34 14 	call	0x2868	; 0x2868 <fputc>
    143e:	fa 94       	dec	r15
    1440:	f4 cf       	rjmp	.-24     	; 0x142a <vfprintf+0x45c>
    1442:	f2 01       	movw	r30, r4
    1444:	37 fc       	sbrc	r3, 7
    1446:	85 91       	lpm	r24, Z+
    1448:	37 fe       	sbrs	r3, 7
    144a:	81 91       	ld	r24, Z+
    144c:	2f 01       	movw	r4, r30
    144e:	b6 01       	movw	r22, r12
    1450:	90 e0       	ldi	r25, 0x00	; 0
    1452:	0e 94 34 14 	call	0x2868	; 0x2868 <fputc>
    1456:	f1 10       	cpse	r15, r1
    1458:	fa 94       	dec	r15
    145a:	01 50       	subi	r16, 0x01	; 1
    145c:	11 09       	sbc	r17, r1
    145e:	01 15       	cp	r16, r1
    1460:	11 05       	cpc	r17, r1
    1462:	79 f7       	brne	.-34     	; 0x1442 <vfprintf+0x474>
    1464:	f8 c0       	rjmp	.+496    	; 0x1656 <vfprintf+0x688>
    1466:	84 36       	cpi	r24, 0x64	; 100
    1468:	11 f0       	breq	.+4      	; 0x146e <vfprintf+0x4a0>
    146a:	89 36       	cpi	r24, 0x69	; 105
    146c:	59 f5       	brne	.+86     	; 0x14c4 <vfprintf+0x4f6>
    146e:	52 01       	movw	r10, r4
    1470:	27 ff       	sbrs	r18, 7
    1472:	09 c0       	rjmp	.+18     	; 0x1486 <vfprintf+0x4b8>
    1474:	f4 e0       	ldi	r31, 0x04	; 4
    1476:	af 0e       	add	r10, r31
    1478:	b1 1c       	adc	r11, r1
    147a:	f2 01       	movw	r30, r4
    147c:	60 81       	ld	r22, Z
    147e:	71 81       	ldd	r23, Z+1	; 0x01
    1480:	82 81       	ldd	r24, Z+2	; 0x02
    1482:	93 81       	ldd	r25, Z+3	; 0x03
    1484:	0a c0       	rjmp	.+20     	; 0x149a <vfprintf+0x4cc>
    1486:	f2 e0       	ldi	r31, 0x02	; 2
    1488:	af 0e       	add	r10, r31
    148a:	b1 1c       	adc	r11, r1
    148c:	f2 01       	movw	r30, r4
    148e:	60 81       	ld	r22, Z
    1490:	71 81       	ldd	r23, Z+1	; 0x01
    1492:	88 27       	eor	r24, r24
    1494:	77 fd       	sbrc	r23, 7
    1496:	80 95       	com	r24
    1498:	98 2f       	mov	r25, r24
    149a:	2f 76       	andi	r18, 0x6F	; 111
    149c:	32 2e       	mov	r3, r18
    149e:	97 ff       	sbrs	r25, 7
    14a0:	09 c0       	rjmp	.+18     	; 0x14b4 <vfprintf+0x4e6>
    14a2:	90 95       	com	r25
    14a4:	80 95       	com	r24
    14a6:	70 95       	com	r23
    14a8:	61 95       	neg	r22
    14aa:	7f 4f       	sbci	r23, 0xFF	; 255
    14ac:	8f 4f       	sbci	r24, 0xFF	; 255
    14ae:	9f 4f       	sbci	r25, 0xFF	; 255
    14b0:	20 68       	ori	r18, 0x80	; 128
    14b2:	32 2e       	mov	r3, r18
    14b4:	2a e0       	ldi	r18, 0x0A	; 10
    14b6:	30 e0       	ldi	r19, 0x00	; 0
    14b8:	a3 01       	movw	r20, r6
    14ba:	0e 94 f1 14 	call	0x29e2	; 0x29e2 <__ultoa_invert>
    14be:	e8 2e       	mov	r14, r24
    14c0:	e6 18       	sub	r14, r6
    14c2:	3f c0       	rjmp	.+126    	; 0x1542 <vfprintf+0x574>
    14c4:	02 2f       	mov	r16, r18
    14c6:	85 37       	cpi	r24, 0x75	; 117
    14c8:	21 f4       	brne	.+8      	; 0x14d2 <vfprintf+0x504>
    14ca:	0f 7e       	andi	r16, 0xEF	; 239
    14cc:	2a e0       	ldi	r18, 0x0A	; 10
    14ce:	30 e0       	ldi	r19, 0x00	; 0
    14d0:	1d c0       	rjmp	.+58     	; 0x150c <vfprintf+0x53e>
    14d2:	09 7f       	andi	r16, 0xF9	; 249
    14d4:	8f 36       	cpi	r24, 0x6F	; 111
    14d6:	91 f0       	breq	.+36     	; 0x14fc <vfprintf+0x52e>
    14d8:	18 f4       	brcc	.+6      	; 0x14e0 <vfprintf+0x512>
    14da:	88 35       	cpi	r24, 0x58	; 88
    14dc:	59 f0       	breq	.+22     	; 0x14f4 <vfprintf+0x526>
    14de:	c5 c0       	rjmp	.+394    	; 0x166a <vfprintf+0x69c>
    14e0:	80 37       	cpi	r24, 0x70	; 112
    14e2:	19 f0       	breq	.+6      	; 0x14ea <vfprintf+0x51c>
    14e4:	88 37       	cpi	r24, 0x78	; 120
    14e6:	11 f0       	breq	.+4      	; 0x14ec <vfprintf+0x51e>
    14e8:	c0 c0       	rjmp	.+384    	; 0x166a <vfprintf+0x69c>
    14ea:	00 61       	ori	r16, 0x10	; 16
    14ec:	04 ff       	sbrs	r16, 4
    14ee:	09 c0       	rjmp	.+18     	; 0x1502 <vfprintf+0x534>
    14f0:	04 60       	ori	r16, 0x04	; 4
    14f2:	07 c0       	rjmp	.+14     	; 0x1502 <vfprintf+0x534>
    14f4:	24 ff       	sbrs	r18, 4
    14f6:	08 c0       	rjmp	.+16     	; 0x1508 <vfprintf+0x53a>
    14f8:	06 60       	ori	r16, 0x06	; 6
    14fa:	06 c0       	rjmp	.+12     	; 0x1508 <vfprintf+0x53a>
    14fc:	28 e0       	ldi	r18, 0x08	; 8
    14fe:	30 e0       	ldi	r19, 0x00	; 0
    1500:	05 c0       	rjmp	.+10     	; 0x150c <vfprintf+0x53e>
    1502:	20 e1       	ldi	r18, 0x10	; 16
    1504:	30 e0       	ldi	r19, 0x00	; 0
    1506:	02 c0       	rjmp	.+4      	; 0x150c <vfprintf+0x53e>
    1508:	20 e1       	ldi	r18, 0x10	; 16
    150a:	32 e0       	ldi	r19, 0x02	; 2
    150c:	52 01       	movw	r10, r4
    150e:	07 ff       	sbrs	r16, 7
    1510:	09 c0       	rjmp	.+18     	; 0x1524 <vfprintf+0x556>
    1512:	f4 e0       	ldi	r31, 0x04	; 4
    1514:	af 0e       	add	r10, r31
    1516:	b1 1c       	adc	r11, r1
    1518:	f2 01       	movw	r30, r4
    151a:	60 81       	ld	r22, Z
    151c:	71 81       	ldd	r23, Z+1	; 0x01
    151e:	82 81       	ldd	r24, Z+2	; 0x02
    1520:	93 81       	ldd	r25, Z+3	; 0x03
    1522:	08 c0       	rjmp	.+16     	; 0x1534 <vfprintf+0x566>
    1524:	f2 e0       	ldi	r31, 0x02	; 2
    1526:	af 0e       	add	r10, r31
    1528:	b1 1c       	adc	r11, r1
    152a:	f2 01       	movw	r30, r4
    152c:	60 81       	ld	r22, Z
    152e:	71 81       	ldd	r23, Z+1	; 0x01
    1530:	80 e0       	ldi	r24, 0x00	; 0
    1532:	90 e0       	ldi	r25, 0x00	; 0
    1534:	a3 01       	movw	r20, r6
    1536:	0e 94 f1 14 	call	0x29e2	; 0x29e2 <__ultoa_invert>
    153a:	e8 2e       	mov	r14, r24
    153c:	e6 18       	sub	r14, r6
    153e:	0f 77       	andi	r16, 0x7F	; 127
    1540:	30 2e       	mov	r3, r16
    1542:	36 fe       	sbrs	r3, 6
    1544:	0b c0       	rjmp	.+22     	; 0x155c <vfprintf+0x58e>
    1546:	33 2d       	mov	r19, r3
    1548:	3e 7f       	andi	r19, 0xFE	; 254
    154a:	e1 16       	cp	r14, r17
    154c:	50 f4       	brcc	.+20     	; 0x1562 <vfprintf+0x594>
    154e:	34 fe       	sbrs	r3, 4
    1550:	0a c0       	rjmp	.+20     	; 0x1566 <vfprintf+0x598>
    1552:	32 fc       	sbrc	r3, 2
    1554:	08 c0       	rjmp	.+16     	; 0x1566 <vfprintf+0x598>
    1556:	33 2d       	mov	r19, r3
    1558:	3e 7e       	andi	r19, 0xEE	; 238
    155a:	05 c0       	rjmp	.+10     	; 0x1566 <vfprintf+0x598>
    155c:	0e 2d       	mov	r16, r14
    155e:	33 2d       	mov	r19, r3
    1560:	03 c0       	rjmp	.+6      	; 0x1568 <vfprintf+0x59a>
    1562:	0e 2d       	mov	r16, r14
    1564:	01 c0       	rjmp	.+2      	; 0x1568 <vfprintf+0x59a>
    1566:	01 2f       	mov	r16, r17
    1568:	34 ff       	sbrs	r19, 4
    156a:	0c c0       	rjmp	.+24     	; 0x1584 <vfprintf+0x5b6>
    156c:	fe 01       	movw	r30, r28
    156e:	ee 0d       	add	r30, r14
    1570:	f1 1d       	adc	r31, r1
    1572:	80 81       	ld	r24, Z
    1574:	80 33       	cpi	r24, 0x30	; 48
    1576:	11 f4       	brne	.+4      	; 0x157c <vfprintf+0x5ae>
    1578:	39 7e       	andi	r19, 0xE9	; 233
    157a:	08 c0       	rjmp	.+16     	; 0x158c <vfprintf+0x5be>
    157c:	32 ff       	sbrs	r19, 2
    157e:	05 c0       	rjmp	.+10     	; 0x158a <vfprintf+0x5bc>
    1580:	0e 5f       	subi	r16, 0xFE	; 254
    1582:	04 c0       	rjmp	.+8      	; 0x158c <vfprintf+0x5be>
    1584:	83 2f       	mov	r24, r19
    1586:	86 78       	andi	r24, 0x86	; 134
    1588:	09 f0       	breq	.+2      	; 0x158c <vfprintf+0x5be>
    158a:	0f 5f       	subi	r16, 0xFF	; 255
    158c:	33 fd       	sbrc	r19, 3
    158e:	13 c0       	rjmp	.+38     	; 0x15b6 <vfprintf+0x5e8>
    1590:	30 ff       	sbrs	r19, 0
    1592:	06 c0       	rjmp	.+12     	; 0x15a0 <vfprintf+0x5d2>
    1594:	1e 2d       	mov	r17, r14
    1596:	0f 15       	cp	r16, r15
    1598:	18 f4       	brcc	.+6      	; 0x15a0 <vfprintf+0x5d2>
    159a:	1f 0d       	add	r17, r15
    159c:	10 1b       	sub	r17, r16
    159e:	0f 2d       	mov	r16, r15
    15a0:	0f 15       	cp	r16, r15
    15a2:	68 f4       	brcc	.+26     	; 0x15be <vfprintf+0x5f0>
    15a4:	b6 01       	movw	r22, r12
    15a6:	80 e2       	ldi	r24, 0x20	; 32
    15a8:	90 e0       	ldi	r25, 0x00	; 0
    15aa:	3b 8b       	std	Y+19, r19	; 0x13
    15ac:	0e 94 34 14 	call	0x2868	; 0x2868 <fputc>
    15b0:	0f 5f       	subi	r16, 0xFF	; 255
    15b2:	3b 89       	ldd	r19, Y+19	; 0x13
    15b4:	f5 cf       	rjmp	.-22     	; 0x15a0 <vfprintf+0x5d2>
    15b6:	0f 15       	cp	r16, r15
    15b8:	10 f4       	brcc	.+4      	; 0x15be <vfprintf+0x5f0>
    15ba:	f0 1a       	sub	r15, r16
    15bc:	01 c0       	rjmp	.+2      	; 0x15c0 <vfprintf+0x5f2>
    15be:	f1 2c       	mov	r15, r1
    15c0:	34 ff       	sbrs	r19, 4
    15c2:	12 c0       	rjmp	.+36     	; 0x15e8 <vfprintf+0x61a>
    15c4:	b6 01       	movw	r22, r12
    15c6:	80 e3       	ldi	r24, 0x30	; 48
    15c8:	90 e0       	ldi	r25, 0x00	; 0
    15ca:	3b 8b       	std	Y+19, r19	; 0x13
    15cc:	0e 94 34 14 	call	0x2868	; 0x2868 <fputc>
    15d0:	3b 89       	ldd	r19, Y+19	; 0x13
    15d2:	32 ff       	sbrs	r19, 2
    15d4:	17 c0       	rjmp	.+46     	; 0x1604 <vfprintf+0x636>
    15d6:	31 fd       	sbrc	r19, 1
    15d8:	03 c0       	rjmp	.+6      	; 0x15e0 <vfprintf+0x612>
    15da:	88 e7       	ldi	r24, 0x78	; 120
    15dc:	90 e0       	ldi	r25, 0x00	; 0
    15de:	02 c0       	rjmp	.+4      	; 0x15e4 <vfprintf+0x616>
    15e0:	88 e5       	ldi	r24, 0x58	; 88
    15e2:	90 e0       	ldi	r25, 0x00	; 0
    15e4:	b6 01       	movw	r22, r12
    15e6:	0c c0       	rjmp	.+24     	; 0x1600 <vfprintf+0x632>
    15e8:	83 2f       	mov	r24, r19
    15ea:	86 78       	andi	r24, 0x86	; 134
    15ec:	59 f0       	breq	.+22     	; 0x1604 <vfprintf+0x636>
    15ee:	31 ff       	sbrs	r19, 1
    15f0:	02 c0       	rjmp	.+4      	; 0x15f6 <vfprintf+0x628>
    15f2:	8b e2       	ldi	r24, 0x2B	; 43
    15f4:	01 c0       	rjmp	.+2      	; 0x15f8 <vfprintf+0x62a>
    15f6:	80 e2       	ldi	r24, 0x20	; 32
    15f8:	37 fd       	sbrc	r19, 7
    15fa:	8d e2       	ldi	r24, 0x2D	; 45
    15fc:	b6 01       	movw	r22, r12
    15fe:	90 e0       	ldi	r25, 0x00	; 0
    1600:	0e 94 34 14 	call	0x2868	; 0x2868 <fputc>
    1604:	e1 16       	cp	r14, r17
    1606:	38 f4       	brcc	.+14     	; 0x1616 <vfprintf+0x648>
    1608:	b6 01       	movw	r22, r12
    160a:	80 e3       	ldi	r24, 0x30	; 48
    160c:	90 e0       	ldi	r25, 0x00	; 0
    160e:	0e 94 34 14 	call	0x2868	; 0x2868 <fputc>
    1612:	11 50       	subi	r17, 0x01	; 1
    1614:	f7 cf       	rjmp	.-18     	; 0x1604 <vfprintf+0x636>
    1616:	ea 94       	dec	r14
    1618:	f3 01       	movw	r30, r6
    161a:	ee 0d       	add	r30, r14
    161c:	f1 1d       	adc	r31, r1
    161e:	80 81       	ld	r24, Z
    1620:	b6 01       	movw	r22, r12
    1622:	90 e0       	ldi	r25, 0x00	; 0
    1624:	0e 94 34 14 	call	0x2868	; 0x2868 <fputc>
    1628:	e1 10       	cpse	r14, r1
    162a:	f5 cf       	rjmp	.-22     	; 0x1616 <vfprintf+0x648>
    162c:	14 c0       	rjmp	.+40     	; 0x1656 <vfprintf+0x688>
    162e:	f4 e0       	ldi	r31, 0x04	; 4
    1630:	ff 15       	cp	r31, r15
    1632:	58 f5       	brcc	.+86     	; 0x168a <vfprintf+0x6bc>
    1634:	84 e0       	ldi	r24, 0x04	; 4
    1636:	f8 1a       	sub	r15, r24
    1638:	33 fe       	sbrs	r3, 3
    163a:	1e c0       	rjmp	.+60     	; 0x1678 <vfprintf+0x6aa>
    163c:	21 10       	cpse	r2, r1
    163e:	26 c0       	rjmp	.+76     	; 0x168c <vfprintf+0x6be>
    1640:	03 ff       	sbrs	r16, 3
    1642:	2a c0       	rjmp	.+84     	; 0x1698 <vfprintf+0x6ca>
    1644:	00 eb       	ldi	r16, 0xB0	; 176
    1646:	18 e0       	ldi	r17, 0x08	; 8
    1648:	f3 2d       	mov	r31, r3
    164a:	f0 71       	andi	r31, 0x10	; 16
    164c:	3f 2e       	mov	r3, r31
    164e:	f8 01       	movw	r30, r16
    1650:	84 91       	lpm	r24, Z
    1652:	81 11       	cpse	r24, r1
    1654:	24 c0       	rjmp	.+72     	; 0x169e <vfprintf+0x6d0>
    1656:	ff 20       	and	r15, r15
    1658:	09 f4       	brne	.+2      	; 0x165c <vfprintf+0x68e>
    165a:	e5 cc       	rjmp	.-1590   	; 0x1026 <vfprintf+0x58>
    165c:	b6 01       	movw	r22, r12
    165e:	80 e2       	ldi	r24, 0x20	; 32
    1660:	90 e0       	ldi	r25, 0x00	; 0
    1662:	0e 94 34 14 	call	0x2868	; 0x2868 <fputc>
    1666:	fa 94       	dec	r15
    1668:	f6 cf       	rjmp	.-20     	; 0x1656 <vfprintf+0x688>
    166a:	f6 01       	movw	r30, r12
    166c:	86 81       	ldd	r24, Z+6	; 0x06
    166e:	97 81       	ldd	r25, Z+7	; 0x07
    1670:	26 c0       	rjmp	.+76     	; 0x16be <vfprintf+0x6f0>
    1672:	8f ef       	ldi	r24, 0xFF	; 255
    1674:	9f ef       	ldi	r25, 0xFF	; 255
    1676:	23 c0       	rjmp	.+70     	; 0x16be <vfprintf+0x6f0>
    1678:	b6 01       	movw	r22, r12
    167a:	80 e2       	ldi	r24, 0x20	; 32
    167c:	90 e0       	ldi	r25, 0x00	; 0
    167e:	0e 94 34 14 	call	0x2868	; 0x2868 <fputc>
    1682:	fa 94       	dec	r15
    1684:	f1 10       	cpse	r15, r1
    1686:	f8 cf       	rjmp	.-16     	; 0x1678 <vfprintf+0x6aa>
    1688:	d9 cf       	rjmp	.-78     	; 0x163c <vfprintf+0x66e>
    168a:	f1 2c       	mov	r15, r1
    168c:	b6 01       	movw	r22, r12
    168e:	82 2d       	mov	r24, r2
    1690:	90 e0       	ldi	r25, 0x00	; 0
    1692:	0e 94 34 14 	call	0x2868	; 0x2868 <fputc>
    1696:	d4 cf       	rjmp	.-88     	; 0x1640 <vfprintf+0x672>
    1698:	04 eb       	ldi	r16, 0xB4	; 180
    169a:	18 e0       	ldi	r17, 0x08	; 8
    169c:	d5 cf       	rjmp	.-86     	; 0x1648 <vfprintf+0x67a>
    169e:	31 10       	cpse	r3, r1
    16a0:	80 52       	subi	r24, 0x20	; 32
    16a2:	b6 01       	movw	r22, r12
    16a4:	90 e0       	ldi	r25, 0x00	; 0
    16a6:	0e 94 34 14 	call	0x2868	; 0x2868 <fputc>
    16aa:	0f 5f       	subi	r16, 0xFF	; 255
    16ac:	1f 4f       	sbci	r17, 0xFF	; 255
    16ae:	cf cf       	rjmp	.-98     	; 0x164e <vfprintf+0x680>
    16b0:	23 e0       	ldi	r18, 0x03	; 3
    16b2:	2f 15       	cp	r18, r15
    16b4:	10 f4       	brcc	.+4      	; 0x16ba <vfprintf+0x6ec>
    16b6:	83 e0       	ldi	r24, 0x03	; 3
    16b8:	be cf       	rjmp	.-132    	; 0x1636 <vfprintf+0x668>
    16ba:	f1 2c       	mov	r15, r1
    16bc:	c1 cf       	rjmp	.-126    	; 0x1640 <vfprintf+0x672>
    16be:	63 96       	adiw	r28, 0x13	; 19
    16c0:	e2 e1       	ldi	r30, 0x12	; 18
    16c2:	0c 94 b5 0f 	jmp	0x1f6a	; 0x1f6a <__epilogue_restores__>

000016c6 <putval>:
    16c6:	20 fd       	sbrc	r18, 0
    16c8:	09 c0       	rjmp	.+18     	; 0x16dc <putval+0x16>
    16ca:	fc 01       	movw	r30, r24
    16cc:	23 fd       	sbrc	r18, 3
    16ce:	05 c0       	rjmp	.+10     	; 0x16da <putval+0x14>
    16d0:	22 ff       	sbrs	r18, 2
    16d2:	02 c0       	rjmp	.+4      	; 0x16d8 <putval+0x12>
    16d4:	73 83       	std	Z+3, r23	; 0x03
    16d6:	62 83       	std	Z+2, r22	; 0x02
    16d8:	51 83       	std	Z+1, r21	; 0x01
    16da:	40 83       	st	Z, r20
    16dc:	08 95       	ret

000016de <mulacc>:
    16de:	44 fd       	sbrc	r20, 4
    16e0:	10 c0       	rjmp	.+32     	; 0x1702 <mulacc+0x24>
    16e2:	46 fd       	sbrc	r20, 6
    16e4:	10 c0       	rjmp	.+32     	; 0x1706 <mulacc+0x28>
    16e6:	db 01       	movw	r26, r22
    16e8:	fc 01       	movw	r30, r24
    16ea:	aa 0f       	add	r26, r26
    16ec:	bb 1f       	adc	r27, r27
    16ee:	ee 1f       	adc	r30, r30
    16f0:	ff 1f       	adc	r31, r31
    16f2:	10 94       	com	r1
    16f4:	d1 f7       	brne	.-12     	; 0x16ea <mulacc+0xc>
    16f6:	6a 0f       	add	r22, r26
    16f8:	7b 1f       	adc	r23, r27
    16fa:	8e 1f       	adc	r24, r30
    16fc:	9f 1f       	adc	r25, r31
    16fe:	31 e0       	ldi	r19, 0x01	; 1
    1700:	03 c0       	rjmp	.+6      	; 0x1708 <mulacc+0x2a>
    1702:	33 e0       	ldi	r19, 0x03	; 3
    1704:	01 c0       	rjmp	.+2      	; 0x1708 <mulacc+0x2a>
    1706:	34 e0       	ldi	r19, 0x04	; 4
    1708:	66 0f       	add	r22, r22
    170a:	77 1f       	adc	r23, r23
    170c:	88 1f       	adc	r24, r24
    170e:	99 1f       	adc	r25, r25
    1710:	31 50       	subi	r19, 0x01	; 1
    1712:	d1 f7       	brne	.-12     	; 0x1708 <mulacc+0x2a>
    1714:	62 0f       	add	r22, r18
    1716:	71 1d       	adc	r23, r1
    1718:	81 1d       	adc	r24, r1
    171a:	91 1d       	adc	r25, r1
    171c:	08 95       	ret

0000171e <skip_spaces>:
    171e:	0f 93       	push	r16
    1720:	1f 93       	push	r17
    1722:	cf 93       	push	r28
    1724:	df 93       	push	r29
    1726:	8c 01       	movw	r16, r24
    1728:	c8 01       	movw	r24, r16
    172a:	0e 94 f6 13 	call	0x27ec	; 0x27ec <fgetc>
    172e:	ec 01       	movw	r28, r24
    1730:	97 fd       	sbrc	r25, 7
    1732:	08 c0       	rjmp	.+16     	; 0x1744 <skip_spaces+0x26>
    1734:	0e 94 a1 13 	call	0x2742	; 0x2742 <isspace>
    1738:	89 2b       	or	r24, r25
    173a:	b1 f7       	brne	.-20     	; 0x1728 <skip_spaces+0xa>
    173c:	b8 01       	movw	r22, r16
    173e:	ce 01       	movw	r24, r28
    1740:	0e 94 d8 14 	call	0x29b0	; 0x29b0 <ungetc>
    1744:	ce 01       	movw	r24, r28
    1746:	df 91       	pop	r29
    1748:	cf 91       	pop	r28
    174a:	1f 91       	pop	r17
    174c:	0f 91       	pop	r16
    174e:	08 95       	ret

00001750 <conv_int>:
    1750:	a0 e0       	ldi	r26, 0x00	; 0
    1752:	b0 e0       	ldi	r27, 0x00	; 0
    1754:	ee ea       	ldi	r30, 0xAE	; 174
    1756:	fb e0       	ldi	r31, 0x0B	; 11
    1758:	0c 94 9f 0f 	jmp	0x1f3e	; 0x1f3e <__prologue_saves__+0xc>
    175c:	7c 01       	movw	r14, r24
    175e:	8b 01       	movw	r16, r22
    1760:	6a 01       	movw	r12, r20
    1762:	d2 2f       	mov	r29, r18
    1764:	0e 94 f6 13 	call	0x27ec	; 0x27ec <fgetc>
    1768:	9c 01       	movw	r18, r24
    176a:	33 27       	eor	r19, r19
    176c:	2b 32       	cpi	r18, 0x2B	; 43
    176e:	31 05       	cpc	r19, r1
    1770:	21 f0       	breq	.+8      	; 0x177a <conv_int+0x2a>
    1772:	2d 32       	cpi	r18, 0x2D	; 45
    1774:	31 05       	cpc	r19, r1
    1776:	59 f4       	brne	.+22     	; 0x178e <conv_int+0x3e>
    1778:	d0 68       	ori	r29, 0x80	; 128
    177a:	01 50       	subi	r16, 0x01	; 1
    177c:	11 09       	sbc	r17, r1
    177e:	11 f4       	brne	.+4      	; 0x1784 <conv_int+0x34>
    1780:	80 e0       	ldi	r24, 0x00	; 0
    1782:	69 c0       	rjmp	.+210    	; 0x1856 <conv_int+0x106>
    1784:	c7 01       	movw	r24, r14
    1786:	0e 94 f6 13 	call	0x27ec	; 0x27ec <fgetc>
    178a:	97 fd       	sbrc	r25, 7
    178c:	f9 cf       	rjmp	.-14     	; 0x1780 <conv_int+0x30>
    178e:	cd 2f       	mov	r28, r29
    1790:	cd 7f       	andi	r28, 0xFD	; 253
    1792:	2d 2f       	mov	r18, r29
    1794:	20 73       	andi	r18, 0x30	; 48
    1796:	09 f5       	brne	.+66     	; 0x17da <conv_int+0x8a>
    1798:	80 33       	cpi	r24, 0x30	; 48
    179a:	f9 f4       	brne	.+62     	; 0x17da <conv_int+0x8a>
    179c:	58 01       	movw	r10, r16
    179e:	81 e0       	ldi	r24, 0x01	; 1
    17a0:	a8 1a       	sub	r10, r24
    17a2:	b1 08       	sbc	r11, r1
    17a4:	09 f4       	brne	.+2      	; 0x17a8 <conv_int+0x58>
    17a6:	43 c0       	rjmp	.+134    	; 0x182e <conv_int+0xde>
    17a8:	c7 01       	movw	r24, r14
    17aa:	0e 94 f6 13 	call	0x27ec	; 0x27ec <fgetc>
    17ae:	97 fd       	sbrc	r25, 7
    17b0:	3e c0       	rjmp	.+124    	; 0x182e <conv_int+0xde>
    17b2:	28 2f       	mov	r18, r24
    17b4:	2f 7d       	andi	r18, 0xDF	; 223
    17b6:	28 35       	cpi	r18, 0x58	; 88
    17b8:	51 f4       	brne	.+20     	; 0x17ce <conv_int+0x7e>
    17ba:	c2 64       	ori	r28, 0x42	; 66
    17bc:	02 50       	subi	r16, 0x02	; 2
    17be:	11 09       	sbc	r17, r1
    17c0:	b1 f1       	breq	.+108    	; 0x182e <conv_int+0xde>
    17c2:	c7 01       	movw	r24, r14
    17c4:	0e 94 f6 13 	call	0x27ec	; 0x27ec <fgetc>
    17c8:	97 ff       	sbrs	r25, 7
    17ca:	07 c0       	rjmp	.+14     	; 0x17da <conv_int+0x8a>
    17cc:	30 c0       	rjmp	.+96     	; 0x182e <conv_int+0xde>
    17ce:	d6 ff       	sbrs	r29, 6
    17d0:	02 c0       	rjmp	.+4      	; 0x17d6 <conv_int+0x86>
    17d2:	c2 60       	ori	r28, 0x02	; 2
    17d4:	01 c0       	rjmp	.+2      	; 0x17d8 <conv_int+0x88>
    17d6:	c2 61       	ori	r28, 0x12	; 18
    17d8:	85 01       	movw	r16, r10
    17da:	81 2c       	mov	r8, r1
    17dc:	91 2c       	mov	r9, r1
    17de:	54 01       	movw	r10, r8
    17e0:	20 ed       	ldi	r18, 0xD0	; 208
    17e2:	28 0f       	add	r18, r24
    17e4:	28 30       	cpi	r18, 0x08	; 8
    17e6:	80 f0       	brcs	.+32     	; 0x1808 <conv_int+0xb8>
    17e8:	c4 ff       	sbrs	r28, 4
    17ea:	04 c0       	rjmp	.+8      	; 0x17f4 <conv_int+0xa4>
    17ec:	b7 01       	movw	r22, r14
    17ee:	0e 94 d8 14 	call	0x29b0	; 0x29b0 <ungetc>
    17f2:	1a c0       	rjmp	.+52     	; 0x1828 <conv_int+0xd8>
    17f4:	2a 30       	cpi	r18, 0x0A	; 10
    17f6:	40 f0       	brcs	.+16     	; 0x1808 <conv_int+0xb8>
    17f8:	c6 ff       	sbrs	r28, 6
    17fa:	f8 cf       	rjmp	.-16     	; 0x17ec <conv_int+0x9c>
    17fc:	2f 7d       	andi	r18, 0xDF	; 223
    17fe:	3f ee       	ldi	r19, 0xEF	; 239
    1800:	32 0f       	add	r19, r18
    1802:	36 30       	cpi	r19, 0x06	; 6
    1804:	98 f7       	brcc	.-26     	; 0x17ec <conv_int+0x9c>
    1806:	27 50       	subi	r18, 0x07	; 7
    1808:	4c 2f       	mov	r20, r28
    180a:	c5 01       	movw	r24, r10
    180c:	b4 01       	movw	r22, r8
    180e:	0e 94 6f 0b 	call	0x16de	; 0x16de <mulacc>
    1812:	4b 01       	movw	r8, r22
    1814:	5c 01       	movw	r10, r24
    1816:	c2 60       	ori	r28, 0x02	; 2
    1818:	01 50       	subi	r16, 0x01	; 1
    181a:	11 09       	sbc	r17, r1
    181c:	59 f0       	breq	.+22     	; 0x1834 <conv_int+0xe4>
    181e:	c7 01       	movw	r24, r14
    1820:	0e 94 f6 13 	call	0x27ec	; 0x27ec <fgetc>
    1824:	97 ff       	sbrs	r25, 7
    1826:	dc cf       	rjmp	.-72     	; 0x17e0 <conv_int+0x90>
    1828:	c1 fd       	sbrc	r28, 1
    182a:	04 c0       	rjmp	.+8      	; 0x1834 <conv_int+0xe4>
    182c:	a9 cf       	rjmp	.-174    	; 0x1780 <conv_int+0x30>
    182e:	81 2c       	mov	r8, r1
    1830:	91 2c       	mov	r9, r1
    1832:	54 01       	movw	r10, r8
    1834:	c7 ff       	sbrs	r28, 7
    1836:	08 c0       	rjmp	.+16     	; 0x1848 <conv_int+0xf8>
    1838:	b0 94       	com	r11
    183a:	a0 94       	com	r10
    183c:	90 94       	com	r9
    183e:	80 94       	com	r8
    1840:	81 1c       	adc	r8, r1
    1842:	91 1c       	adc	r9, r1
    1844:	a1 1c       	adc	r10, r1
    1846:	b1 1c       	adc	r11, r1
    1848:	2c 2f       	mov	r18, r28
    184a:	b5 01       	movw	r22, r10
    184c:	a4 01       	movw	r20, r8
    184e:	c6 01       	movw	r24, r12
    1850:	0e 94 63 0b 	call	0x16c6	; 0x16c6 <putval>
    1854:	81 e0       	ldi	r24, 0x01	; 1
    1856:	cd b7       	in	r28, 0x3d	; 61
    1858:	de b7       	in	r29, 0x3e	; 62
    185a:	ec e0       	ldi	r30, 0x0C	; 12
    185c:	0c 94 bb 0f 	jmp	0x1f76	; 0x1f76 <__epilogue_restores__+0xc>

00001860 <conv_brk>:
    1860:	a0 e2       	ldi	r26, 0x20	; 32
    1862:	b0 e0       	ldi	r27, 0x00	; 0
    1864:	e6 e3       	ldi	r30, 0x36	; 54
    1866:	fc e0       	ldi	r31, 0x0C	; 12
    1868:	0c 94 9b 0f 	jmp	0x1f36	; 0x1f36 <__prologue_saves__+0x4>
    186c:	4c 01       	movw	r8, r24
    186e:	5b 01       	movw	r10, r22
    1870:	7a 01       	movw	r14, r20
    1872:	8e 01       	movw	r16, r28
    1874:	0f 5f       	subi	r16, 0xFF	; 255
    1876:	1f 4f       	sbci	r17, 0xFF	; 255
    1878:	68 01       	movw	r12, r16
    187a:	80 e2       	ldi	r24, 0x20	; 32
    187c:	f8 01       	movw	r30, r16
    187e:	11 92       	st	Z+, r1
    1880:	8a 95       	dec	r24
    1882:	e9 f7       	brne	.-6      	; 0x187e <conv_brk+0x1e>
    1884:	f4 01       	movw	r30, r8
    1886:	63 80       	ldd	r6, Z+3	; 0x03
    1888:	40 e0       	ldi	r20, 0x00	; 0
    188a:	50 e0       	ldi	r21, 0x00	; 0
    188c:	71 2c       	mov	r7, r1
    188e:	41 2c       	mov	r4, r1
    1890:	80 e0       	ldi	r24, 0x00	; 0
    1892:	a1 e0       	ldi	r26, 0x01	; 1
    1894:	b0 e0       	ldi	r27, 0x00	; 0
    1896:	f9 01       	movw	r30, r18
    1898:	63 fc       	sbrc	r6, 3
    189a:	55 90       	lpm	r5, Z+
    189c:	63 fe       	sbrs	r6, 3
    189e:	51 90       	ld	r5, Z+
    18a0:	8f 01       	movw	r16, r30
    18a2:	95 2d       	mov	r25, r5
    18a4:	9f 01       	movw	r18, r30
    18a6:	51 10       	cpse	r5, r1
    18a8:	03 c0       	rjmp	.+6      	; 0x18b0 <conv_brk+0x50>
    18aa:	80 e0       	ldi	r24, 0x00	; 0
    18ac:	90 e0       	ldi	r25, 0x00	; 0
    18ae:	80 c0       	rjmp	.+256    	; 0x19b0 <conv_brk+0x150>
    18b0:	fe e5       	ldi	r31, 0x5E	; 94
    18b2:	5f 12       	cpse	r5, r31
    18b4:	03 c0       	rjmp	.+6      	; 0x18bc <conv_brk+0x5c>
    18b6:	41 15       	cp	r20, r1
    18b8:	51 05       	cpc	r21, r1
    18ba:	61 f1       	breq	.+88     	; 0x1914 <conv_brk+0xb4>
    18bc:	68 2f       	mov	r22, r24
    18be:	70 e0       	ldi	r23, 0x00	; 0
    18c0:	64 17       	cp	r22, r20
    18c2:	75 07       	cpc	r23, r21
    18c4:	4c f4       	brge	.+18     	; 0x18d8 <conv_brk+0x78>
    18c6:	6d e5       	ldi	r22, 0x5D	; 93
    18c8:	56 16       	cp	r5, r22
    18ca:	69 f1       	breq	.+90     	; 0x1926 <conv_brk+0xc6>
    18cc:	ed e2       	ldi	r30, 0x2D	; 45
    18ce:	5e 12       	cpse	r5, r30
    18d0:	03 c0       	rjmp	.+6      	; 0x18d8 <conv_brk+0x78>
    18d2:	44 20       	and	r4, r4
    18d4:	09 f1       	breq	.+66     	; 0x1918 <conv_brk+0xb8>
    18d6:	03 c0       	rjmp	.+6      	; 0x18de <conv_brk+0x7e>
    18d8:	41 10       	cpse	r4, r1
    18da:	01 c0       	rjmp	.+2      	; 0x18de <conv_brk+0x7e>
    18dc:	75 2c       	mov	r7, r5
    18de:	69 2f       	mov	r22, r25
    18e0:	66 95       	lsr	r22
    18e2:	66 95       	lsr	r22
    18e4:	66 95       	lsr	r22
    18e6:	f6 01       	movw	r30, r12
    18e8:	e6 0f       	add	r30, r22
    18ea:	f1 1d       	adc	r31, r1
    18ec:	69 2f       	mov	r22, r25
    18ee:	67 70       	andi	r22, 0x07	; 7
    18f0:	8d 01       	movw	r16, r26
    18f2:	02 c0       	rjmp	.+4      	; 0x18f8 <conv_brk+0x98>
    18f4:	00 0f       	add	r16, r16
    18f6:	11 1f       	adc	r17, r17
    18f8:	6a 95       	dec	r22
    18fa:	e2 f7       	brpl	.-8      	; 0x18f4 <conv_brk+0x94>
    18fc:	b8 01       	movw	r22, r16
    18fe:	70 81       	ld	r23, Z
    1900:	67 2b       	or	r22, r23
    1902:	60 83       	st	Z, r22
    1904:	97 15       	cp	r25, r7
    1906:	59 f0       	breq	.+22     	; 0x191e <conv_brk+0xbe>
    1908:	97 15       	cp	r25, r7
    190a:	10 f4       	brcc	.+4      	; 0x1910 <conv_brk+0xb0>
    190c:	9f 5f       	subi	r25, 0xFF	; 255
    190e:	e7 cf       	rjmp	.-50     	; 0x18de <conv_brk+0x7e>
    1910:	91 50       	subi	r25, 0x01	; 1
    1912:	e5 cf       	rjmp	.-54     	; 0x18de <conv_brk+0x7e>
    1914:	81 e0       	ldi	r24, 0x01	; 1
    1916:	04 c0       	rjmp	.+8      	; 0x1920 <conv_brk+0xc0>
    1918:	44 24       	eor	r4, r4
    191a:	43 94       	inc	r4
    191c:	01 c0       	rjmp	.+2      	; 0x1920 <conv_brk+0xc0>
    191e:	41 2c       	mov	r4, r1
    1920:	4f 5f       	subi	r20, 0xFF	; 255
    1922:	5f 4f       	sbci	r21, 0xFF	; 255
    1924:	b8 cf       	rjmp	.-144    	; 0x1896 <conv_brk+0x36>
    1926:	44 20       	and	r4, r4
    1928:	19 f0       	breq	.+6      	; 0x1930 <conv_brk+0xd0>
    192a:	9e 81       	ldd	r25, Y+6	; 0x06
    192c:	90 62       	ori	r25, 0x20	; 32
    192e:	9e 83       	std	Y+6, r25	; 0x06
    1930:	81 11       	cpse	r24, r1
    1932:	03 c0       	rjmp	.+6      	; 0x193a <conv_brk+0xda>
    1934:	77 24       	eor	r7, r7
    1936:	73 94       	inc	r7
    1938:	18 c0       	rjmp	.+48     	; 0x196a <conv_brk+0x10a>
    193a:	f6 01       	movw	r30, r12
    193c:	9e 01       	movw	r18, r28
    193e:	2f 5d       	subi	r18, 0xDF	; 223
    1940:	3f 4f       	sbci	r19, 0xFF	; 255
    1942:	80 81       	ld	r24, Z
    1944:	80 95       	com	r24
    1946:	81 93       	st	Z+, r24
    1948:	e2 17       	cp	r30, r18
    194a:	f3 07       	cpc	r31, r19
    194c:	d1 f7       	brne	.-12     	; 0x1942 <conv_brk+0xe2>
    194e:	f2 cf       	rjmp	.-28     	; 0x1934 <conv_brk+0xd4>
    1950:	e1 14       	cp	r14, r1
    1952:	f1 04       	cpc	r15, r1
    1954:	29 f0       	breq	.+10     	; 0x1960 <conv_brk+0x100>
    1956:	f7 01       	movw	r30, r14
    1958:	80 83       	st	Z, r24
    195a:	c7 01       	movw	r24, r14
    195c:	01 96       	adiw	r24, 0x01	; 1
    195e:	7c 01       	movw	r14, r24
    1960:	91 e0       	ldi	r25, 0x01	; 1
    1962:	a9 1a       	sub	r10, r25
    1964:	b1 08       	sbc	r11, r1
    1966:	71 2c       	mov	r7, r1
    1968:	e9 f0       	breq	.+58     	; 0x19a4 <conv_brk+0x144>
    196a:	c4 01       	movw	r24, r8
    196c:	0e 94 f6 13 	call	0x27ec	; 0x27ec <fgetc>
    1970:	97 fd       	sbrc	r25, 7
    1972:	16 c0       	rjmp	.+44     	; 0x19a0 <conv_brk+0x140>
    1974:	28 2f       	mov	r18, r24
    1976:	26 95       	lsr	r18
    1978:	26 95       	lsr	r18
    197a:	26 95       	lsr	r18
    197c:	f6 01       	movw	r30, r12
    197e:	e2 0f       	add	r30, r18
    1980:	f1 1d       	adc	r31, r1
    1982:	20 81       	ld	r18, Z
    1984:	30 e0       	ldi	r19, 0x00	; 0
    1986:	ac 01       	movw	r20, r24
    1988:	47 70       	andi	r20, 0x07	; 7
    198a:	55 27       	eor	r21, r21
    198c:	02 c0       	rjmp	.+4      	; 0x1992 <conv_brk+0x132>
    198e:	35 95       	asr	r19
    1990:	27 95       	ror	r18
    1992:	4a 95       	dec	r20
    1994:	e2 f7       	brpl	.-8      	; 0x198e <conv_brk+0x12e>
    1996:	20 fd       	sbrc	r18, 0
    1998:	db cf       	rjmp	.-74     	; 0x1950 <conv_brk+0xf0>
    199a:	b4 01       	movw	r22, r8
    199c:	0e 94 d8 14 	call	0x29b0	; 0x29b0 <ungetc>
    19a0:	71 10       	cpse	r7, r1
    19a2:	83 cf       	rjmp	.-250    	; 0x18aa <conv_brk+0x4a>
    19a4:	e1 14       	cp	r14, r1
    19a6:	f1 04       	cpc	r15, r1
    19a8:	11 f0       	breq	.+4      	; 0x19ae <conv_brk+0x14e>
    19aa:	f7 01       	movw	r30, r14
    19ac:	10 82       	st	Z, r1
    19ae:	c8 01       	movw	r24, r16
    19b0:	a0 96       	adiw	r28, 0x20	; 32
    19b2:	e0 e1       	ldi	r30, 0x10	; 16
    19b4:	0c 94 b7 0f 	jmp	0x1f6e	; 0x1f6e <__epilogue_restores__+0x4>

000019b8 <conv_flt>:
    19b8:	a6 e0       	ldi	r26, 0x06	; 6
    19ba:	b0 e0       	ldi	r27, 0x00	; 0
    19bc:	e2 ee       	ldi	r30, 0xE2	; 226
    19be:	fc e0       	ldi	r31, 0x0C	; 12
    19c0:	0c 94 99 0f 	jmp	0x1f32	; 0x1f32 <__prologue_saves__>
    19c4:	5c 01       	movw	r10, r24
    19c6:	7b 01       	movw	r14, r22
    19c8:	1a 01       	movw	r2, r20
    19ca:	0e 94 f6 13 	call	0x27ec	; 0x27ec <fgetc>
    19ce:	9e 83       	std	Y+6, r25	; 0x06
    19d0:	8d 83       	std	Y+5, r24	; 0x05
    19d2:	99 27       	eor	r25, r25
    19d4:	8b 32       	cpi	r24, 0x2B	; 43
    19d6:	91 05       	cpc	r25, r1
    19d8:	21 f0       	breq	.+8      	; 0x19e2 <conv_flt+0x2a>
    19da:	8d 97       	sbiw	r24, 0x2d	; 45
    19dc:	89 f4       	brne	.+34     	; 0x1a00 <conv_flt+0x48>
    19de:	10 e8       	ldi	r17, 0x80	; 128
    19e0:	01 c0       	rjmp	.+2      	; 0x19e4 <conv_flt+0x2c>
    19e2:	10 e0       	ldi	r17, 0x00	; 0
    19e4:	21 e0       	ldi	r18, 0x01	; 1
    19e6:	e2 1a       	sub	r14, r18
    19e8:	f1 08       	sbc	r15, r1
    19ea:	11 f4       	brne	.+4      	; 0x19f0 <conv_flt+0x38>
    19ec:	80 e0       	ldi	r24, 0x00	; 0
    19ee:	2d c1       	rjmp	.+602    	; 0x1c4a <conv_flt+0x292>
    19f0:	c5 01       	movw	r24, r10
    19f2:	0e 94 f6 13 	call	0x27ec	; 0x27ec <fgetc>
    19f6:	9e 83       	std	Y+6, r25	; 0x06
    19f8:	8d 83       	std	Y+5, r24	; 0x05
    19fa:	97 ff       	sbrs	r25, 7
    19fc:	02 c0       	rjmp	.+4      	; 0x1a02 <conv_flt+0x4a>
    19fe:	f6 cf       	rjmp	.-20     	; 0x19ec <conv_flt+0x34>
    1a00:	10 e0       	ldi	r17, 0x00	; 0
    1a02:	8d 81       	ldd	r24, Y+5	; 0x05
    1a04:	9e 81       	ldd	r25, Y+6	; 0x06
    1a06:	0e 94 a9 13 	call	0x2752	; 0x2752 <tolower>
    1a0a:	89 36       	cpi	r24, 0x69	; 105
    1a0c:	91 05       	cpc	r25, r1
    1a0e:	49 f0       	breq	.+18     	; 0x1a22 <conv_flt+0x6a>
    1a10:	8e 36       	cpi	r24, 0x6E	; 110
    1a12:	91 05       	cpc	r25, r1
    1a14:	09 f0       	breq	.+2      	; 0x1a18 <conv_flt+0x60>
    1a16:	3b c0       	rjmp	.+118    	; 0x1a8e <conv_flt+0xd6>
    1a18:	6a ec       	ldi	r22, 0xCA	; 202
    1a1a:	86 2e       	mov	r8, r22
    1a1c:	68 e0       	ldi	r22, 0x08	; 8
    1a1e:	96 2e       	mov	r9, r22
    1a20:	04 c0       	rjmp	.+8      	; 0x1a2a <conv_flt+0x72>
    1a22:	7d ec       	ldi	r23, 0xCD	; 205
    1a24:	87 2e       	mov	r8, r23
    1a26:	78 e0       	ldi	r23, 0x08	; 8
    1a28:	97 2e       	mov	r9, r23
    1a2a:	ef ef       	ldi	r30, 0xFF	; 255
    1a2c:	8e 1a       	sub	r8, r30
    1a2e:	9e 0a       	sbc	r9, r30
    1a30:	f4 01       	movw	r30, r8
    1a32:	31 97       	sbiw	r30, 0x01	; 1
    1a34:	04 91       	lpm	r16, Z
    1a36:	00 23       	and	r16, r16
    1a38:	c9 f0       	breq	.+50     	; 0x1a6c <conv_flt+0xb4>
    1a3a:	81 e0       	ldi	r24, 0x01	; 1
    1a3c:	e8 1a       	sub	r14, r24
    1a3e:	f1 08       	sbc	r15, r1
    1a40:	71 f0       	breq	.+28     	; 0x1a5e <conv_flt+0xa6>
    1a42:	c5 01       	movw	r24, r10
    1a44:	0e 94 f6 13 	call	0x27ec	; 0x27ec <fgetc>
    1a48:	6c 01       	movw	r12, r24
    1a4a:	97 fd       	sbrc	r25, 7
    1a4c:	08 c0       	rjmp	.+16     	; 0x1a5e <conv_flt+0xa6>
    1a4e:	0e 94 a9 13 	call	0x2752	; 0x2752 <tolower>
    1a52:	08 17       	cp	r16, r24
    1a54:	51 f3       	breq	.-44     	; 0x1a2a <conv_flt+0x72>
    1a56:	b5 01       	movw	r22, r10
    1a58:	c6 01       	movw	r24, r12
    1a5a:	0e 94 d8 14 	call	0x29b0	; 0x29b0 <ungetc>
    1a5e:	90 ed       	ldi	r25, 0xD0	; 208
    1a60:	89 16       	cp	r8, r25
    1a62:	98 e0       	ldi	r25, 0x08	; 8
    1a64:	99 06       	cpc	r9, r25
    1a66:	09 f0       	breq	.+2      	; 0x1a6a <conv_flt+0xb2>
    1a68:	c1 cf       	rjmp	.-126    	; 0x19ec <conv_flt+0x34>
    1a6a:	05 c0       	rjmp	.+10     	; 0x1a76 <conv_flt+0xbe>
    1a6c:	fd ec       	ldi	r31, 0xCD	; 205
    1a6e:	8f 16       	cp	r8, r31
    1a70:	f8 e0       	ldi	r31, 0x08	; 8
    1a72:	9f 06       	cpc	r9, r31
    1a74:	29 f0       	breq	.+10     	; 0x1a80 <conv_flt+0xc8>
    1a76:	80 e0       	ldi	r24, 0x00	; 0
    1a78:	90 e0       	ldi	r25, 0x00	; 0
    1a7a:	a0 e8       	ldi	r26, 0x80	; 128
    1a7c:	bf e7       	ldi	r27, 0x7F	; 127
    1a7e:	04 c0       	rjmp	.+8      	; 0x1a88 <conv_flt+0xd0>
    1a80:	80 e0       	ldi	r24, 0x00	; 0
    1a82:	90 e0       	ldi	r25, 0x00	; 0
    1a84:	a0 ec       	ldi	r26, 0xC0	; 192
    1a86:	bf e7       	ldi	r27, 0x7F	; 127
    1a88:	bc 01       	movw	r22, r24
    1a8a:	cd 01       	movw	r24, r26
    1a8c:	ce c0       	rjmp	.+412    	; 0x1c2a <conv_flt+0x272>
    1a8e:	41 2c       	mov	r4, r1
    1a90:	51 2c       	mov	r5, r1
    1a92:	32 01       	movw	r6, r4
    1a94:	c1 2c       	mov	r12, r1
    1a96:	d1 2c       	mov	r13, r1
    1a98:	2d 81       	ldd	r18, Y+5	; 0x05
    1a9a:	20 53       	subi	r18, 0x30	; 48
    1a9c:	2a 30       	cpi	r18, 0x0A	; 10
    1a9e:	18 f5       	brcc	.+70     	; 0x1ae6 <conv_flt+0x12e>
    1aa0:	01 2f       	mov	r16, r17
    1aa2:	02 60       	ori	r16, 0x02	; 2
    1aa4:	81 2f       	mov	r24, r17
    1aa6:	88 70       	andi	r24, 0x08	; 8
    1aa8:	12 ff       	sbrs	r17, 2
    1aaa:	06 c0       	rjmp	.+12     	; 0x1ab8 <conv_flt+0x100>
    1aac:	81 11       	cpse	r24, r1
    1aae:	21 c0       	rjmp	.+66     	; 0x1af2 <conv_flt+0x13a>
    1ab0:	2f ef       	ldi	r18, 0xFF	; 255
    1ab2:	c2 1a       	sub	r12, r18
    1ab4:	d2 0a       	sbc	r13, r18
    1ab6:	1d c0       	rjmp	.+58     	; 0x1af2 <conv_flt+0x13a>
    1ab8:	88 23       	and	r24, r24
    1aba:	19 f0       	breq	.+6      	; 0x1ac2 <conv_flt+0x10a>
    1abc:	81 e0       	ldi	r24, 0x01	; 1
    1abe:	c8 1a       	sub	r12, r24
    1ac0:	d1 08       	sbc	r13, r1
    1ac2:	40 e2       	ldi	r20, 0x20	; 32
    1ac4:	c3 01       	movw	r24, r6
    1ac6:	b2 01       	movw	r22, r4
    1ac8:	0e 94 6f 0b 	call	0x16de	; 0x16de <mulacc>
    1acc:	2b 01       	movw	r4, r22
    1ace:	3c 01       	movw	r6, r24
    1ad0:	98 e9       	ldi	r25, 0x98	; 152
    1ad2:	49 16       	cp	r4, r25
    1ad4:	99 e9       	ldi	r25, 0x99	; 153
    1ad6:	59 06       	cpc	r5, r25
    1ad8:	69 06       	cpc	r6, r25
    1ada:	99 e1       	ldi	r25, 0x19	; 25
    1adc:	79 06       	cpc	r7, r25
    1ade:	48 f0       	brcs	.+18     	; 0x1af2 <conv_flt+0x13a>
    1ae0:	01 2f       	mov	r16, r17
    1ae2:	06 60       	ori	r16, 0x06	; 6
    1ae4:	06 c0       	rjmp	.+12     	; 0x1af2 <conv_flt+0x13a>
    1ae6:	2e 3f       	cpi	r18, 0xFE	; 254
    1ae8:	91 f4       	brne	.+36     	; 0x1b0e <conv_flt+0x156>
    1aea:	13 fd       	sbrc	r17, 3
    1aec:	10 c0       	rjmp	.+32     	; 0x1b0e <conv_flt+0x156>
    1aee:	01 2f       	mov	r16, r17
    1af0:	08 60       	ori	r16, 0x08	; 8
    1af2:	e1 e0       	ldi	r30, 0x01	; 1
    1af4:	ee 1a       	sub	r14, r30
    1af6:	f1 08       	sbc	r15, r1
    1af8:	49 f0       	breq	.+18     	; 0x1b0c <conv_flt+0x154>
    1afa:	c5 01       	movw	r24, r10
    1afc:	0e 94 f6 13 	call	0x27ec	; 0x27ec <fgetc>
    1b00:	9e 83       	std	Y+6, r25	; 0x06
    1b02:	8d 83       	std	Y+5, r24	; 0x05
    1b04:	10 2f       	mov	r17, r16
    1b06:	97 ff       	sbrs	r25, 7
    1b08:	c7 cf       	rjmp	.-114    	; 0x1a98 <conv_flt+0xe0>
    1b0a:	01 c0       	rjmp	.+2      	; 0x1b0e <conv_flt+0x156>
    1b0c:	10 2f       	mov	r17, r16
    1b0e:	11 ff       	sbrs	r17, 1
    1b10:	6d cf       	rjmp	.-294    	; 0x19ec <conv_flt+0x34>
    1b12:	8d 81       	ldd	r24, Y+5	; 0x05
    1b14:	8f 7d       	andi	r24, 0xDF	; 223
    1b16:	85 34       	cpi	r24, 0x45	; 69
    1b18:	09 f0       	breq	.+2      	; 0x1b1c <conv_flt+0x164>
    1b1a:	4f c0       	rjmp	.+158    	; 0x1bba <conv_flt+0x202>
    1b1c:	47 01       	movw	r8, r14
    1b1e:	f1 e0       	ldi	r31, 0x01	; 1
    1b20:	8f 1a       	sub	r8, r31
    1b22:	91 08       	sbc	r9, r1
    1b24:	09 f4       	brne	.+2      	; 0x1b28 <conv_flt+0x170>
    1b26:	62 cf       	rjmp	.-316    	; 0x19ec <conv_flt+0x34>
    1b28:	c5 01       	movw	r24, r10
    1b2a:	0e 94 f6 13 	call	0x27ec	; 0x27ec <fgetc>
    1b2e:	9e 83       	std	Y+6, r25	; 0x06
    1b30:	8d 83       	std	Y+5, r24	; 0x05
    1b32:	97 fd       	sbrc	r25, 7
    1b34:	5b cf       	rjmp	.-330    	; 0x19ec <conv_flt+0x34>
    1b36:	99 27       	eor	r25, r25
    1b38:	8b 32       	cpi	r24, 0x2B	; 43
    1b3a:	91 05       	cpc	r25, r1
    1b3c:	19 f0       	breq	.+6      	; 0x1b44 <conv_flt+0x18c>
    1b3e:	8d 97       	sbiw	r24, 0x2d	; 45
    1b40:	61 f4       	brne	.+24     	; 0x1b5a <conv_flt+0x1a2>
    1b42:	10 61       	ori	r17, 0x10	; 16
    1b44:	47 01       	movw	r8, r14
    1b46:	22 e0       	ldi	r18, 0x02	; 2
    1b48:	82 1a       	sub	r8, r18
    1b4a:	91 08       	sbc	r9, r1
    1b4c:	09 f4       	brne	.+2      	; 0x1b50 <conv_flt+0x198>
    1b4e:	4e cf       	rjmp	.-356    	; 0x19ec <conv_flt+0x34>
    1b50:	c5 01       	movw	r24, r10
    1b52:	0e 94 f6 13 	call	0x27ec	; 0x27ec <fgetc>
    1b56:	9e 83       	std	Y+6, r25	; 0x06
    1b58:	8d 83       	std	Y+5, r24	; 0x05
    1b5a:	8d 81       	ldd	r24, Y+5	; 0x05
    1b5c:	9e 81       	ldd	r25, Y+6	; 0x06
    1b5e:	c0 97       	sbiw	r24, 0x30	; 48
    1b60:	0a 97       	sbiw	r24, 0x0a	; 10
    1b62:	08 f0       	brcs	.+2      	; 0x1b66 <conv_flt+0x1ae>
    1b64:	43 cf       	rjmp	.-378    	; 0x19ec <conv_flt+0x34>
    1b66:	74 01       	movw	r14, r8
    1b68:	81 2c       	mov	r8, r1
    1b6a:	91 2c       	mov	r9, r1
    1b6c:	b4 01       	movw	r22, r8
    1b6e:	88 27       	eor	r24, r24
    1b70:	77 fd       	sbrc	r23, 7
    1b72:	80 95       	com	r24
    1b74:	98 2f       	mov	r25, r24
    1b76:	2d 81       	ldd	r18, Y+5	; 0x05
    1b78:	20 53       	subi	r18, 0x30	; 48
    1b7a:	40 e2       	ldi	r20, 0x20	; 32
    1b7c:	0e 94 6f 0b 	call	0x16de	; 0x16de <mulacc>
    1b80:	ab 01       	movw	r20, r22
    1b82:	bc 01       	movw	r22, r24
    1b84:	4a 01       	movw	r8, r20
    1b86:	81 e0       	ldi	r24, 0x01	; 1
    1b88:	e8 1a       	sub	r14, r24
    1b8a:	f1 08       	sbc	r15, r1
    1b8c:	71 f0       	breq	.+28     	; 0x1baa <conv_flt+0x1f2>
    1b8e:	c5 01       	movw	r24, r10
    1b90:	49 83       	std	Y+1, r20	; 0x01
    1b92:	5a 83       	std	Y+2, r21	; 0x02
    1b94:	6b 83       	std	Y+3, r22	; 0x03
    1b96:	7c 83       	std	Y+4, r23	; 0x04
    1b98:	0e 94 f6 13 	call	0x27ec	; 0x27ec <fgetc>
    1b9c:	9e 83       	std	Y+6, r25	; 0x06
    1b9e:	8d 83       	std	Y+5, r24	; 0x05
    1ba0:	c0 97       	sbiw	r24, 0x30	; 48
    1ba2:	49 81       	ldd	r20, Y+1	; 0x01
    1ba4:	5a 81       	ldd	r21, Y+2	; 0x02
    1ba6:	0a 97       	sbiw	r24, 0x0a	; 10
    1ba8:	08 f3       	brcs	.-62     	; 0x1b6c <conv_flt+0x1b4>
    1baa:	14 ff       	sbrs	r17, 4
    1bac:	04 c0       	rjmp	.+8      	; 0x1bb6 <conv_flt+0x1fe>
    1bae:	88 24       	eor	r8, r8
    1bb0:	99 24       	eor	r9, r9
    1bb2:	84 1a       	sub	r8, r20
    1bb4:	95 0a       	sbc	r9, r21
    1bb6:	c8 0c       	add	r12, r8
    1bb8:	d9 1c       	adc	r13, r9
    1bba:	ef 28       	or	r14, r15
    1bbc:	41 f0       	breq	.+16     	; 0x1bce <conv_flt+0x216>
    1bbe:	ed 81       	ldd	r30, Y+5	; 0x05
    1bc0:	fe 81       	ldd	r31, Y+6	; 0x06
    1bc2:	f7 fd       	sbrc	r31, 7
    1bc4:	04 c0       	rjmp	.+8      	; 0x1bce <conv_flt+0x216>
    1bc6:	b5 01       	movw	r22, r10
    1bc8:	cf 01       	movw	r24, r30
    1bca:	0e 94 d8 14 	call	0x29b0	; 0x29b0 <ungetc>
    1bce:	c3 01       	movw	r24, r6
    1bd0:	b2 01       	movw	r22, r4
    1bd2:	0e 94 ed 10 	call	0x21da	; 0x21da <__floatunsisf>
    1bd6:	d7 fe       	sbrs	r13, 7
    1bd8:	08 c0       	rjmp	.+16     	; 0x1bea <conv_flt+0x232>
    1bda:	d1 94       	neg	r13
    1bdc:	c1 94       	neg	r12
    1bde:	d1 08       	sbc	r13, r1
    1be0:	59 ee       	ldi	r21, 0xE9	; 233
    1be2:	85 2e       	mov	r8, r21
    1be4:	58 e0       	ldi	r21, 0x08	; 8
    1be6:	95 2e       	mov	r9, r21
    1be8:	04 c0       	rjmp	.+8      	; 0x1bf2 <conv_flt+0x23a>
    1bea:	41 e0       	ldi	r20, 0x01	; 1
    1bec:	84 2e       	mov	r8, r20
    1bee:	49 e0       	ldi	r20, 0x09	; 9
    1bf0:	94 2e       	mov	r9, r20
    1bf2:	54 01       	movw	r10, r8
    1bf4:	f8 e1       	ldi	r31, 0x18	; 24
    1bf6:	af 1a       	sub	r10, r31
    1bf8:	b1 08       	sbc	r11, r1
    1bfa:	30 e2       	ldi	r19, 0x20	; 32
    1bfc:	e3 2e       	mov	r14, r19
    1bfe:	f1 2c       	mov	r15, r1
    1c00:	ce 14       	cp	r12, r14
    1c02:	df 04       	cpc	r13, r15
    1c04:	50 f0       	brcs	.+20     	; 0x1c1a <conv_flt+0x262>
    1c06:	f4 01       	movw	r30, r8
    1c08:	25 91       	lpm	r18, Z+
    1c0a:	35 91       	lpm	r19, Z+
    1c0c:	45 91       	lpm	r20, Z+
    1c0e:	54 91       	lpm	r21, Z
    1c10:	0e 94 41 12 	call	0x2482	; 0x2482 <__mulsf3>
    1c14:	ce 18       	sub	r12, r14
    1c16:	df 08       	sbc	r13, r15
    1c18:	f3 cf       	rjmp	.-26     	; 0x1c00 <conv_flt+0x248>
    1c1a:	24 e0       	ldi	r18, 0x04	; 4
    1c1c:	82 1a       	sub	r8, r18
    1c1e:	91 08       	sbc	r9, r1
    1c20:	f6 94       	lsr	r15
    1c22:	e7 94       	ror	r14
    1c24:	8a 14       	cp	r8, r10
    1c26:	9b 04       	cpc	r9, r11
    1c28:	59 f7       	brne	.-42     	; 0x1c00 <conv_flt+0x248>
    1c2a:	17 ff       	sbrs	r17, 7
    1c2c:	05 c0       	rjmp	.+10     	; 0x1c38 <conv_flt+0x280>
    1c2e:	dc 01       	movw	r26, r24
    1c30:	cb 01       	movw	r24, r22
    1c32:	b0 58       	subi	r27, 0x80	; 128
    1c34:	bc 01       	movw	r22, r24
    1c36:	cd 01       	movw	r24, r26
    1c38:	21 14       	cp	r2, r1
    1c3a:	31 04       	cpc	r3, r1
    1c3c:	29 f0       	breq	.+10     	; 0x1c48 <conv_flt+0x290>
    1c3e:	f1 01       	movw	r30, r2
    1c40:	60 83       	st	Z, r22
    1c42:	71 83       	std	Z+1, r23	; 0x01
    1c44:	82 83       	std	Z+2, r24	; 0x02
    1c46:	93 83       	std	Z+3, r25	; 0x03
    1c48:	81 e0       	ldi	r24, 0x01	; 1
    1c4a:	26 96       	adiw	r28, 0x06	; 6
    1c4c:	e2 e1       	ldi	r30, 0x12	; 18
    1c4e:	0c 94 b5 0f 	jmp	0x1f6a	; 0x1f6a <__epilogue_restores__>

00001c52 <vfscanf>:
    1c52:	a1 e0       	ldi	r26, 0x01	; 1
    1c54:	b0 e0       	ldi	r27, 0x00	; 0
    1c56:	ef e2       	ldi	r30, 0x2F	; 47
    1c58:	fe e0       	ldi	r31, 0x0E	; 14
    1c5a:	0c 94 9b 0f 	jmp	0x1f36	; 0x1f36 <__prologue_saves__+0x4>
    1c5e:	6c 01       	movw	r12, r24
    1c60:	2b 01       	movw	r4, r22
    1c62:	4a 01       	movw	r8, r20
    1c64:	fc 01       	movw	r30, r24
    1c66:	17 82       	std	Z+7, r1	; 0x07
    1c68:	16 82       	std	Z+6, r1	; 0x06
    1c6a:	a1 2c       	mov	r10, r1
    1c6c:	f6 01       	movw	r30, r12
    1c6e:	f3 80       	ldd	r15, Z+3	; 0x03
    1c70:	f2 01       	movw	r30, r4
    1c72:	f3 fc       	sbrc	r15, 3
    1c74:	85 91       	lpm	r24, Z+
    1c76:	f3 fe       	sbrs	r15, 3
    1c78:	81 91       	ld	r24, Z+
    1c7a:	48 2f       	mov	r20, r24
    1c7c:	2f 01       	movw	r4, r30
    1c7e:	88 23       	and	r24, r24
    1c80:	09 f4       	brne	.+2      	; 0x1c84 <vfscanf+0x32>
    1c82:	10 c1       	rjmp	.+544    	; 0x1ea4 <vfscanf+0x252>
    1c84:	90 e0       	ldi	r25, 0x00	; 0
    1c86:	49 83       	std	Y+1, r20	; 0x01
    1c88:	0e 94 a1 13 	call	0x2742	; 0x2742 <isspace>
    1c8c:	49 81       	ldd	r20, Y+1	; 0x01
    1c8e:	89 2b       	or	r24, r25
    1c90:	21 f0       	breq	.+8      	; 0x1c9a <vfscanf+0x48>
    1c92:	c6 01       	movw	r24, r12
    1c94:	0e 94 8f 0b 	call	0x171e	; 0x171e <skip_spaces>
    1c98:	e9 cf       	rjmp	.-46     	; 0x1c6c <vfscanf+0x1a>
    1c9a:	45 32       	cpi	r20, 0x25	; 37
    1c9c:	41 f4       	brne	.+16     	; 0x1cae <vfscanf+0x5c>
    1c9e:	f2 01       	movw	r30, r4
    1ca0:	f3 fc       	sbrc	r15, 3
    1ca2:	45 91       	lpm	r20, Z+
    1ca4:	f3 fe       	sbrs	r15, 3
    1ca6:	41 91       	ld	r20, Z+
    1ca8:	2f 01       	movw	r4, r30
    1caa:	45 32       	cpi	r20, 0x25	; 37
    1cac:	69 f4       	brne	.+26     	; 0x1cc8 <vfscanf+0x76>
    1cae:	c6 01       	movw	r24, r12
    1cb0:	49 83       	std	Y+1, r20	; 0x01
    1cb2:	0e 94 f6 13 	call	0x27ec	; 0x27ec <fgetc>
    1cb6:	49 81       	ldd	r20, Y+1	; 0x01
    1cb8:	97 fd       	sbrc	r25, 7
    1cba:	f2 c0       	rjmp	.+484    	; 0x1ea0 <vfscanf+0x24e>
    1cbc:	48 17       	cp	r20, r24
    1cbe:	b1 f2       	breq	.-84     	; 0x1c6c <vfscanf+0x1a>
    1cc0:	b6 01       	movw	r22, r12
    1cc2:	0e 94 d8 14 	call	0x29b0	; 0x29b0 <ungetc>
    1cc6:	ee c0       	rjmp	.+476    	; 0x1ea4 <vfscanf+0x252>
    1cc8:	4a 32       	cpi	r20, 0x2A	; 42
    1cca:	39 f4       	brne	.+14     	; 0x1cda <vfscanf+0x88>
    1ccc:	f3 fc       	sbrc	r15, 3
    1cce:	45 91       	lpm	r20, Z+
    1cd0:	f3 fe       	sbrs	r15, 3
    1cd2:	41 91       	ld	r20, Z+
    1cd4:	2f 01       	movw	r4, r30
    1cd6:	51 e0       	ldi	r21, 0x01	; 1
    1cd8:	01 c0       	rjmp	.+2      	; 0x1cdc <vfscanf+0x8a>
    1cda:	50 e0       	ldi	r21, 0x00	; 0
    1cdc:	32 01       	movw	r6, r4
    1cde:	00 e0       	ldi	r16, 0x00	; 0
    1ce0:	10 e0       	ldi	r17, 0x00	; 0
    1ce2:	20 ed       	ldi	r18, 0xD0	; 208
    1ce4:	24 0f       	add	r18, r20
    1ce6:	2a 30       	cpi	r18, 0x0A	; 10
    1ce8:	88 f4       	brcc	.+34     	; 0x1d0c <vfscanf+0xba>
    1cea:	52 60       	ori	r21, 0x02	; 2
    1cec:	b8 01       	movw	r22, r16
    1cee:	80 e0       	ldi	r24, 0x00	; 0
    1cf0:	90 e0       	ldi	r25, 0x00	; 0
    1cf2:	40 e2       	ldi	r20, 0x20	; 32
    1cf4:	59 83       	std	Y+1, r21	; 0x01
    1cf6:	0e 94 6f 0b 	call	0x16de	; 0x16de <mulacc>
    1cfa:	8b 01       	movw	r16, r22
    1cfc:	f3 01       	movw	r30, r6
    1cfe:	f3 fc       	sbrc	r15, 3
    1d00:	45 91       	lpm	r20, Z+
    1d02:	f3 fe       	sbrs	r15, 3
    1d04:	41 91       	ld	r20, Z+
    1d06:	3f 01       	movw	r6, r30
    1d08:	59 81       	ldd	r21, Y+1	; 0x01
    1d0a:	eb cf       	rjmp	.-42     	; 0x1ce2 <vfscanf+0x90>
    1d0c:	b5 2e       	mov	r11, r21
    1d0e:	34 2f       	mov	r19, r20
    1d10:	23 01       	movw	r4, r6
    1d12:	51 ff       	sbrs	r21, 1
    1d14:	04 c0       	rjmp	.+8      	; 0x1d1e <vfscanf+0xcc>
    1d16:	01 15       	cp	r16, r1
    1d18:	11 05       	cpc	r17, r1
    1d1a:	19 f4       	brne	.+6      	; 0x1d22 <vfscanf+0xd0>
    1d1c:	c3 c0       	rjmp	.+390    	; 0x1ea4 <vfscanf+0x252>
    1d1e:	0f ef       	ldi	r16, 0xFF	; 255
    1d20:	1f ef       	ldi	r17, 0xFF	; 255
    1d22:	48 36       	cpi	r20, 0x68	; 104
    1d24:	19 f0       	breq	.+6      	; 0x1d2c <vfscanf+0xda>
    1d26:	4c 36       	cpi	r20, 0x6C	; 108
    1d28:	59 f0       	breq	.+22     	; 0x1d40 <vfscanf+0xee>
    1d2a:	13 c0       	rjmp	.+38     	; 0x1d52 <vfscanf+0x100>
    1d2c:	f3 01       	movw	r30, r6
    1d2e:	f3 fc       	sbrc	r15, 3
    1d30:	35 91       	lpm	r19, Z+
    1d32:	f3 fe       	sbrs	r15, 3
    1d34:	31 91       	ld	r19, Z+
    1d36:	2f 01       	movw	r4, r30
    1d38:	38 36       	cpi	r19, 0x68	; 104
    1d3a:	59 f4       	brne	.+22     	; 0x1d52 <vfscanf+0x100>
    1d3c:	58 60       	ori	r21, 0x08	; 8
    1d3e:	b5 2e       	mov	r11, r21
    1d40:	fb 2d       	mov	r31, r11
    1d42:	f4 60       	ori	r31, 0x04	; 4
    1d44:	bf 2e       	mov	r11, r31
    1d46:	f2 01       	movw	r30, r4
    1d48:	f3 fc       	sbrc	r15, 3
    1d4a:	35 91       	lpm	r19, Z+
    1d4c:	f3 fe       	sbrs	r15, 3
    1d4e:	31 91       	ld	r19, Z+
    1d50:	2f 01       	movw	r4, r30
    1d52:	33 23       	and	r19, r19
    1d54:	09 f4       	brne	.+2      	; 0x1d58 <vfscanf+0x106>
    1d56:	a6 c0       	rjmp	.+332    	; 0x1ea4 <vfscanf+0x252>
    1d58:	63 2f       	mov	r22, r19
    1d5a:	70 e0       	ldi	r23, 0x00	; 0
    1d5c:	88 eb       	ldi	r24, 0xB8	; 184
    1d5e:	98 e0       	ldi	r25, 0x08	; 8
    1d60:	39 83       	std	Y+1, r19	; 0x01
    1d62:	0e 94 b1 13 	call	0x2762	; 0x2762 <strchr_P>
    1d66:	39 81       	ldd	r19, Y+1	; 0x01
    1d68:	89 2b       	or	r24, r25
    1d6a:	09 f4       	brne	.+2      	; 0x1d6e <vfscanf+0x11c>
    1d6c:	9b c0       	rjmp	.+310    	; 0x1ea4 <vfscanf+0x252>
    1d6e:	b0 fc       	sbrc	r11, 0
    1d70:	07 c0       	rjmp	.+14     	; 0x1d80 <vfscanf+0x12e>
    1d72:	f4 01       	movw	r30, r8
    1d74:	e0 80       	ld	r14, Z
    1d76:	f1 80       	ldd	r15, Z+1	; 0x01
    1d78:	c4 01       	movw	r24, r8
    1d7a:	02 96       	adiw	r24, 0x02	; 2
    1d7c:	4c 01       	movw	r8, r24
    1d7e:	02 c0       	rjmp	.+4      	; 0x1d84 <vfscanf+0x132>
    1d80:	e1 2c       	mov	r14, r1
    1d82:	f1 2c       	mov	r15, r1
    1d84:	3e 36       	cpi	r19, 0x6E	; 110
    1d86:	51 f4       	brne	.+20     	; 0x1d9c <vfscanf+0x14a>
    1d88:	f6 01       	movw	r30, r12
    1d8a:	46 81       	ldd	r20, Z+6	; 0x06
    1d8c:	57 81       	ldd	r21, Z+7	; 0x07
    1d8e:	60 e0       	ldi	r22, 0x00	; 0
    1d90:	70 e0       	ldi	r23, 0x00	; 0
    1d92:	2b 2d       	mov	r18, r11
    1d94:	c7 01       	movw	r24, r14
    1d96:	0e 94 63 0b 	call	0x16c6	; 0x16c6 <putval>
    1d9a:	68 cf       	rjmp	.-304    	; 0x1c6c <vfscanf+0x1a>
    1d9c:	33 36       	cpi	r19, 0x63	; 99
    1d9e:	a9 f4       	brne	.+42     	; 0x1dca <vfscanf+0x178>
    1da0:	b1 fc       	sbrc	r11, 1
    1da2:	02 c0       	rjmp	.+4      	; 0x1da8 <vfscanf+0x156>
    1da4:	01 e0       	ldi	r16, 0x01	; 1
    1da6:	10 e0       	ldi	r17, 0x00	; 0
    1da8:	c6 01       	movw	r24, r12
    1daa:	0e 94 f6 13 	call	0x27ec	; 0x27ec <fgetc>
    1dae:	97 fd       	sbrc	r25, 7
    1db0:	77 c0       	rjmp	.+238    	; 0x1ea0 <vfscanf+0x24e>
    1db2:	e1 14       	cp	r14, r1
    1db4:	f1 04       	cpc	r15, r1
    1db6:	29 f0       	breq	.+10     	; 0x1dc2 <vfscanf+0x170>
    1db8:	f7 01       	movw	r30, r14
    1dba:	80 83       	st	Z, r24
    1dbc:	c7 01       	movw	r24, r14
    1dbe:	01 96       	adiw	r24, 0x01	; 1
    1dc0:	7c 01       	movw	r14, r24
    1dc2:	01 50       	subi	r16, 0x01	; 1
    1dc4:	11 09       	sbc	r17, r1
    1dc6:	81 f7       	brne	.-32     	; 0x1da8 <vfscanf+0x156>
    1dc8:	67 c0       	rjmp	.+206    	; 0x1e98 <vfscanf+0x246>
    1dca:	3b 35       	cpi	r19, 0x5B	; 91
    1dcc:	59 f4       	brne	.+22     	; 0x1de4 <vfscanf+0x192>
    1dce:	92 01       	movw	r18, r4
    1dd0:	a7 01       	movw	r20, r14
    1dd2:	b8 01       	movw	r22, r16
    1dd4:	c6 01       	movw	r24, r12
    1dd6:	0e 94 30 0c 	call	0x1860	; 0x1860 <conv_brk>
    1dda:	2c 01       	movw	r4, r24
    1ddc:	00 97       	sbiw	r24, 0x00	; 0
    1dde:	09 f0       	breq	.+2      	; 0x1de2 <vfscanf+0x190>
    1de0:	5b c0       	rjmp	.+182    	; 0x1e98 <vfscanf+0x246>
    1de2:	55 c0       	rjmp	.+170    	; 0x1e8e <vfscanf+0x23c>
    1de4:	c6 01       	movw	r24, r12
    1de6:	39 83       	std	Y+1, r19	; 0x01
    1de8:	0e 94 8f 0b 	call	0x171e	; 0x171e <skip_spaces>
    1dec:	39 81       	ldd	r19, Y+1	; 0x01
    1dee:	97 fd       	sbrc	r25, 7
    1df0:	57 c0       	rjmp	.+174    	; 0x1ea0 <vfscanf+0x24e>
    1df2:	3f 36       	cpi	r19, 0x6F	; 111
    1df4:	d9 f1       	breq	.+118    	; 0x1e6c <vfscanf+0x21a>
    1df6:	40 f4       	brcc	.+16     	; 0x1e08 <vfscanf+0x1b6>
    1df8:	34 36       	cpi	r19, 0x64	; 100
    1dfa:	a1 f1       	breq	.+104    	; 0x1e64 <vfscanf+0x212>
    1dfc:	39 36       	cpi	r19, 0x69	; 105
    1dfe:	c9 f1       	breq	.+114    	; 0x1e72 <vfscanf+0x220>
    1e00:	38 35       	cpi	r19, 0x58	; 88
    1e02:	09 f0       	breq	.+2      	; 0x1e06 <vfscanf+0x1b4>
    1e04:	3d c0       	rjmp	.+122    	; 0x1e80 <vfscanf+0x22e>
    1e06:	2a c0       	rjmp	.+84     	; 0x1e5c <vfscanf+0x20a>
    1e08:	33 37       	cpi	r19, 0x73	; 115
    1e0a:	a1 f0       	breq	.+40     	; 0x1e34 <vfscanf+0x1e2>
    1e0c:	18 f4       	brcc	.+6      	; 0x1e14 <vfscanf+0x1c2>
    1e0e:	30 37       	cpi	r19, 0x70	; 112
    1e10:	29 f1       	breq	.+74     	; 0x1e5c <vfscanf+0x20a>
    1e12:	36 c0       	rjmp	.+108    	; 0x1e80 <vfscanf+0x22e>
    1e14:	35 37       	cpi	r19, 0x75	; 117
    1e16:	31 f1       	breq	.+76     	; 0x1e64 <vfscanf+0x212>
    1e18:	38 37       	cpi	r19, 0x78	; 120
    1e1a:	01 f1       	breq	.+64     	; 0x1e5c <vfscanf+0x20a>
    1e1c:	31 c0       	rjmp	.+98     	; 0x1e80 <vfscanf+0x22e>
    1e1e:	e1 14       	cp	r14, r1
    1e20:	f1 04       	cpc	r15, r1
    1e22:	29 f0       	breq	.+10     	; 0x1e2e <vfscanf+0x1dc>
    1e24:	f7 01       	movw	r30, r14
    1e26:	60 82       	st	Z, r6
    1e28:	c7 01       	movw	r24, r14
    1e2a:	01 96       	adiw	r24, 0x01	; 1
    1e2c:	7c 01       	movw	r14, r24
    1e2e:	01 50       	subi	r16, 0x01	; 1
    1e30:	11 09       	sbc	r17, r1
    1e32:	71 f0       	breq	.+28     	; 0x1e50 <vfscanf+0x1fe>
    1e34:	c6 01       	movw	r24, r12
    1e36:	0e 94 f6 13 	call	0x27ec	; 0x27ec <fgetc>
    1e3a:	3c 01       	movw	r6, r24
    1e3c:	97 fd       	sbrc	r25, 7
    1e3e:	08 c0       	rjmp	.+16     	; 0x1e50 <vfscanf+0x1fe>
    1e40:	0e 94 a1 13 	call	0x2742	; 0x2742 <isspace>
    1e44:	89 2b       	or	r24, r25
    1e46:	59 f3       	breq	.-42     	; 0x1e1e <vfscanf+0x1cc>
    1e48:	b6 01       	movw	r22, r12
    1e4a:	c3 01       	movw	r24, r6
    1e4c:	0e 94 d8 14 	call	0x29b0	; 0x29b0 <ungetc>
    1e50:	e1 14       	cp	r14, r1
    1e52:	f1 04       	cpc	r15, r1
    1e54:	09 f1       	breq	.+66     	; 0x1e98 <vfscanf+0x246>
    1e56:	f7 01       	movw	r30, r14
    1e58:	10 82       	st	Z, r1
    1e5a:	1e c0       	rjmp	.+60     	; 0x1e98 <vfscanf+0x246>
    1e5c:	fb 2d       	mov	r31, r11
    1e5e:	f0 64       	ori	r31, 0x40	; 64
    1e60:	bf 2e       	mov	r11, r31
    1e62:	07 c0       	rjmp	.+14     	; 0x1e72 <vfscanf+0x220>
    1e64:	8b 2d       	mov	r24, r11
    1e66:	80 62       	ori	r24, 0x20	; 32
    1e68:	b8 2e       	mov	r11, r24
    1e6a:	03 c0       	rjmp	.+6      	; 0x1e72 <vfscanf+0x220>
    1e6c:	9b 2d       	mov	r25, r11
    1e6e:	90 61       	ori	r25, 0x10	; 16
    1e70:	b9 2e       	mov	r11, r25
    1e72:	2b 2d       	mov	r18, r11
    1e74:	a7 01       	movw	r20, r14
    1e76:	b8 01       	movw	r22, r16
    1e78:	c6 01       	movw	r24, r12
    1e7a:	0e 94 a8 0b 	call	0x1750	; 0x1750 <conv_int>
    1e7e:	05 c0       	rjmp	.+10     	; 0x1e8a <vfscanf+0x238>
    1e80:	a7 01       	movw	r20, r14
    1e82:	b8 01       	movw	r22, r16
    1e84:	c6 01       	movw	r24, r12
    1e86:	0e 94 dc 0c 	call	0x19b8	; 0x19b8 <conv_flt>
    1e8a:	81 11       	cpse	r24, r1
    1e8c:	05 c0       	rjmp	.+10     	; 0x1e98 <vfscanf+0x246>
    1e8e:	f6 01       	movw	r30, r12
    1e90:	83 81       	ldd	r24, Z+3	; 0x03
    1e92:	80 73       	andi	r24, 0x30	; 48
    1e94:	29 f4       	brne	.+10     	; 0x1ea0 <vfscanf+0x24e>
    1e96:	06 c0       	rjmp	.+12     	; 0x1ea4 <vfscanf+0x252>
    1e98:	b0 fc       	sbrc	r11, 0
    1e9a:	e8 ce       	rjmp	.-560    	; 0x1c6c <vfscanf+0x1a>
    1e9c:	a3 94       	inc	r10
    1e9e:	e6 ce       	rjmp	.-564    	; 0x1c6c <vfscanf+0x1a>
    1ea0:	aa 20       	and	r10, r10
    1ea2:	19 f0       	breq	.+6      	; 0x1eaa <vfscanf+0x258>
    1ea4:	8a 2d       	mov	r24, r10
    1ea6:	90 e0       	ldi	r25, 0x00	; 0
    1ea8:	02 c0       	rjmp	.+4      	; 0x1eae <vfscanf+0x25c>
    1eaa:	8f ef       	ldi	r24, 0xFF	; 255
    1eac:	9f ef       	ldi	r25, 0xFF	; 255
    1eae:	21 96       	adiw	r28, 0x01	; 1
    1eb0:	e0 e1       	ldi	r30, 0x10	; 16
    1eb2:	0c 94 b7 0f 	jmp	0x1f6e	; 0x1f6e <__epilogue_restores__+0x4>

00001eb6 <__mulshisi3>:
    1eb6:	b7 ff       	sbrs	r27, 7
    1eb8:	0c 94 d6 0f 	jmp	0x1fac	; 0x1fac <__muluhisi3>

00001ebc <__mulohisi3>:
    1ebc:	0e 94 d6 0f 	call	0x1fac	; 0x1fac <__muluhisi3>
    1ec0:	82 1b       	sub	r24, r18
    1ec2:	93 0b       	sbc	r25, r19
    1ec4:	08 95       	ret

00001ec6 <__udivmodhi4>:
    1ec6:	aa 1b       	sub	r26, r26
    1ec8:	bb 1b       	sub	r27, r27
    1eca:	51 e1       	ldi	r21, 0x11	; 17
    1ecc:	07 c0       	rjmp	.+14     	; 0x1edc <__udivmodhi4_ep>

00001ece <__udivmodhi4_loop>:
    1ece:	aa 1f       	adc	r26, r26
    1ed0:	bb 1f       	adc	r27, r27
    1ed2:	a6 17       	cp	r26, r22
    1ed4:	b7 07       	cpc	r27, r23
    1ed6:	10 f0       	brcs	.+4      	; 0x1edc <__udivmodhi4_ep>
    1ed8:	a6 1b       	sub	r26, r22
    1eda:	b7 0b       	sbc	r27, r23

00001edc <__udivmodhi4_ep>:
    1edc:	88 1f       	adc	r24, r24
    1ede:	99 1f       	adc	r25, r25
    1ee0:	5a 95       	dec	r21
    1ee2:	a9 f7       	brne	.-22     	; 0x1ece <__udivmodhi4_loop>
    1ee4:	80 95       	com	r24
    1ee6:	90 95       	com	r25
    1ee8:	bc 01       	movw	r22, r24
    1eea:	cd 01       	movw	r24, r26
    1eec:	08 95       	ret

00001eee <__udivmodsi4>:
    1eee:	a1 e2       	ldi	r26, 0x21	; 33
    1ef0:	1a 2e       	mov	r1, r26
    1ef2:	aa 1b       	sub	r26, r26
    1ef4:	bb 1b       	sub	r27, r27
    1ef6:	fd 01       	movw	r30, r26
    1ef8:	0d c0       	rjmp	.+26     	; 0x1f14 <__udivmodsi4_ep>

00001efa <__udivmodsi4_loop>:
    1efa:	aa 1f       	adc	r26, r26
    1efc:	bb 1f       	adc	r27, r27
    1efe:	ee 1f       	adc	r30, r30
    1f00:	ff 1f       	adc	r31, r31
    1f02:	a2 17       	cp	r26, r18
    1f04:	b3 07       	cpc	r27, r19
    1f06:	e4 07       	cpc	r30, r20
    1f08:	f5 07       	cpc	r31, r21
    1f0a:	20 f0       	brcs	.+8      	; 0x1f14 <__udivmodsi4_ep>
    1f0c:	a2 1b       	sub	r26, r18
    1f0e:	b3 0b       	sbc	r27, r19
    1f10:	e4 0b       	sbc	r30, r20
    1f12:	f5 0b       	sbc	r31, r21

00001f14 <__udivmodsi4_ep>:
    1f14:	66 1f       	adc	r22, r22
    1f16:	77 1f       	adc	r23, r23
    1f18:	88 1f       	adc	r24, r24
    1f1a:	99 1f       	adc	r25, r25
    1f1c:	1a 94       	dec	r1
    1f1e:	69 f7       	brne	.-38     	; 0x1efa <__udivmodsi4_loop>
    1f20:	60 95       	com	r22
    1f22:	70 95       	com	r23
    1f24:	80 95       	com	r24
    1f26:	90 95       	com	r25
    1f28:	9b 01       	movw	r18, r22
    1f2a:	ac 01       	movw	r20, r24
    1f2c:	bd 01       	movw	r22, r26
    1f2e:	cf 01       	movw	r24, r30
    1f30:	08 95       	ret

00001f32 <__prologue_saves__>:
    1f32:	2f 92       	push	r2
    1f34:	3f 92       	push	r3
    1f36:	4f 92       	push	r4
    1f38:	5f 92       	push	r5
    1f3a:	6f 92       	push	r6
    1f3c:	7f 92       	push	r7
    1f3e:	8f 92       	push	r8
    1f40:	9f 92       	push	r9
    1f42:	af 92       	push	r10
    1f44:	bf 92       	push	r11
    1f46:	cf 92       	push	r12
    1f48:	df 92       	push	r13
    1f4a:	ef 92       	push	r14
    1f4c:	ff 92       	push	r15
    1f4e:	0f 93       	push	r16
    1f50:	1f 93       	push	r17
    1f52:	cf 93       	push	r28
    1f54:	df 93       	push	r29
    1f56:	cd b7       	in	r28, 0x3d	; 61
    1f58:	de b7       	in	r29, 0x3e	; 62
    1f5a:	ca 1b       	sub	r28, r26
    1f5c:	db 0b       	sbc	r29, r27
    1f5e:	0f b6       	in	r0, 0x3f	; 63
    1f60:	f8 94       	cli
    1f62:	de bf       	out	0x3e, r29	; 62
    1f64:	0f be       	out	0x3f, r0	; 63
    1f66:	cd bf       	out	0x3d, r28	; 61
    1f68:	09 94       	ijmp

00001f6a <__epilogue_restores__>:
    1f6a:	2a 88       	ldd	r2, Y+18	; 0x12
    1f6c:	39 88       	ldd	r3, Y+17	; 0x11
    1f6e:	48 88       	ldd	r4, Y+16	; 0x10
    1f70:	5f 84       	ldd	r5, Y+15	; 0x0f
    1f72:	6e 84       	ldd	r6, Y+14	; 0x0e
    1f74:	7d 84       	ldd	r7, Y+13	; 0x0d
    1f76:	8c 84       	ldd	r8, Y+12	; 0x0c
    1f78:	9b 84       	ldd	r9, Y+11	; 0x0b
    1f7a:	aa 84       	ldd	r10, Y+10	; 0x0a
    1f7c:	b9 84       	ldd	r11, Y+9	; 0x09
    1f7e:	c8 84       	ldd	r12, Y+8	; 0x08
    1f80:	df 80       	ldd	r13, Y+7	; 0x07
    1f82:	ee 80       	ldd	r14, Y+6	; 0x06
    1f84:	fd 80       	ldd	r15, Y+5	; 0x05
    1f86:	0c 81       	ldd	r16, Y+4	; 0x04
    1f88:	1b 81       	ldd	r17, Y+3	; 0x03
    1f8a:	aa 81       	ldd	r26, Y+2	; 0x02
    1f8c:	b9 81       	ldd	r27, Y+1	; 0x01
    1f8e:	ce 0f       	add	r28, r30
    1f90:	d1 1d       	adc	r29, r1
    1f92:	0f b6       	in	r0, 0x3f	; 63
    1f94:	f8 94       	cli
    1f96:	de bf       	out	0x3e, r29	; 62
    1f98:	0f be       	out	0x3f, r0	; 63
    1f9a:	cd bf       	out	0x3d, r28	; 61
    1f9c:	ed 01       	movw	r28, r26
    1f9e:	08 95       	ret

00001fa0 <__tablejump2__>:
    1fa0:	ee 0f       	add	r30, r30
    1fa2:	ff 1f       	adc	r31, r31

00001fa4 <__tablejump__>:
    1fa4:	05 90       	lpm	r0, Z+
    1fa6:	f4 91       	lpm	r31, Z
    1fa8:	e0 2d       	mov	r30, r0
    1faa:	09 94       	ijmp

00001fac <__muluhisi3>:
    1fac:	0e 94 e1 0f 	call	0x1fc2	; 0x1fc2 <__umulhisi3>
    1fb0:	a5 9f       	mul	r26, r21
    1fb2:	90 0d       	add	r25, r0
    1fb4:	b4 9f       	mul	r27, r20
    1fb6:	90 0d       	add	r25, r0
    1fb8:	a4 9f       	mul	r26, r20
    1fba:	80 0d       	add	r24, r0
    1fbc:	91 1d       	adc	r25, r1
    1fbe:	11 24       	eor	r1, r1
    1fc0:	08 95       	ret

00001fc2 <__umulhisi3>:
    1fc2:	a2 9f       	mul	r26, r18
    1fc4:	b0 01       	movw	r22, r0
    1fc6:	b3 9f       	mul	r27, r19
    1fc8:	c0 01       	movw	r24, r0
    1fca:	a3 9f       	mul	r26, r19
    1fcc:	70 0d       	add	r23, r0
    1fce:	81 1d       	adc	r24, r1
    1fd0:	11 24       	eor	r1, r1
    1fd2:	91 1d       	adc	r25, r1
    1fd4:	b2 9f       	mul	r27, r18
    1fd6:	70 0d       	add	r23, r0
    1fd8:	81 1d       	adc	r24, r1
    1fda:	11 24       	eor	r1, r1
    1fdc:	91 1d       	adc	r25, r1
    1fde:	08 95       	ret

00001fe0 <__subsf3>:
    1fe0:	50 58       	subi	r21, 0x80	; 128

00001fe2 <__addsf3>:
    1fe2:	bb 27       	eor	r27, r27
    1fe4:	aa 27       	eor	r26, r26
    1fe6:	0e d0       	rcall	.+28     	; 0x2004 <__addsf3x>
    1fe8:	ac c1       	rjmp	.+856    	; 0x2342 <__fp_round>
    1fea:	9d d1       	rcall	.+826    	; 0x2326 <__fp_pscA>
    1fec:	30 f0       	brcs	.+12     	; 0x1ffa <__addsf3+0x18>
    1fee:	a2 d1       	rcall	.+836    	; 0x2334 <__fp_pscB>
    1ff0:	20 f0       	brcs	.+8      	; 0x1ffa <__addsf3+0x18>
    1ff2:	31 f4       	brne	.+12     	; 0x2000 <__addsf3+0x1e>
    1ff4:	9f 3f       	cpi	r25, 0xFF	; 255
    1ff6:	11 f4       	brne	.+4      	; 0x1ffc <__addsf3+0x1a>
    1ff8:	1e f4       	brtc	.+6      	; 0x2000 <__addsf3+0x1e>
    1ffa:	92 c1       	rjmp	.+804    	; 0x2320 <__fp_nan>
    1ffc:	0e f4       	brtc	.+2      	; 0x2000 <__addsf3+0x1e>
    1ffe:	e0 95       	com	r30
    2000:	e7 fb       	bst	r30, 7
    2002:	5f c1       	rjmp	.+702    	; 0x22c2 <__fp_inf>

00002004 <__addsf3x>:
    2004:	e9 2f       	mov	r30, r25
    2006:	ae d1       	rcall	.+860    	; 0x2364 <__fp_split3>
    2008:	80 f3       	brcs	.-32     	; 0x1fea <__addsf3+0x8>
    200a:	ba 17       	cp	r27, r26
    200c:	62 07       	cpc	r22, r18
    200e:	73 07       	cpc	r23, r19
    2010:	84 07       	cpc	r24, r20
    2012:	95 07       	cpc	r25, r21
    2014:	18 f0       	brcs	.+6      	; 0x201c <__addsf3x+0x18>
    2016:	71 f4       	brne	.+28     	; 0x2034 <__addsf3x+0x30>
    2018:	9e f5       	brtc	.+102    	; 0x2080 <__addsf3x+0x7c>
    201a:	dd c1       	rjmp	.+954    	; 0x23d6 <__fp_zero>
    201c:	0e f4       	brtc	.+2      	; 0x2020 <__addsf3x+0x1c>
    201e:	e0 95       	com	r30
    2020:	0b 2e       	mov	r0, r27
    2022:	ba 2f       	mov	r27, r26
    2024:	a0 2d       	mov	r26, r0
    2026:	0b 01       	movw	r0, r22
    2028:	b9 01       	movw	r22, r18
    202a:	90 01       	movw	r18, r0
    202c:	0c 01       	movw	r0, r24
    202e:	ca 01       	movw	r24, r20
    2030:	a0 01       	movw	r20, r0
    2032:	11 24       	eor	r1, r1
    2034:	ff 27       	eor	r31, r31
    2036:	59 1b       	sub	r21, r25
    2038:	99 f0       	breq	.+38     	; 0x2060 <__addsf3x+0x5c>
    203a:	59 3f       	cpi	r21, 0xF9	; 249
    203c:	50 f4       	brcc	.+20     	; 0x2052 <__addsf3x+0x4e>
    203e:	50 3e       	cpi	r21, 0xE0	; 224
    2040:	68 f1       	brcs	.+90     	; 0x209c <__addsf3x+0x98>
    2042:	1a 16       	cp	r1, r26
    2044:	f0 40       	sbci	r31, 0x00	; 0
    2046:	a2 2f       	mov	r26, r18
    2048:	23 2f       	mov	r18, r19
    204a:	34 2f       	mov	r19, r20
    204c:	44 27       	eor	r20, r20
    204e:	58 5f       	subi	r21, 0xF8	; 248
    2050:	f3 cf       	rjmp	.-26     	; 0x2038 <__addsf3x+0x34>
    2052:	46 95       	lsr	r20
    2054:	37 95       	ror	r19
    2056:	27 95       	ror	r18
    2058:	a7 95       	ror	r26
    205a:	f0 40       	sbci	r31, 0x00	; 0
    205c:	53 95       	inc	r21
    205e:	c9 f7       	brne	.-14     	; 0x2052 <__addsf3x+0x4e>
    2060:	7e f4       	brtc	.+30     	; 0x2080 <__addsf3x+0x7c>
    2062:	1f 16       	cp	r1, r31
    2064:	ba 0b       	sbc	r27, r26
    2066:	62 0b       	sbc	r22, r18
    2068:	73 0b       	sbc	r23, r19
    206a:	84 0b       	sbc	r24, r20
    206c:	ba f0       	brmi	.+46     	; 0x209c <__addsf3x+0x98>
    206e:	91 50       	subi	r25, 0x01	; 1
    2070:	a1 f0       	breq	.+40     	; 0x209a <__addsf3x+0x96>
    2072:	ff 0f       	add	r31, r31
    2074:	bb 1f       	adc	r27, r27
    2076:	66 1f       	adc	r22, r22
    2078:	77 1f       	adc	r23, r23
    207a:	88 1f       	adc	r24, r24
    207c:	c2 f7       	brpl	.-16     	; 0x206e <__addsf3x+0x6a>
    207e:	0e c0       	rjmp	.+28     	; 0x209c <__addsf3x+0x98>
    2080:	ba 0f       	add	r27, r26
    2082:	62 1f       	adc	r22, r18
    2084:	73 1f       	adc	r23, r19
    2086:	84 1f       	adc	r24, r20
    2088:	48 f4       	brcc	.+18     	; 0x209c <__addsf3x+0x98>
    208a:	87 95       	ror	r24
    208c:	77 95       	ror	r23
    208e:	67 95       	ror	r22
    2090:	b7 95       	ror	r27
    2092:	f7 95       	ror	r31
    2094:	9e 3f       	cpi	r25, 0xFE	; 254
    2096:	08 f0       	brcs	.+2      	; 0x209a <__addsf3x+0x96>
    2098:	b3 cf       	rjmp	.-154    	; 0x2000 <__addsf3+0x1e>
    209a:	93 95       	inc	r25
    209c:	88 0f       	add	r24, r24
    209e:	08 f0       	brcs	.+2      	; 0x20a2 <__addsf3x+0x9e>
    20a0:	99 27       	eor	r25, r25
    20a2:	ee 0f       	add	r30, r30
    20a4:	97 95       	ror	r25
    20a6:	87 95       	ror	r24
    20a8:	08 95       	ret

000020aa <__cmpsf2>:
    20aa:	e7 d0       	rcall	.+462    	; 0x227a <__fp_cmp>
    20ac:	08 f4       	brcc	.+2      	; 0x20b0 <__cmpsf2+0x6>
    20ae:	81 e0       	ldi	r24, 0x01	; 1
    20b0:	08 95       	ret

000020b2 <__divsf3>:
    20b2:	0c d0       	rcall	.+24     	; 0x20cc <__divsf3x>
    20b4:	46 c1       	rjmp	.+652    	; 0x2342 <__fp_round>
    20b6:	3e d1       	rcall	.+636    	; 0x2334 <__fp_pscB>
    20b8:	40 f0       	brcs	.+16     	; 0x20ca <__divsf3+0x18>
    20ba:	35 d1       	rcall	.+618    	; 0x2326 <__fp_pscA>
    20bc:	30 f0       	brcs	.+12     	; 0x20ca <__divsf3+0x18>
    20be:	21 f4       	brne	.+8      	; 0x20c8 <__divsf3+0x16>
    20c0:	5f 3f       	cpi	r21, 0xFF	; 255
    20c2:	19 f0       	breq	.+6      	; 0x20ca <__divsf3+0x18>
    20c4:	fe c0       	rjmp	.+508    	; 0x22c2 <__fp_inf>
    20c6:	51 11       	cpse	r21, r1
    20c8:	87 c1       	rjmp	.+782    	; 0x23d8 <__fp_szero>
    20ca:	2a c1       	rjmp	.+596    	; 0x2320 <__fp_nan>

000020cc <__divsf3x>:
    20cc:	4b d1       	rcall	.+662    	; 0x2364 <__fp_split3>
    20ce:	98 f3       	brcs	.-26     	; 0x20b6 <__divsf3+0x4>

000020d0 <__divsf3_pse>:
    20d0:	99 23       	and	r25, r25
    20d2:	c9 f3       	breq	.-14     	; 0x20c6 <__divsf3+0x14>
    20d4:	55 23       	and	r21, r21
    20d6:	b1 f3       	breq	.-20     	; 0x20c4 <__divsf3+0x12>
    20d8:	95 1b       	sub	r25, r21
    20da:	55 0b       	sbc	r21, r21
    20dc:	bb 27       	eor	r27, r27
    20de:	aa 27       	eor	r26, r26
    20e0:	62 17       	cp	r22, r18
    20e2:	73 07       	cpc	r23, r19
    20e4:	84 07       	cpc	r24, r20
    20e6:	38 f0       	brcs	.+14     	; 0x20f6 <__divsf3_pse+0x26>
    20e8:	9f 5f       	subi	r25, 0xFF	; 255
    20ea:	5f 4f       	sbci	r21, 0xFF	; 255
    20ec:	22 0f       	add	r18, r18
    20ee:	33 1f       	adc	r19, r19
    20f0:	44 1f       	adc	r20, r20
    20f2:	aa 1f       	adc	r26, r26
    20f4:	a9 f3       	breq	.-22     	; 0x20e0 <__divsf3_pse+0x10>
    20f6:	33 d0       	rcall	.+102    	; 0x215e <__divsf3_pse+0x8e>
    20f8:	0e 2e       	mov	r0, r30
    20fa:	3a f0       	brmi	.+14     	; 0x210a <__divsf3_pse+0x3a>
    20fc:	e0 e8       	ldi	r30, 0x80	; 128
    20fe:	30 d0       	rcall	.+96     	; 0x2160 <__divsf3_pse+0x90>
    2100:	91 50       	subi	r25, 0x01	; 1
    2102:	50 40       	sbci	r21, 0x00	; 0
    2104:	e6 95       	lsr	r30
    2106:	00 1c       	adc	r0, r0
    2108:	ca f7       	brpl	.-14     	; 0x20fc <__divsf3_pse+0x2c>
    210a:	29 d0       	rcall	.+82     	; 0x215e <__divsf3_pse+0x8e>
    210c:	fe 2f       	mov	r31, r30
    210e:	27 d0       	rcall	.+78     	; 0x215e <__divsf3_pse+0x8e>
    2110:	66 0f       	add	r22, r22
    2112:	77 1f       	adc	r23, r23
    2114:	88 1f       	adc	r24, r24
    2116:	bb 1f       	adc	r27, r27
    2118:	26 17       	cp	r18, r22
    211a:	37 07       	cpc	r19, r23
    211c:	48 07       	cpc	r20, r24
    211e:	ab 07       	cpc	r26, r27
    2120:	b0 e8       	ldi	r27, 0x80	; 128
    2122:	09 f0       	breq	.+2      	; 0x2126 <__divsf3_pse+0x56>
    2124:	bb 0b       	sbc	r27, r27
    2126:	80 2d       	mov	r24, r0
    2128:	bf 01       	movw	r22, r30
    212a:	ff 27       	eor	r31, r31
    212c:	93 58       	subi	r25, 0x83	; 131
    212e:	5f 4f       	sbci	r21, 0xFF	; 255
    2130:	2a f0       	brmi	.+10     	; 0x213c <__divsf3_pse+0x6c>
    2132:	9e 3f       	cpi	r25, 0xFE	; 254
    2134:	51 05       	cpc	r21, r1
    2136:	68 f0       	brcs	.+26     	; 0x2152 <__divsf3_pse+0x82>
    2138:	c4 c0       	rjmp	.+392    	; 0x22c2 <__fp_inf>
    213a:	4e c1       	rjmp	.+668    	; 0x23d8 <__fp_szero>
    213c:	5f 3f       	cpi	r21, 0xFF	; 255
    213e:	ec f3       	brlt	.-6      	; 0x213a <__divsf3_pse+0x6a>
    2140:	98 3e       	cpi	r25, 0xE8	; 232
    2142:	dc f3       	brlt	.-10     	; 0x213a <__divsf3_pse+0x6a>
    2144:	86 95       	lsr	r24
    2146:	77 95       	ror	r23
    2148:	67 95       	ror	r22
    214a:	b7 95       	ror	r27
    214c:	f7 95       	ror	r31
    214e:	9f 5f       	subi	r25, 0xFF	; 255
    2150:	c9 f7       	brne	.-14     	; 0x2144 <__divsf3_pse+0x74>
    2152:	88 0f       	add	r24, r24
    2154:	91 1d       	adc	r25, r1
    2156:	96 95       	lsr	r25
    2158:	87 95       	ror	r24
    215a:	97 f9       	bld	r25, 7
    215c:	08 95       	ret
    215e:	e1 e0       	ldi	r30, 0x01	; 1
    2160:	66 0f       	add	r22, r22
    2162:	77 1f       	adc	r23, r23
    2164:	88 1f       	adc	r24, r24
    2166:	bb 1f       	adc	r27, r27
    2168:	62 17       	cp	r22, r18
    216a:	73 07       	cpc	r23, r19
    216c:	84 07       	cpc	r24, r20
    216e:	ba 07       	cpc	r27, r26
    2170:	20 f0       	brcs	.+8      	; 0x217a <__divsf3_pse+0xaa>
    2172:	62 1b       	sub	r22, r18
    2174:	73 0b       	sbc	r23, r19
    2176:	84 0b       	sbc	r24, r20
    2178:	ba 0b       	sbc	r27, r26
    217a:	ee 1f       	adc	r30, r30
    217c:	88 f7       	brcc	.-30     	; 0x2160 <__divsf3_pse+0x90>
    217e:	e0 95       	com	r30
    2180:	08 95       	ret

00002182 <__fixunssfsi>:
    2182:	f8 d0       	rcall	.+496    	; 0x2374 <__fp_splitA>
    2184:	88 f0       	brcs	.+34     	; 0x21a8 <__fixunssfsi+0x26>
    2186:	9f 57       	subi	r25, 0x7F	; 127
    2188:	90 f0       	brcs	.+36     	; 0x21ae <__fixunssfsi+0x2c>
    218a:	b9 2f       	mov	r27, r25
    218c:	99 27       	eor	r25, r25
    218e:	b7 51       	subi	r27, 0x17	; 23
    2190:	a0 f0       	brcs	.+40     	; 0x21ba <__fixunssfsi+0x38>
    2192:	d1 f0       	breq	.+52     	; 0x21c8 <__fixunssfsi+0x46>
    2194:	66 0f       	add	r22, r22
    2196:	77 1f       	adc	r23, r23
    2198:	88 1f       	adc	r24, r24
    219a:	99 1f       	adc	r25, r25
    219c:	1a f0       	brmi	.+6      	; 0x21a4 <__fixunssfsi+0x22>
    219e:	ba 95       	dec	r27
    21a0:	c9 f7       	brne	.-14     	; 0x2194 <__fixunssfsi+0x12>
    21a2:	12 c0       	rjmp	.+36     	; 0x21c8 <__fixunssfsi+0x46>
    21a4:	b1 30       	cpi	r27, 0x01	; 1
    21a6:	81 f0       	breq	.+32     	; 0x21c8 <__fixunssfsi+0x46>
    21a8:	16 d1       	rcall	.+556    	; 0x23d6 <__fp_zero>
    21aa:	b1 e0       	ldi	r27, 0x01	; 1
    21ac:	08 95       	ret
    21ae:	13 c1       	rjmp	.+550    	; 0x23d6 <__fp_zero>
    21b0:	67 2f       	mov	r22, r23
    21b2:	78 2f       	mov	r23, r24
    21b4:	88 27       	eor	r24, r24
    21b6:	b8 5f       	subi	r27, 0xF8	; 248
    21b8:	39 f0       	breq	.+14     	; 0x21c8 <__fixunssfsi+0x46>
    21ba:	b9 3f       	cpi	r27, 0xF9	; 249
    21bc:	cc f3       	brlt	.-14     	; 0x21b0 <__fixunssfsi+0x2e>
    21be:	86 95       	lsr	r24
    21c0:	77 95       	ror	r23
    21c2:	67 95       	ror	r22
    21c4:	b3 95       	inc	r27
    21c6:	d9 f7       	brne	.-10     	; 0x21be <__fixunssfsi+0x3c>
    21c8:	3e f4       	brtc	.+14     	; 0x21d8 <__fixunssfsi+0x56>
    21ca:	90 95       	com	r25
    21cc:	80 95       	com	r24
    21ce:	70 95       	com	r23
    21d0:	61 95       	neg	r22
    21d2:	7f 4f       	sbci	r23, 0xFF	; 255
    21d4:	8f 4f       	sbci	r24, 0xFF	; 255
    21d6:	9f 4f       	sbci	r25, 0xFF	; 255
    21d8:	08 95       	ret

000021da <__floatunsisf>:
    21da:	e8 94       	clt
    21dc:	09 c0       	rjmp	.+18     	; 0x21f0 <__floatsisf+0x12>

000021de <__floatsisf>:
    21de:	97 fb       	bst	r25, 7
    21e0:	3e f4       	brtc	.+14     	; 0x21f0 <__floatsisf+0x12>
    21e2:	90 95       	com	r25
    21e4:	80 95       	com	r24
    21e6:	70 95       	com	r23
    21e8:	61 95       	neg	r22
    21ea:	7f 4f       	sbci	r23, 0xFF	; 255
    21ec:	8f 4f       	sbci	r24, 0xFF	; 255
    21ee:	9f 4f       	sbci	r25, 0xFF	; 255
    21f0:	99 23       	and	r25, r25
    21f2:	a9 f0       	breq	.+42     	; 0x221e <__floatsisf+0x40>
    21f4:	f9 2f       	mov	r31, r25
    21f6:	96 e9       	ldi	r25, 0x96	; 150
    21f8:	bb 27       	eor	r27, r27
    21fa:	93 95       	inc	r25
    21fc:	f6 95       	lsr	r31
    21fe:	87 95       	ror	r24
    2200:	77 95       	ror	r23
    2202:	67 95       	ror	r22
    2204:	b7 95       	ror	r27
    2206:	f1 11       	cpse	r31, r1
    2208:	f8 cf       	rjmp	.-16     	; 0x21fa <__floatsisf+0x1c>
    220a:	fa f4       	brpl	.+62     	; 0x224a <__floatsisf+0x6c>
    220c:	bb 0f       	add	r27, r27
    220e:	11 f4       	brne	.+4      	; 0x2214 <__floatsisf+0x36>
    2210:	60 ff       	sbrs	r22, 0
    2212:	1b c0       	rjmp	.+54     	; 0x224a <__floatsisf+0x6c>
    2214:	6f 5f       	subi	r22, 0xFF	; 255
    2216:	7f 4f       	sbci	r23, 0xFF	; 255
    2218:	8f 4f       	sbci	r24, 0xFF	; 255
    221a:	9f 4f       	sbci	r25, 0xFF	; 255
    221c:	16 c0       	rjmp	.+44     	; 0x224a <__floatsisf+0x6c>
    221e:	88 23       	and	r24, r24
    2220:	11 f0       	breq	.+4      	; 0x2226 <__floatsisf+0x48>
    2222:	96 e9       	ldi	r25, 0x96	; 150
    2224:	11 c0       	rjmp	.+34     	; 0x2248 <__floatsisf+0x6a>
    2226:	77 23       	and	r23, r23
    2228:	21 f0       	breq	.+8      	; 0x2232 <__floatsisf+0x54>
    222a:	9e e8       	ldi	r25, 0x8E	; 142
    222c:	87 2f       	mov	r24, r23
    222e:	76 2f       	mov	r23, r22
    2230:	05 c0       	rjmp	.+10     	; 0x223c <__floatsisf+0x5e>
    2232:	66 23       	and	r22, r22
    2234:	71 f0       	breq	.+28     	; 0x2252 <__floatsisf+0x74>
    2236:	96 e8       	ldi	r25, 0x86	; 134
    2238:	86 2f       	mov	r24, r22
    223a:	70 e0       	ldi	r23, 0x00	; 0
    223c:	60 e0       	ldi	r22, 0x00	; 0
    223e:	2a f0       	brmi	.+10     	; 0x224a <__floatsisf+0x6c>
    2240:	9a 95       	dec	r25
    2242:	66 0f       	add	r22, r22
    2244:	77 1f       	adc	r23, r23
    2246:	88 1f       	adc	r24, r24
    2248:	da f7       	brpl	.-10     	; 0x2240 <__floatsisf+0x62>
    224a:	88 0f       	add	r24, r24
    224c:	96 95       	lsr	r25
    224e:	87 95       	ror	r24
    2250:	97 f9       	bld	r25, 7
    2252:	08 95       	ret

00002254 <floor>:
    2254:	a9 d0       	rcall	.+338    	; 0x23a8 <__fp_trunc>
    2256:	80 f0       	brcs	.+32     	; 0x2278 <floor+0x24>
    2258:	9f 37       	cpi	r25, 0x7F	; 127
    225a:	40 f4       	brcc	.+16     	; 0x226c <floor+0x18>
    225c:	91 11       	cpse	r25, r1
    225e:	0e f0       	brts	.+2      	; 0x2262 <floor+0xe>
    2260:	bb c0       	rjmp	.+374    	; 0x23d8 <__fp_szero>
    2262:	60 e0       	ldi	r22, 0x00	; 0
    2264:	70 e0       	ldi	r23, 0x00	; 0
    2266:	80 e8       	ldi	r24, 0x80	; 128
    2268:	9f eb       	ldi	r25, 0xBF	; 191
    226a:	08 95       	ret
    226c:	26 f4       	brtc	.+8      	; 0x2276 <floor+0x22>
    226e:	1b 16       	cp	r1, r27
    2270:	61 1d       	adc	r22, r1
    2272:	71 1d       	adc	r23, r1
    2274:	81 1d       	adc	r24, r1
    2276:	2b c0       	rjmp	.+86     	; 0x22ce <__fp_mintl>
    2278:	45 c0       	rjmp	.+138    	; 0x2304 <__fp_mpack>

0000227a <__fp_cmp>:
    227a:	99 0f       	add	r25, r25
    227c:	00 08       	sbc	r0, r0
    227e:	55 0f       	add	r21, r21
    2280:	aa 0b       	sbc	r26, r26
    2282:	e0 e8       	ldi	r30, 0x80	; 128
    2284:	fe ef       	ldi	r31, 0xFE	; 254
    2286:	16 16       	cp	r1, r22
    2288:	17 06       	cpc	r1, r23
    228a:	e8 07       	cpc	r30, r24
    228c:	f9 07       	cpc	r31, r25
    228e:	c0 f0       	brcs	.+48     	; 0x22c0 <__fp_cmp+0x46>
    2290:	12 16       	cp	r1, r18
    2292:	13 06       	cpc	r1, r19
    2294:	e4 07       	cpc	r30, r20
    2296:	f5 07       	cpc	r31, r21
    2298:	98 f0       	brcs	.+38     	; 0x22c0 <__fp_cmp+0x46>
    229a:	62 1b       	sub	r22, r18
    229c:	73 0b       	sbc	r23, r19
    229e:	84 0b       	sbc	r24, r20
    22a0:	95 0b       	sbc	r25, r21
    22a2:	39 f4       	brne	.+14     	; 0x22b2 <__fp_cmp+0x38>
    22a4:	0a 26       	eor	r0, r26
    22a6:	61 f0       	breq	.+24     	; 0x22c0 <__fp_cmp+0x46>
    22a8:	23 2b       	or	r18, r19
    22aa:	24 2b       	or	r18, r20
    22ac:	25 2b       	or	r18, r21
    22ae:	21 f4       	brne	.+8      	; 0x22b8 <__fp_cmp+0x3e>
    22b0:	08 95       	ret
    22b2:	0a 26       	eor	r0, r26
    22b4:	09 f4       	brne	.+2      	; 0x22b8 <__fp_cmp+0x3e>
    22b6:	a1 40       	sbci	r26, 0x01	; 1
    22b8:	a6 95       	lsr	r26
    22ba:	8f ef       	ldi	r24, 0xFF	; 255
    22bc:	81 1d       	adc	r24, r1
    22be:	81 1d       	adc	r24, r1
    22c0:	08 95       	ret

000022c2 <__fp_inf>:
    22c2:	97 f9       	bld	r25, 7
    22c4:	9f 67       	ori	r25, 0x7F	; 127
    22c6:	80 e8       	ldi	r24, 0x80	; 128
    22c8:	70 e0       	ldi	r23, 0x00	; 0
    22ca:	60 e0       	ldi	r22, 0x00	; 0
    22cc:	08 95       	ret

000022ce <__fp_mintl>:
    22ce:	88 23       	and	r24, r24
    22d0:	71 f4       	brne	.+28     	; 0x22ee <__fp_mintl+0x20>
    22d2:	77 23       	and	r23, r23
    22d4:	21 f0       	breq	.+8      	; 0x22de <__fp_mintl+0x10>
    22d6:	98 50       	subi	r25, 0x08	; 8
    22d8:	87 2b       	or	r24, r23
    22da:	76 2f       	mov	r23, r22
    22dc:	07 c0       	rjmp	.+14     	; 0x22ec <__fp_mintl+0x1e>
    22de:	66 23       	and	r22, r22
    22e0:	11 f4       	brne	.+4      	; 0x22e6 <__fp_mintl+0x18>
    22e2:	99 27       	eor	r25, r25
    22e4:	0d c0       	rjmp	.+26     	; 0x2300 <__fp_mintl+0x32>
    22e6:	90 51       	subi	r25, 0x10	; 16
    22e8:	86 2b       	or	r24, r22
    22ea:	70 e0       	ldi	r23, 0x00	; 0
    22ec:	60 e0       	ldi	r22, 0x00	; 0
    22ee:	2a f0       	brmi	.+10     	; 0x22fa <__fp_mintl+0x2c>
    22f0:	9a 95       	dec	r25
    22f2:	66 0f       	add	r22, r22
    22f4:	77 1f       	adc	r23, r23
    22f6:	88 1f       	adc	r24, r24
    22f8:	da f7       	brpl	.-10     	; 0x22f0 <__fp_mintl+0x22>
    22fa:	88 0f       	add	r24, r24
    22fc:	96 95       	lsr	r25
    22fe:	87 95       	ror	r24
    2300:	97 f9       	bld	r25, 7
    2302:	08 95       	ret

00002304 <__fp_mpack>:
    2304:	9f 3f       	cpi	r25, 0xFF	; 255
    2306:	31 f0       	breq	.+12     	; 0x2314 <__fp_mpack_finite+0xc>

00002308 <__fp_mpack_finite>:
    2308:	91 50       	subi	r25, 0x01	; 1
    230a:	20 f4       	brcc	.+8      	; 0x2314 <__fp_mpack_finite+0xc>
    230c:	87 95       	ror	r24
    230e:	77 95       	ror	r23
    2310:	67 95       	ror	r22
    2312:	b7 95       	ror	r27
    2314:	88 0f       	add	r24, r24
    2316:	91 1d       	adc	r25, r1
    2318:	96 95       	lsr	r25
    231a:	87 95       	ror	r24
    231c:	97 f9       	bld	r25, 7
    231e:	08 95       	ret

00002320 <__fp_nan>:
    2320:	9f ef       	ldi	r25, 0xFF	; 255
    2322:	80 ec       	ldi	r24, 0xC0	; 192
    2324:	08 95       	ret

00002326 <__fp_pscA>:
    2326:	00 24       	eor	r0, r0
    2328:	0a 94       	dec	r0
    232a:	16 16       	cp	r1, r22
    232c:	17 06       	cpc	r1, r23
    232e:	18 06       	cpc	r1, r24
    2330:	09 06       	cpc	r0, r25
    2332:	08 95       	ret

00002334 <__fp_pscB>:
    2334:	00 24       	eor	r0, r0
    2336:	0a 94       	dec	r0
    2338:	12 16       	cp	r1, r18
    233a:	13 06       	cpc	r1, r19
    233c:	14 06       	cpc	r1, r20
    233e:	05 06       	cpc	r0, r21
    2340:	08 95       	ret

00002342 <__fp_round>:
    2342:	09 2e       	mov	r0, r25
    2344:	03 94       	inc	r0
    2346:	00 0c       	add	r0, r0
    2348:	11 f4       	brne	.+4      	; 0x234e <__fp_round+0xc>
    234a:	88 23       	and	r24, r24
    234c:	52 f0       	brmi	.+20     	; 0x2362 <__fp_round+0x20>
    234e:	bb 0f       	add	r27, r27
    2350:	40 f4       	brcc	.+16     	; 0x2362 <__fp_round+0x20>
    2352:	bf 2b       	or	r27, r31
    2354:	11 f4       	brne	.+4      	; 0x235a <__fp_round+0x18>
    2356:	60 ff       	sbrs	r22, 0
    2358:	04 c0       	rjmp	.+8      	; 0x2362 <__fp_round+0x20>
    235a:	6f 5f       	subi	r22, 0xFF	; 255
    235c:	7f 4f       	sbci	r23, 0xFF	; 255
    235e:	8f 4f       	sbci	r24, 0xFF	; 255
    2360:	9f 4f       	sbci	r25, 0xFF	; 255
    2362:	08 95       	ret

00002364 <__fp_split3>:
    2364:	57 fd       	sbrc	r21, 7
    2366:	90 58       	subi	r25, 0x80	; 128
    2368:	44 0f       	add	r20, r20
    236a:	55 1f       	adc	r21, r21
    236c:	59 f0       	breq	.+22     	; 0x2384 <__fp_splitA+0x10>
    236e:	5f 3f       	cpi	r21, 0xFF	; 255
    2370:	71 f0       	breq	.+28     	; 0x238e <__fp_splitA+0x1a>
    2372:	47 95       	ror	r20

00002374 <__fp_splitA>:
    2374:	88 0f       	add	r24, r24
    2376:	97 fb       	bst	r25, 7
    2378:	99 1f       	adc	r25, r25
    237a:	61 f0       	breq	.+24     	; 0x2394 <__fp_splitA+0x20>
    237c:	9f 3f       	cpi	r25, 0xFF	; 255
    237e:	79 f0       	breq	.+30     	; 0x239e <__fp_splitA+0x2a>
    2380:	87 95       	ror	r24
    2382:	08 95       	ret
    2384:	12 16       	cp	r1, r18
    2386:	13 06       	cpc	r1, r19
    2388:	14 06       	cpc	r1, r20
    238a:	55 1f       	adc	r21, r21
    238c:	f2 cf       	rjmp	.-28     	; 0x2372 <__fp_split3+0xe>
    238e:	46 95       	lsr	r20
    2390:	f1 df       	rcall	.-30     	; 0x2374 <__fp_splitA>
    2392:	08 c0       	rjmp	.+16     	; 0x23a4 <__fp_splitA+0x30>
    2394:	16 16       	cp	r1, r22
    2396:	17 06       	cpc	r1, r23
    2398:	18 06       	cpc	r1, r24
    239a:	99 1f       	adc	r25, r25
    239c:	f1 cf       	rjmp	.-30     	; 0x2380 <__fp_splitA+0xc>
    239e:	86 95       	lsr	r24
    23a0:	71 05       	cpc	r23, r1
    23a2:	61 05       	cpc	r22, r1
    23a4:	08 94       	sec
    23a6:	08 95       	ret

000023a8 <__fp_trunc>:
    23a8:	e5 df       	rcall	.-54     	; 0x2374 <__fp_splitA>
    23aa:	a0 f0       	brcs	.+40     	; 0x23d4 <__fp_trunc+0x2c>
    23ac:	be e7       	ldi	r27, 0x7E	; 126
    23ae:	b9 17       	cp	r27, r25
    23b0:	88 f4       	brcc	.+34     	; 0x23d4 <__fp_trunc+0x2c>
    23b2:	bb 27       	eor	r27, r27
    23b4:	9f 38       	cpi	r25, 0x8F	; 143
    23b6:	60 f4       	brcc	.+24     	; 0x23d0 <__fp_trunc+0x28>
    23b8:	16 16       	cp	r1, r22
    23ba:	b1 1d       	adc	r27, r1
    23bc:	67 2f       	mov	r22, r23
    23be:	78 2f       	mov	r23, r24
    23c0:	88 27       	eor	r24, r24
    23c2:	98 5f       	subi	r25, 0xF8	; 248
    23c4:	f7 cf       	rjmp	.-18     	; 0x23b4 <__fp_trunc+0xc>
    23c6:	86 95       	lsr	r24
    23c8:	77 95       	ror	r23
    23ca:	67 95       	ror	r22
    23cc:	b1 1d       	adc	r27, r1
    23ce:	93 95       	inc	r25
    23d0:	96 39       	cpi	r25, 0x96	; 150
    23d2:	c8 f3       	brcs	.-14     	; 0x23c6 <__fp_trunc+0x1e>
    23d4:	08 95       	ret

000023d6 <__fp_zero>:
    23d6:	e8 94       	clt

000023d8 <__fp_szero>:
    23d8:	bb 27       	eor	r27, r27
    23da:	66 27       	eor	r22, r22
    23dc:	77 27       	eor	r23, r23
    23de:	cb 01       	movw	r24, r22
    23e0:	97 f9       	bld	r25, 7
    23e2:	08 95       	ret

000023e4 <__gesf2>:
    23e4:	4a df       	rcall	.-364    	; 0x227a <__fp_cmp>
    23e6:	08 f4       	brcc	.+2      	; 0x23ea <__gesf2+0x6>
    23e8:	8f ef       	ldi	r24, 0xFF	; 255
    23ea:	08 95       	ret

000023ec <log10>:
    23ec:	0a d0       	rcall	.+20     	; 0x2402 <log>
    23ee:	29 ed       	ldi	r18, 0xD9	; 217
    23f0:	3b e5       	ldi	r19, 0x5B	; 91
    23f2:	4e ed       	ldi	r20, 0xDE	; 222
    23f4:	5e e3       	ldi	r21, 0x3E	; 62
    23f6:	45 c0       	rjmp	.+138    	; 0x2482 <__mulsf3>
    23f8:	0e f0       	brts	.+2      	; 0x23fc <log10+0x10>
    23fa:	84 cf       	rjmp	.-248    	; 0x2304 <__fp_mpack>
    23fc:	91 cf       	rjmp	.-222    	; 0x2320 <__fp_nan>
    23fe:	68 94       	set
    2400:	60 cf       	rjmp	.-320    	; 0x22c2 <__fp_inf>

00002402 <log>:
    2402:	b8 df       	rcall	.-144    	; 0x2374 <__fp_splitA>
    2404:	c8 f3       	brcs	.-14     	; 0x23f8 <log10+0xc>
    2406:	99 23       	and	r25, r25
    2408:	d1 f3       	breq	.-12     	; 0x23fe <log10+0x12>
    240a:	c6 f3       	brts	.-16     	; 0x23fc <log10+0x10>
    240c:	df 93       	push	r29
    240e:	cf 93       	push	r28
    2410:	1f 93       	push	r17
    2412:	0f 93       	push	r16
    2414:	ff 92       	push	r15
    2416:	c9 2f       	mov	r28, r25
    2418:	dd 27       	eor	r29, r29
    241a:	88 23       	and	r24, r24
    241c:	2a f0       	brmi	.+10     	; 0x2428 <log+0x26>
    241e:	21 97       	sbiw	r28, 0x01	; 1
    2420:	66 0f       	add	r22, r22
    2422:	77 1f       	adc	r23, r23
    2424:	88 1f       	adc	r24, r24
    2426:	da f7       	brpl	.-10     	; 0x241e <log+0x1c>
    2428:	20 e0       	ldi	r18, 0x00	; 0
    242a:	30 e0       	ldi	r19, 0x00	; 0
    242c:	40 e8       	ldi	r20, 0x80	; 128
    242e:	5f eb       	ldi	r21, 0xBF	; 191
    2430:	9f e3       	ldi	r25, 0x3F	; 63
    2432:	88 39       	cpi	r24, 0x98	; 152
    2434:	20 f0       	brcs	.+8      	; 0x243e <log+0x3c>
    2436:	80 3e       	cpi	r24, 0xE0	; 224
    2438:	30 f0       	brcs	.+12     	; 0x2446 <log+0x44>
    243a:	21 96       	adiw	r28, 0x01	; 1
    243c:	8f 77       	andi	r24, 0x7F	; 127
    243e:	d1 dd       	rcall	.-1118   	; 0x1fe2 <__addsf3>
    2440:	e2 e8       	ldi	r30, 0x82	; 130
    2442:	f0 e0       	ldi	r31, 0x00	; 0
    2444:	03 c0       	rjmp	.+6      	; 0x244c <log+0x4a>
    2446:	cd dd       	rcall	.-1126   	; 0x1fe2 <__addsf3>
    2448:	ef ea       	ldi	r30, 0xAF	; 175
    244a:	f0 e0       	ldi	r31, 0x00	; 0
    244c:	7d d0       	rcall	.+250    	; 0x2548 <__fp_powser>
    244e:	8b 01       	movw	r16, r22
    2450:	be 01       	movw	r22, r28
    2452:	ec 01       	movw	r28, r24
    2454:	fb 2e       	mov	r15, r27
    2456:	6f 57       	subi	r22, 0x7F	; 127
    2458:	71 09       	sbc	r23, r1
    245a:	75 95       	asr	r23
    245c:	77 1f       	adc	r23, r23
    245e:	88 0b       	sbc	r24, r24
    2460:	99 0b       	sbc	r25, r25
    2462:	bd de       	rcall	.-646    	; 0x21de <__floatsisf>
    2464:	28 e1       	ldi	r18, 0x18	; 24
    2466:	32 e7       	ldi	r19, 0x72	; 114
    2468:	41 e3       	ldi	r20, 0x31	; 49
    246a:	5f e3       	ldi	r21, 0x3F	; 63
    246c:	16 d0       	rcall	.+44     	; 0x249a <__mulsf3x>
    246e:	af 2d       	mov	r26, r15
    2470:	98 01       	movw	r18, r16
    2472:	ae 01       	movw	r20, r28
    2474:	ff 90       	pop	r15
    2476:	0f 91       	pop	r16
    2478:	1f 91       	pop	r17
    247a:	cf 91       	pop	r28
    247c:	df 91       	pop	r29
    247e:	c2 dd       	rcall	.-1148   	; 0x2004 <__addsf3x>
    2480:	60 cf       	rjmp	.-320    	; 0x2342 <__fp_round>

00002482 <__mulsf3>:
    2482:	0b d0       	rcall	.+22     	; 0x249a <__mulsf3x>
    2484:	5e cf       	rjmp	.-324    	; 0x2342 <__fp_round>
    2486:	4f df       	rcall	.-354    	; 0x2326 <__fp_pscA>
    2488:	28 f0       	brcs	.+10     	; 0x2494 <__mulsf3+0x12>
    248a:	54 df       	rcall	.-344    	; 0x2334 <__fp_pscB>
    248c:	18 f0       	brcs	.+6      	; 0x2494 <__mulsf3+0x12>
    248e:	95 23       	and	r25, r21
    2490:	09 f0       	breq	.+2      	; 0x2494 <__mulsf3+0x12>
    2492:	17 cf       	rjmp	.-466    	; 0x22c2 <__fp_inf>
    2494:	45 cf       	rjmp	.-374    	; 0x2320 <__fp_nan>
    2496:	11 24       	eor	r1, r1
    2498:	9f cf       	rjmp	.-194    	; 0x23d8 <__fp_szero>

0000249a <__mulsf3x>:
    249a:	64 df       	rcall	.-312    	; 0x2364 <__fp_split3>
    249c:	a0 f3       	brcs	.-24     	; 0x2486 <__mulsf3+0x4>

0000249e <__mulsf3_pse>:
    249e:	95 9f       	mul	r25, r21
    24a0:	d1 f3       	breq	.-12     	; 0x2496 <__mulsf3+0x14>
    24a2:	95 0f       	add	r25, r21
    24a4:	50 e0       	ldi	r21, 0x00	; 0
    24a6:	55 1f       	adc	r21, r21
    24a8:	62 9f       	mul	r22, r18
    24aa:	f0 01       	movw	r30, r0
    24ac:	72 9f       	mul	r23, r18
    24ae:	bb 27       	eor	r27, r27
    24b0:	f0 0d       	add	r31, r0
    24b2:	b1 1d       	adc	r27, r1
    24b4:	63 9f       	mul	r22, r19
    24b6:	aa 27       	eor	r26, r26
    24b8:	f0 0d       	add	r31, r0
    24ba:	b1 1d       	adc	r27, r1
    24bc:	aa 1f       	adc	r26, r26
    24be:	64 9f       	mul	r22, r20
    24c0:	66 27       	eor	r22, r22
    24c2:	b0 0d       	add	r27, r0
    24c4:	a1 1d       	adc	r26, r1
    24c6:	66 1f       	adc	r22, r22
    24c8:	82 9f       	mul	r24, r18
    24ca:	22 27       	eor	r18, r18
    24cc:	b0 0d       	add	r27, r0
    24ce:	a1 1d       	adc	r26, r1
    24d0:	62 1f       	adc	r22, r18
    24d2:	73 9f       	mul	r23, r19
    24d4:	b0 0d       	add	r27, r0
    24d6:	a1 1d       	adc	r26, r1
    24d8:	62 1f       	adc	r22, r18
    24da:	83 9f       	mul	r24, r19
    24dc:	a0 0d       	add	r26, r0
    24de:	61 1d       	adc	r22, r1
    24e0:	22 1f       	adc	r18, r18
    24e2:	74 9f       	mul	r23, r20
    24e4:	33 27       	eor	r19, r19
    24e6:	a0 0d       	add	r26, r0
    24e8:	61 1d       	adc	r22, r1
    24ea:	23 1f       	adc	r18, r19
    24ec:	84 9f       	mul	r24, r20
    24ee:	60 0d       	add	r22, r0
    24f0:	21 1d       	adc	r18, r1
    24f2:	82 2f       	mov	r24, r18
    24f4:	76 2f       	mov	r23, r22
    24f6:	6a 2f       	mov	r22, r26
    24f8:	11 24       	eor	r1, r1
    24fa:	9f 57       	subi	r25, 0x7F	; 127
    24fc:	50 40       	sbci	r21, 0x00	; 0
    24fe:	8a f0       	brmi	.+34     	; 0x2522 <__mulsf3_pse+0x84>
    2500:	e1 f0       	breq	.+56     	; 0x253a <__mulsf3_pse+0x9c>
    2502:	88 23       	and	r24, r24
    2504:	4a f0       	brmi	.+18     	; 0x2518 <__mulsf3_pse+0x7a>
    2506:	ee 0f       	add	r30, r30
    2508:	ff 1f       	adc	r31, r31
    250a:	bb 1f       	adc	r27, r27
    250c:	66 1f       	adc	r22, r22
    250e:	77 1f       	adc	r23, r23
    2510:	88 1f       	adc	r24, r24
    2512:	91 50       	subi	r25, 0x01	; 1
    2514:	50 40       	sbci	r21, 0x00	; 0
    2516:	a9 f7       	brne	.-22     	; 0x2502 <__mulsf3_pse+0x64>
    2518:	9e 3f       	cpi	r25, 0xFE	; 254
    251a:	51 05       	cpc	r21, r1
    251c:	70 f0       	brcs	.+28     	; 0x253a <__mulsf3_pse+0x9c>
    251e:	d1 ce       	rjmp	.-606    	; 0x22c2 <__fp_inf>
    2520:	5b cf       	rjmp	.-330    	; 0x23d8 <__fp_szero>
    2522:	5f 3f       	cpi	r21, 0xFF	; 255
    2524:	ec f3       	brlt	.-6      	; 0x2520 <__mulsf3_pse+0x82>
    2526:	98 3e       	cpi	r25, 0xE8	; 232
    2528:	dc f3       	brlt	.-10     	; 0x2520 <__mulsf3_pse+0x82>
    252a:	86 95       	lsr	r24
    252c:	77 95       	ror	r23
    252e:	67 95       	ror	r22
    2530:	b7 95       	ror	r27
    2532:	f7 95       	ror	r31
    2534:	e7 95       	ror	r30
    2536:	9f 5f       	subi	r25, 0xFF	; 255
    2538:	c1 f7       	brne	.-16     	; 0x252a <__mulsf3_pse+0x8c>
    253a:	fe 2b       	or	r31, r30
    253c:	88 0f       	add	r24, r24
    253e:	91 1d       	adc	r25, r1
    2540:	96 95       	lsr	r25
    2542:	87 95       	ror	r24
    2544:	97 f9       	bld	r25, 7
    2546:	08 95       	ret

00002548 <__fp_powser>:
    2548:	df 93       	push	r29
    254a:	cf 93       	push	r28
    254c:	1f 93       	push	r17
    254e:	0f 93       	push	r16
    2550:	ff 92       	push	r15
    2552:	ef 92       	push	r14
    2554:	df 92       	push	r13
    2556:	7b 01       	movw	r14, r22
    2558:	8c 01       	movw	r16, r24
    255a:	68 94       	set
    255c:	05 c0       	rjmp	.+10     	; 0x2568 <__fp_powser+0x20>
    255e:	da 2e       	mov	r13, r26
    2560:	ef 01       	movw	r28, r30
    2562:	9b df       	rcall	.-202    	; 0x249a <__mulsf3x>
    2564:	fe 01       	movw	r30, r28
    2566:	e8 94       	clt
    2568:	a5 91       	lpm	r26, Z+
    256a:	25 91       	lpm	r18, Z+
    256c:	35 91       	lpm	r19, Z+
    256e:	45 91       	lpm	r20, Z+
    2570:	55 91       	lpm	r21, Z+
    2572:	ae f3       	brts	.-22     	; 0x255e <__fp_powser+0x16>
    2574:	ef 01       	movw	r28, r30
    2576:	46 dd       	rcall	.-1396   	; 0x2004 <__addsf3x>
    2578:	fe 01       	movw	r30, r28
    257a:	97 01       	movw	r18, r14
    257c:	a8 01       	movw	r20, r16
    257e:	da 94       	dec	r13
    2580:	79 f7       	brne	.-34     	; 0x2560 <__fp_powser+0x18>
    2582:	df 90       	pop	r13
    2584:	ef 90       	pop	r14
    2586:	ff 90       	pop	r15
    2588:	0f 91       	pop	r16
    258a:	1f 91       	pop	r17
    258c:	cf 91       	pop	r28
    258e:	df 91       	pop	r29
    2590:	08 95       	ret

00002592 <__ftoa_engine>:
    2592:	28 30       	cpi	r18, 0x08	; 8
    2594:	08 f0       	brcs	.+2      	; 0x2598 <__ftoa_engine+0x6>
    2596:	27 e0       	ldi	r18, 0x07	; 7
    2598:	33 27       	eor	r19, r19
    259a:	da 01       	movw	r26, r20
    259c:	99 0f       	add	r25, r25
    259e:	31 1d       	adc	r19, r1
    25a0:	87 fd       	sbrc	r24, 7
    25a2:	91 60       	ori	r25, 0x01	; 1
    25a4:	00 96       	adiw	r24, 0x00	; 0
    25a6:	61 05       	cpc	r22, r1
    25a8:	71 05       	cpc	r23, r1
    25aa:	39 f4       	brne	.+14     	; 0x25ba <__ftoa_engine+0x28>
    25ac:	32 60       	ori	r19, 0x02	; 2
    25ae:	2e 5f       	subi	r18, 0xFE	; 254
    25b0:	3d 93       	st	X+, r19
    25b2:	30 e3       	ldi	r19, 0x30	; 48
    25b4:	2a 95       	dec	r18
    25b6:	e1 f7       	brne	.-8      	; 0x25b0 <__ftoa_engine+0x1e>
    25b8:	08 95       	ret
    25ba:	9f 3f       	cpi	r25, 0xFF	; 255
    25bc:	30 f0       	brcs	.+12     	; 0x25ca <__ftoa_engine+0x38>
    25be:	80 38       	cpi	r24, 0x80	; 128
    25c0:	71 05       	cpc	r23, r1
    25c2:	61 05       	cpc	r22, r1
    25c4:	09 f0       	breq	.+2      	; 0x25c8 <__ftoa_engine+0x36>
    25c6:	3c 5f       	subi	r19, 0xFC	; 252
    25c8:	3c 5f       	subi	r19, 0xFC	; 252
    25ca:	3d 93       	st	X+, r19
    25cc:	91 30       	cpi	r25, 0x01	; 1
    25ce:	08 f0       	brcs	.+2      	; 0x25d2 <__ftoa_engine+0x40>
    25d0:	80 68       	ori	r24, 0x80	; 128
    25d2:	91 1d       	adc	r25, r1
    25d4:	df 93       	push	r29
    25d6:	cf 93       	push	r28
    25d8:	1f 93       	push	r17
    25da:	0f 93       	push	r16
    25dc:	ff 92       	push	r15
    25de:	ef 92       	push	r14
    25e0:	19 2f       	mov	r17, r25
    25e2:	98 7f       	andi	r25, 0xF8	; 248
    25e4:	96 95       	lsr	r25
    25e6:	e9 2f       	mov	r30, r25
    25e8:	96 95       	lsr	r25
    25ea:	96 95       	lsr	r25
    25ec:	e9 0f       	add	r30, r25
    25ee:	ff 27       	eor	r31, r31
    25f0:	e1 5a       	subi	r30, 0xA1	; 161
    25f2:	f6 4f       	sbci	r31, 0xF6	; 246
    25f4:	99 27       	eor	r25, r25
    25f6:	33 27       	eor	r19, r19
    25f8:	ee 24       	eor	r14, r14
    25fa:	ff 24       	eor	r15, r15
    25fc:	a7 01       	movw	r20, r14
    25fe:	e7 01       	movw	r28, r14
    2600:	05 90       	lpm	r0, Z+
    2602:	08 94       	sec
    2604:	07 94       	ror	r0
    2606:	28 f4       	brcc	.+10     	; 0x2612 <__ftoa_engine+0x80>
    2608:	36 0f       	add	r19, r22
    260a:	e7 1e       	adc	r14, r23
    260c:	f8 1e       	adc	r15, r24
    260e:	49 1f       	adc	r20, r25
    2610:	51 1d       	adc	r21, r1
    2612:	66 0f       	add	r22, r22
    2614:	77 1f       	adc	r23, r23
    2616:	88 1f       	adc	r24, r24
    2618:	99 1f       	adc	r25, r25
    261a:	06 94       	lsr	r0
    261c:	a1 f7       	brne	.-24     	; 0x2606 <__ftoa_engine+0x74>
    261e:	05 90       	lpm	r0, Z+
    2620:	07 94       	ror	r0
    2622:	28 f4       	brcc	.+10     	; 0x262e <__ftoa_engine+0x9c>
    2624:	e7 0e       	add	r14, r23
    2626:	f8 1e       	adc	r15, r24
    2628:	49 1f       	adc	r20, r25
    262a:	56 1f       	adc	r21, r22
    262c:	c1 1d       	adc	r28, r1
    262e:	77 0f       	add	r23, r23
    2630:	88 1f       	adc	r24, r24
    2632:	99 1f       	adc	r25, r25
    2634:	66 1f       	adc	r22, r22
    2636:	06 94       	lsr	r0
    2638:	a1 f7       	brne	.-24     	; 0x2622 <__ftoa_engine+0x90>
    263a:	05 90       	lpm	r0, Z+
    263c:	07 94       	ror	r0
    263e:	28 f4       	brcc	.+10     	; 0x264a <__ftoa_engine+0xb8>
    2640:	f8 0e       	add	r15, r24
    2642:	49 1f       	adc	r20, r25
    2644:	56 1f       	adc	r21, r22
    2646:	c7 1f       	adc	r28, r23
    2648:	d1 1d       	adc	r29, r1
    264a:	88 0f       	add	r24, r24
    264c:	99 1f       	adc	r25, r25
    264e:	66 1f       	adc	r22, r22
    2650:	77 1f       	adc	r23, r23
    2652:	06 94       	lsr	r0
    2654:	a1 f7       	brne	.-24     	; 0x263e <__ftoa_engine+0xac>
    2656:	05 90       	lpm	r0, Z+
    2658:	07 94       	ror	r0
    265a:	20 f4       	brcc	.+8      	; 0x2664 <__ftoa_engine+0xd2>
    265c:	49 0f       	add	r20, r25
    265e:	56 1f       	adc	r21, r22
    2660:	c7 1f       	adc	r28, r23
    2662:	d8 1f       	adc	r29, r24
    2664:	99 0f       	add	r25, r25
    2666:	66 1f       	adc	r22, r22
    2668:	77 1f       	adc	r23, r23
    266a:	88 1f       	adc	r24, r24
    266c:	06 94       	lsr	r0
    266e:	a9 f7       	brne	.-22     	; 0x265a <__ftoa_engine+0xc8>
    2670:	84 91       	lpm	r24, Z
    2672:	10 95       	com	r17
    2674:	17 70       	andi	r17, 0x07	; 7
    2676:	41 f0       	breq	.+16     	; 0x2688 <__ftoa_engine+0xf6>
    2678:	d6 95       	lsr	r29
    267a:	c7 95       	ror	r28
    267c:	57 95       	ror	r21
    267e:	47 95       	ror	r20
    2680:	f7 94       	ror	r15
    2682:	e7 94       	ror	r14
    2684:	1a 95       	dec	r17
    2686:	c1 f7       	brne	.-16     	; 0x2678 <__ftoa_engine+0xe6>
    2688:	e5 e0       	ldi	r30, 0x05	; 5
    268a:	f9 e0       	ldi	r31, 0x09	; 9
    268c:	68 94       	set
    268e:	15 90       	lpm	r1, Z+
    2690:	15 91       	lpm	r17, Z+
    2692:	35 91       	lpm	r19, Z+
    2694:	65 91       	lpm	r22, Z+
    2696:	95 91       	lpm	r25, Z+
    2698:	05 90       	lpm	r0, Z+
    269a:	7f e2       	ldi	r23, 0x2F	; 47
    269c:	73 95       	inc	r23
    269e:	e1 18       	sub	r14, r1
    26a0:	f1 0a       	sbc	r15, r17
    26a2:	43 0b       	sbc	r20, r19
    26a4:	56 0b       	sbc	r21, r22
    26a6:	c9 0b       	sbc	r28, r25
    26a8:	d0 09       	sbc	r29, r0
    26aa:	c0 f7       	brcc	.-16     	; 0x269c <__ftoa_engine+0x10a>
    26ac:	e1 0c       	add	r14, r1
    26ae:	f1 1e       	adc	r15, r17
    26b0:	43 1f       	adc	r20, r19
    26b2:	56 1f       	adc	r21, r22
    26b4:	c9 1f       	adc	r28, r25
    26b6:	d0 1d       	adc	r29, r0
    26b8:	7e f4       	brtc	.+30     	; 0x26d8 <__ftoa_engine+0x146>
    26ba:	70 33       	cpi	r23, 0x30	; 48
    26bc:	11 f4       	brne	.+4      	; 0x26c2 <__ftoa_engine+0x130>
    26be:	8a 95       	dec	r24
    26c0:	e6 cf       	rjmp	.-52     	; 0x268e <__ftoa_engine+0xfc>
    26c2:	e8 94       	clt
    26c4:	01 50       	subi	r16, 0x01	; 1
    26c6:	30 f0       	brcs	.+12     	; 0x26d4 <__ftoa_engine+0x142>
    26c8:	08 0f       	add	r16, r24
    26ca:	0a f4       	brpl	.+2      	; 0x26ce <__ftoa_engine+0x13c>
    26cc:	00 27       	eor	r16, r16
    26ce:	02 17       	cp	r16, r18
    26d0:	08 f4       	brcc	.+2      	; 0x26d4 <__ftoa_engine+0x142>
    26d2:	20 2f       	mov	r18, r16
    26d4:	23 95       	inc	r18
    26d6:	02 2f       	mov	r16, r18
    26d8:	7a 33       	cpi	r23, 0x3A	; 58
    26da:	28 f0       	brcs	.+10     	; 0x26e6 <__ftoa_engine+0x154>
    26dc:	79 e3       	ldi	r23, 0x39	; 57
    26de:	7d 93       	st	X+, r23
    26e0:	2a 95       	dec	r18
    26e2:	e9 f7       	brne	.-6      	; 0x26de <__ftoa_engine+0x14c>
    26e4:	10 c0       	rjmp	.+32     	; 0x2706 <__ftoa_engine+0x174>
    26e6:	7d 93       	st	X+, r23
    26e8:	2a 95       	dec	r18
    26ea:	89 f6       	brne	.-94     	; 0x268e <__ftoa_engine+0xfc>
    26ec:	06 94       	lsr	r0
    26ee:	97 95       	ror	r25
    26f0:	67 95       	ror	r22
    26f2:	37 95       	ror	r19
    26f4:	17 95       	ror	r17
    26f6:	17 94       	ror	r1
    26f8:	e1 18       	sub	r14, r1
    26fa:	f1 0a       	sbc	r15, r17
    26fc:	43 0b       	sbc	r20, r19
    26fe:	56 0b       	sbc	r21, r22
    2700:	c9 0b       	sbc	r28, r25
    2702:	d0 09       	sbc	r29, r0
    2704:	98 f0       	brcs	.+38     	; 0x272c <__ftoa_engine+0x19a>
    2706:	23 95       	inc	r18
    2708:	7e 91       	ld	r23, -X
    270a:	73 95       	inc	r23
    270c:	7a 33       	cpi	r23, 0x3A	; 58
    270e:	08 f0       	brcs	.+2      	; 0x2712 <__ftoa_engine+0x180>
    2710:	70 e3       	ldi	r23, 0x30	; 48
    2712:	7c 93       	st	X, r23
    2714:	20 13       	cpse	r18, r16
    2716:	b8 f7       	brcc	.-18     	; 0x2706 <__ftoa_engine+0x174>
    2718:	7e 91       	ld	r23, -X
    271a:	70 61       	ori	r23, 0x10	; 16
    271c:	7d 93       	st	X+, r23
    271e:	30 f0       	brcs	.+12     	; 0x272c <__ftoa_engine+0x19a>
    2720:	83 95       	inc	r24
    2722:	71 e3       	ldi	r23, 0x31	; 49
    2724:	7d 93       	st	X+, r23
    2726:	70 e3       	ldi	r23, 0x30	; 48
    2728:	2a 95       	dec	r18
    272a:	e1 f7       	brne	.-8      	; 0x2724 <__ftoa_engine+0x192>
    272c:	11 24       	eor	r1, r1
    272e:	ef 90       	pop	r14
    2730:	ff 90       	pop	r15
    2732:	0f 91       	pop	r16
    2734:	1f 91       	pop	r17
    2736:	cf 91       	pop	r28
    2738:	df 91       	pop	r29
    273a:	99 27       	eor	r25, r25
    273c:	87 fd       	sbrc	r24, 7
    273e:	90 95       	com	r25
    2740:	08 95       	ret

00002742 <isspace>:
    2742:	91 11       	cpse	r25, r1
    2744:	c2 c1       	rjmp	.+900    	; 0x2aca <__ctype_isfalse>
    2746:	80 32       	cpi	r24, 0x20	; 32
    2748:	19 f0       	breq	.+6      	; 0x2750 <isspace+0xe>
    274a:	89 50       	subi	r24, 0x09	; 9
    274c:	85 50       	subi	r24, 0x05	; 5
    274e:	d0 f7       	brcc	.-12     	; 0x2744 <isspace+0x2>
    2750:	08 95       	ret

00002752 <tolower>:
    2752:	91 11       	cpse	r25, r1
    2754:	08 95       	ret
    2756:	81 54       	subi	r24, 0x41	; 65
    2758:	8a 51       	subi	r24, 0x1A	; 26
    275a:	08 f4       	brcc	.+2      	; 0x275e <tolower+0xc>
    275c:	80 5e       	subi	r24, 0xE0	; 224
    275e:	85 5a       	subi	r24, 0xA5	; 165
    2760:	08 95       	ret

00002762 <strchr_P>:
    2762:	fc 01       	movw	r30, r24
    2764:	05 90       	lpm	r0, Z+
    2766:	06 16       	cp	r0, r22
    2768:	21 f0       	breq	.+8      	; 0x2772 <strchr_P+0x10>
    276a:	00 20       	and	r0, r0
    276c:	d9 f7       	brne	.-10     	; 0x2764 <strchr_P+0x2>
    276e:	c0 01       	movw	r24, r0
    2770:	08 95       	ret
    2772:	31 97       	sbiw	r30, 0x01	; 1
    2774:	cf 01       	movw	r24, r30
    2776:	08 95       	ret

00002778 <strnlen_P>:
    2778:	fc 01       	movw	r30, r24
    277a:	05 90       	lpm	r0, Z+
    277c:	61 50       	subi	r22, 0x01	; 1
    277e:	70 40       	sbci	r23, 0x00	; 0
    2780:	01 10       	cpse	r0, r1
    2782:	d8 f7       	brcc	.-10     	; 0x277a <strnlen_P+0x2>
    2784:	80 95       	com	r24
    2786:	90 95       	com	r25
    2788:	8e 0f       	add	r24, r30
    278a:	9f 1f       	adc	r25, r31
    278c:	08 95       	ret

0000278e <memcmp>:
    278e:	fb 01       	movw	r30, r22
    2790:	dc 01       	movw	r26, r24
    2792:	04 c0       	rjmp	.+8      	; 0x279c <memcmp+0xe>
    2794:	8d 91       	ld	r24, X+
    2796:	01 90       	ld	r0, Z+
    2798:	80 19       	sub	r24, r0
    279a:	21 f4       	brne	.+8      	; 0x27a4 <memcmp+0x16>
    279c:	41 50       	subi	r20, 0x01	; 1
    279e:	50 40       	sbci	r21, 0x00	; 0
    27a0:	c8 f7       	brcc	.-14     	; 0x2794 <memcmp+0x6>
    27a2:	88 1b       	sub	r24, r24
    27a4:	99 0b       	sbc	r25, r25
    27a6:	08 95       	ret

000027a8 <memcpy>:
    27a8:	fb 01       	movw	r30, r22
    27aa:	dc 01       	movw	r26, r24
    27ac:	02 c0       	rjmp	.+4      	; 0x27b2 <memcpy+0xa>
    27ae:	01 90       	ld	r0, Z+
    27b0:	0d 92       	st	X+, r0
    27b2:	41 50       	subi	r20, 0x01	; 1
    27b4:	50 40       	sbci	r21, 0x00	; 0
    27b6:	d8 f7       	brcc	.-10     	; 0x27ae <memcpy+0x6>
    27b8:	08 95       	ret

000027ba <strncmp>:
    27ba:	fb 01       	movw	r30, r22
    27bc:	dc 01       	movw	r26, r24
    27be:	41 50       	subi	r20, 0x01	; 1
    27c0:	50 40       	sbci	r21, 0x00	; 0
    27c2:	30 f0       	brcs	.+12     	; 0x27d0 <strncmp+0x16>
    27c4:	8d 91       	ld	r24, X+
    27c6:	01 90       	ld	r0, Z+
    27c8:	80 19       	sub	r24, r0
    27ca:	19 f4       	brne	.+6      	; 0x27d2 <strncmp+0x18>
    27cc:	00 20       	and	r0, r0
    27ce:	b9 f7       	brne	.-18     	; 0x27be <strncmp+0x4>
    27d0:	88 1b       	sub	r24, r24
    27d2:	99 0b       	sbc	r25, r25
    27d4:	08 95       	ret

000027d6 <strnlen>:
    27d6:	fc 01       	movw	r30, r24
    27d8:	61 50       	subi	r22, 0x01	; 1
    27da:	70 40       	sbci	r23, 0x00	; 0
    27dc:	01 90       	ld	r0, Z+
    27de:	01 10       	cpse	r0, r1
    27e0:	d8 f7       	brcc	.-10     	; 0x27d8 <strnlen+0x2>
    27e2:	80 95       	com	r24
    27e4:	90 95       	com	r25
    27e6:	8e 0f       	add	r24, r30
    27e8:	9f 1f       	adc	r25, r31
    27ea:	08 95       	ret

000027ec <fgetc>:
    27ec:	cf 93       	push	r28
    27ee:	df 93       	push	r29
    27f0:	ec 01       	movw	r28, r24
    27f2:	2b 81       	ldd	r18, Y+3	; 0x03
    27f4:	20 ff       	sbrs	r18, 0
    27f6:	33 c0       	rjmp	.+102    	; 0x285e <fgetc+0x72>
    27f8:	26 ff       	sbrs	r18, 6
    27fa:	0a c0       	rjmp	.+20     	; 0x2810 <fgetc+0x24>
    27fc:	2f 7b       	andi	r18, 0xBF	; 191
    27fe:	2b 83       	std	Y+3, r18	; 0x03
    2800:	8e 81       	ldd	r24, Y+6	; 0x06
    2802:	9f 81       	ldd	r25, Y+7	; 0x07
    2804:	01 96       	adiw	r24, 0x01	; 1
    2806:	9f 83       	std	Y+7, r25	; 0x07
    2808:	8e 83       	std	Y+6, r24	; 0x06
    280a:	8a 81       	ldd	r24, Y+2	; 0x02
    280c:	90 e0       	ldi	r25, 0x00	; 0
    280e:	29 c0       	rjmp	.+82     	; 0x2862 <fgetc+0x76>
    2810:	22 ff       	sbrs	r18, 2
    2812:	0f c0       	rjmp	.+30     	; 0x2832 <fgetc+0x46>
    2814:	e8 81       	ld	r30, Y
    2816:	f9 81       	ldd	r31, Y+1	; 0x01
    2818:	80 81       	ld	r24, Z
    281a:	99 27       	eor	r25, r25
    281c:	87 fd       	sbrc	r24, 7
    281e:	90 95       	com	r25
    2820:	00 97       	sbiw	r24, 0x00	; 0
    2822:	19 f4       	brne	.+6      	; 0x282a <fgetc+0x3e>
    2824:	20 62       	ori	r18, 0x20	; 32
    2826:	2b 83       	std	Y+3, r18	; 0x03
    2828:	1a c0       	rjmp	.+52     	; 0x285e <fgetc+0x72>
    282a:	31 96       	adiw	r30, 0x01	; 1
    282c:	f9 83       	std	Y+1, r31	; 0x01
    282e:	e8 83       	st	Y, r30
    2830:	0e c0       	rjmp	.+28     	; 0x284e <fgetc+0x62>
    2832:	ea 85       	ldd	r30, Y+10	; 0x0a
    2834:	fb 85       	ldd	r31, Y+11	; 0x0b
    2836:	09 95       	icall
    2838:	97 ff       	sbrs	r25, 7
    283a:	09 c0       	rjmp	.+18     	; 0x284e <fgetc+0x62>
    283c:	2b 81       	ldd	r18, Y+3	; 0x03
    283e:	01 96       	adiw	r24, 0x01	; 1
    2840:	11 f0       	breq	.+4      	; 0x2846 <fgetc+0x5a>
    2842:	80 e2       	ldi	r24, 0x20	; 32
    2844:	01 c0       	rjmp	.+2      	; 0x2848 <fgetc+0x5c>
    2846:	80 e1       	ldi	r24, 0x10	; 16
    2848:	82 2b       	or	r24, r18
    284a:	8b 83       	std	Y+3, r24	; 0x03
    284c:	08 c0       	rjmp	.+16     	; 0x285e <fgetc+0x72>
    284e:	2e 81       	ldd	r18, Y+6	; 0x06
    2850:	3f 81       	ldd	r19, Y+7	; 0x07
    2852:	2f 5f       	subi	r18, 0xFF	; 255
    2854:	3f 4f       	sbci	r19, 0xFF	; 255
    2856:	3f 83       	std	Y+7, r19	; 0x07
    2858:	2e 83       	std	Y+6, r18	; 0x06
    285a:	99 27       	eor	r25, r25
    285c:	02 c0       	rjmp	.+4      	; 0x2862 <fgetc+0x76>
    285e:	8f ef       	ldi	r24, 0xFF	; 255
    2860:	9f ef       	ldi	r25, 0xFF	; 255
    2862:	df 91       	pop	r29
    2864:	cf 91       	pop	r28
    2866:	08 95       	ret

00002868 <fputc>:
    2868:	0f 93       	push	r16
    286a:	1f 93       	push	r17
    286c:	cf 93       	push	r28
    286e:	df 93       	push	r29
    2870:	fb 01       	movw	r30, r22
    2872:	23 81       	ldd	r18, Z+3	; 0x03
    2874:	21 fd       	sbrc	r18, 1
    2876:	03 c0       	rjmp	.+6      	; 0x287e <fputc+0x16>
    2878:	8f ef       	ldi	r24, 0xFF	; 255
    287a:	9f ef       	ldi	r25, 0xFF	; 255
    287c:	28 c0       	rjmp	.+80     	; 0x28ce <fputc+0x66>
    287e:	22 ff       	sbrs	r18, 2
    2880:	16 c0       	rjmp	.+44     	; 0x28ae <fputc+0x46>
    2882:	46 81       	ldd	r20, Z+6	; 0x06
    2884:	57 81       	ldd	r21, Z+7	; 0x07
    2886:	24 81       	ldd	r18, Z+4	; 0x04
    2888:	35 81       	ldd	r19, Z+5	; 0x05
    288a:	42 17       	cp	r20, r18
    288c:	53 07       	cpc	r21, r19
    288e:	44 f4       	brge	.+16     	; 0x28a0 <fputc+0x38>
    2890:	a0 81       	ld	r26, Z
    2892:	b1 81       	ldd	r27, Z+1	; 0x01
    2894:	9d 01       	movw	r18, r26
    2896:	2f 5f       	subi	r18, 0xFF	; 255
    2898:	3f 4f       	sbci	r19, 0xFF	; 255
    289a:	31 83       	std	Z+1, r19	; 0x01
    289c:	20 83       	st	Z, r18
    289e:	8c 93       	st	X, r24
    28a0:	26 81       	ldd	r18, Z+6	; 0x06
    28a2:	37 81       	ldd	r19, Z+7	; 0x07
    28a4:	2f 5f       	subi	r18, 0xFF	; 255
    28a6:	3f 4f       	sbci	r19, 0xFF	; 255
    28a8:	37 83       	std	Z+7, r19	; 0x07
    28aa:	26 83       	std	Z+6, r18	; 0x06
    28ac:	10 c0       	rjmp	.+32     	; 0x28ce <fputc+0x66>
    28ae:	eb 01       	movw	r28, r22
    28b0:	09 2f       	mov	r16, r25
    28b2:	18 2f       	mov	r17, r24
    28b4:	00 84       	ldd	r0, Z+8	; 0x08
    28b6:	f1 85       	ldd	r31, Z+9	; 0x09
    28b8:	e0 2d       	mov	r30, r0
    28ba:	09 95       	icall
    28bc:	89 2b       	or	r24, r25
    28be:	e1 f6       	brne	.-72     	; 0x2878 <fputc+0x10>
    28c0:	8e 81       	ldd	r24, Y+6	; 0x06
    28c2:	9f 81       	ldd	r25, Y+7	; 0x07
    28c4:	01 96       	adiw	r24, 0x01	; 1
    28c6:	9f 83       	std	Y+7, r25	; 0x07
    28c8:	8e 83       	std	Y+6, r24	; 0x06
    28ca:	81 2f       	mov	r24, r17
    28cc:	90 2f       	mov	r25, r16
    28ce:	df 91       	pop	r29
    28d0:	cf 91       	pop	r28
    28d2:	1f 91       	pop	r17
    28d4:	0f 91       	pop	r16
    28d6:	08 95       	ret

000028d8 <snprintf>:
    28d8:	ae e0       	ldi	r26, 0x0E	; 14
    28da:	b0 e0       	ldi	r27, 0x00	; 0
    28dc:	e2 e7       	ldi	r30, 0x72	; 114
    28de:	f4 e1       	ldi	r31, 0x14	; 20
    28e0:	0c 94 a7 0f 	jmp	0x1f4e	; 0x1f4e <__prologue_saves__+0x1c>
    28e4:	0d 89       	ldd	r16, Y+21	; 0x15
    28e6:	1e 89       	ldd	r17, Y+22	; 0x16
    28e8:	8f 89       	ldd	r24, Y+23	; 0x17
    28ea:	98 8d       	ldd	r25, Y+24	; 0x18
    28ec:	26 e0       	ldi	r18, 0x06	; 6
    28ee:	2c 83       	std	Y+4, r18	; 0x04
    28f0:	1a 83       	std	Y+2, r17	; 0x02
    28f2:	09 83       	std	Y+1, r16	; 0x01
    28f4:	97 ff       	sbrs	r25, 7
    28f6:	02 c0       	rjmp	.+4      	; 0x28fc <snprintf+0x24>
    28f8:	80 e0       	ldi	r24, 0x00	; 0
    28fa:	90 e8       	ldi	r25, 0x80	; 128
    28fc:	01 97       	sbiw	r24, 0x01	; 1
    28fe:	9e 83       	std	Y+6, r25	; 0x06
    2900:	8d 83       	std	Y+5, r24	; 0x05
    2902:	ae 01       	movw	r20, r28
    2904:	45 5e       	subi	r20, 0xE5	; 229
    2906:	5f 4f       	sbci	r21, 0xFF	; 255
    2908:	69 8d       	ldd	r22, Y+25	; 0x19
    290a:	7a 8d       	ldd	r23, Y+26	; 0x1a
    290c:	ce 01       	movw	r24, r28
    290e:	01 96       	adiw	r24, 0x01	; 1
    2910:	0e 94 e7 07 	call	0xfce	; 0xfce <vfprintf>
    2914:	4d 81       	ldd	r20, Y+5	; 0x05
    2916:	5e 81       	ldd	r21, Y+6	; 0x06
    2918:	57 fd       	sbrc	r21, 7
    291a:	0a c0       	rjmp	.+20     	; 0x2930 <snprintf+0x58>
    291c:	2f 81       	ldd	r18, Y+7	; 0x07
    291e:	38 85       	ldd	r19, Y+8	; 0x08
    2920:	42 17       	cp	r20, r18
    2922:	53 07       	cpc	r21, r19
    2924:	0c f4       	brge	.+2      	; 0x2928 <snprintf+0x50>
    2926:	9a 01       	movw	r18, r20
    2928:	f8 01       	movw	r30, r16
    292a:	e2 0f       	add	r30, r18
    292c:	f3 1f       	adc	r31, r19
    292e:	10 82       	st	Z, r1
    2930:	2e 96       	adiw	r28, 0x0e	; 14
    2932:	e4 e0       	ldi	r30, 0x04	; 4
    2934:	0c 94 c3 0f 	jmp	0x1f86	; 0x1f86 <__epilogue_restores__+0x1c>

00002938 <sprintf>:
    2938:	ae e0       	ldi	r26, 0x0E	; 14
    293a:	b0 e0       	ldi	r27, 0x00	; 0
    293c:	e2 ea       	ldi	r30, 0xA2	; 162
    293e:	f4 e1       	ldi	r31, 0x14	; 20
    2940:	0c 94 a7 0f 	jmp	0x1f4e	; 0x1f4e <__prologue_saves__+0x1c>
    2944:	0d 89       	ldd	r16, Y+21	; 0x15
    2946:	1e 89       	ldd	r17, Y+22	; 0x16
    2948:	86 e0       	ldi	r24, 0x06	; 6
    294a:	8c 83       	std	Y+4, r24	; 0x04
    294c:	1a 83       	std	Y+2, r17	; 0x02
    294e:	09 83       	std	Y+1, r16	; 0x01
    2950:	8f ef       	ldi	r24, 0xFF	; 255
    2952:	9f e7       	ldi	r25, 0x7F	; 127
    2954:	9e 83       	std	Y+6, r25	; 0x06
    2956:	8d 83       	std	Y+5, r24	; 0x05
    2958:	ae 01       	movw	r20, r28
    295a:	47 5e       	subi	r20, 0xE7	; 231
    295c:	5f 4f       	sbci	r21, 0xFF	; 255
    295e:	6f 89       	ldd	r22, Y+23	; 0x17
    2960:	78 8d       	ldd	r23, Y+24	; 0x18
    2962:	ce 01       	movw	r24, r28
    2964:	01 96       	adiw	r24, 0x01	; 1
    2966:	0e 94 e7 07 	call	0xfce	; 0xfce <vfprintf>
    296a:	2f 81       	ldd	r18, Y+7	; 0x07
    296c:	38 85       	ldd	r19, Y+8	; 0x08
    296e:	f8 01       	movw	r30, r16
    2970:	e2 0f       	add	r30, r18
    2972:	f3 1f       	adc	r31, r19
    2974:	10 82       	st	Z, r1
    2976:	2e 96       	adiw	r28, 0x0e	; 14
    2978:	e4 e0       	ldi	r30, 0x04	; 4
    297a:	0c 94 c3 0f 	jmp	0x1f86	; 0x1f86 <__epilogue_restores__+0x1c>

0000297e <sscanf>:
    297e:	ae e0       	ldi	r26, 0x0E	; 14
    2980:	b0 e0       	ldi	r27, 0x00	; 0
    2982:	e5 ec       	ldi	r30, 0xC5	; 197
    2984:	f4 e1       	ldi	r31, 0x14	; 20
    2986:	0c 94 a9 0f 	jmp	0x1f52	; 0x1f52 <__prologue_saves__+0x20>
    298a:	85 e0       	ldi	r24, 0x05	; 5
    298c:	8c 83       	std	Y+4, r24	; 0x04
    298e:	8b 89       	ldd	r24, Y+19	; 0x13
    2990:	9c 89       	ldd	r25, Y+20	; 0x14
    2992:	9a 83       	std	Y+2, r25	; 0x02
    2994:	89 83       	std	Y+1, r24	; 0x01
    2996:	ae 01       	movw	r20, r28
    2998:	49 5e       	subi	r20, 0xE9	; 233
    299a:	5f 4f       	sbci	r21, 0xFF	; 255
    299c:	6d 89       	ldd	r22, Y+21	; 0x15
    299e:	7e 89       	ldd	r23, Y+22	; 0x16
    29a0:	ce 01       	movw	r24, r28
    29a2:	01 96       	adiw	r24, 0x01	; 1
    29a4:	0e 94 29 0e 	call	0x1c52	; 0x1c52 <vfscanf>
    29a8:	2e 96       	adiw	r28, 0x0e	; 14
    29aa:	e2 e0       	ldi	r30, 0x02	; 2
    29ac:	0c 94 c5 0f 	jmp	0x1f8a	; 0x1f8a <__epilogue_restores__+0x20>

000029b0 <ungetc>:
    29b0:	fb 01       	movw	r30, r22
    29b2:	23 81       	ldd	r18, Z+3	; 0x03
    29b4:	20 ff       	sbrs	r18, 0
    29b6:	12 c0       	rjmp	.+36     	; 0x29dc <ungetc+0x2c>
    29b8:	26 fd       	sbrc	r18, 6
    29ba:	10 c0       	rjmp	.+32     	; 0x29dc <ungetc+0x2c>
    29bc:	8f 3f       	cpi	r24, 0xFF	; 255
    29be:	3f ef       	ldi	r19, 0xFF	; 255
    29c0:	93 07       	cpc	r25, r19
    29c2:	61 f0       	breq	.+24     	; 0x29dc <ungetc+0x2c>
    29c4:	82 83       	std	Z+2, r24	; 0x02
    29c6:	2f 7d       	andi	r18, 0xDF	; 223
    29c8:	20 64       	ori	r18, 0x40	; 64
    29ca:	23 83       	std	Z+3, r18	; 0x03
    29cc:	26 81       	ldd	r18, Z+6	; 0x06
    29ce:	37 81       	ldd	r19, Z+7	; 0x07
    29d0:	21 50       	subi	r18, 0x01	; 1
    29d2:	31 09       	sbc	r19, r1
    29d4:	37 83       	std	Z+7, r19	; 0x07
    29d6:	26 83       	std	Z+6, r18	; 0x06
    29d8:	99 27       	eor	r25, r25
    29da:	08 95       	ret
    29dc:	8f ef       	ldi	r24, 0xFF	; 255
    29de:	9f ef       	ldi	r25, 0xFF	; 255
    29e0:	08 95       	ret

000029e2 <__ultoa_invert>:
    29e2:	fa 01       	movw	r30, r20
    29e4:	aa 27       	eor	r26, r26
    29e6:	28 30       	cpi	r18, 0x08	; 8
    29e8:	51 f1       	breq	.+84     	; 0x2a3e <__ultoa_invert+0x5c>
    29ea:	20 31       	cpi	r18, 0x10	; 16
    29ec:	81 f1       	breq	.+96     	; 0x2a4e <__ultoa_invert+0x6c>
    29ee:	e8 94       	clt
    29f0:	6f 93       	push	r22
    29f2:	6e 7f       	andi	r22, 0xFE	; 254
    29f4:	6e 5f       	subi	r22, 0xFE	; 254
    29f6:	7f 4f       	sbci	r23, 0xFF	; 255
    29f8:	8f 4f       	sbci	r24, 0xFF	; 255
    29fa:	9f 4f       	sbci	r25, 0xFF	; 255
    29fc:	af 4f       	sbci	r26, 0xFF	; 255
    29fe:	b1 e0       	ldi	r27, 0x01	; 1
    2a00:	3e d0       	rcall	.+124    	; 0x2a7e <__ultoa_invert+0x9c>
    2a02:	b4 e0       	ldi	r27, 0x04	; 4
    2a04:	3c d0       	rcall	.+120    	; 0x2a7e <__ultoa_invert+0x9c>
    2a06:	67 0f       	add	r22, r23
    2a08:	78 1f       	adc	r23, r24
    2a0a:	89 1f       	adc	r24, r25
    2a0c:	9a 1f       	adc	r25, r26
    2a0e:	a1 1d       	adc	r26, r1
    2a10:	68 0f       	add	r22, r24
    2a12:	79 1f       	adc	r23, r25
    2a14:	8a 1f       	adc	r24, r26
    2a16:	91 1d       	adc	r25, r1
    2a18:	a1 1d       	adc	r26, r1
    2a1a:	6a 0f       	add	r22, r26
    2a1c:	71 1d       	adc	r23, r1
    2a1e:	81 1d       	adc	r24, r1
    2a20:	91 1d       	adc	r25, r1
    2a22:	a1 1d       	adc	r26, r1
    2a24:	20 d0       	rcall	.+64     	; 0x2a66 <__ultoa_invert+0x84>
    2a26:	09 f4       	brne	.+2      	; 0x2a2a <__ultoa_invert+0x48>
    2a28:	68 94       	set
    2a2a:	3f 91       	pop	r19
    2a2c:	2a e0       	ldi	r18, 0x0A	; 10
    2a2e:	26 9f       	mul	r18, r22
    2a30:	11 24       	eor	r1, r1
    2a32:	30 19       	sub	r19, r0
    2a34:	30 5d       	subi	r19, 0xD0	; 208
    2a36:	31 93       	st	Z+, r19
    2a38:	de f6       	brtc	.-74     	; 0x29f0 <__ultoa_invert+0xe>
    2a3a:	cf 01       	movw	r24, r30
    2a3c:	08 95       	ret
    2a3e:	46 2f       	mov	r20, r22
    2a40:	47 70       	andi	r20, 0x07	; 7
    2a42:	40 5d       	subi	r20, 0xD0	; 208
    2a44:	41 93       	st	Z+, r20
    2a46:	b3 e0       	ldi	r27, 0x03	; 3
    2a48:	0f d0       	rcall	.+30     	; 0x2a68 <__ultoa_invert+0x86>
    2a4a:	c9 f7       	brne	.-14     	; 0x2a3e <__ultoa_invert+0x5c>
    2a4c:	f6 cf       	rjmp	.-20     	; 0x2a3a <__ultoa_invert+0x58>
    2a4e:	46 2f       	mov	r20, r22
    2a50:	4f 70       	andi	r20, 0x0F	; 15
    2a52:	40 5d       	subi	r20, 0xD0	; 208
    2a54:	4a 33       	cpi	r20, 0x3A	; 58
    2a56:	18 f0       	brcs	.+6      	; 0x2a5e <__ultoa_invert+0x7c>
    2a58:	49 5d       	subi	r20, 0xD9	; 217
    2a5a:	31 fd       	sbrc	r19, 1
    2a5c:	40 52       	subi	r20, 0x20	; 32
    2a5e:	41 93       	st	Z+, r20
    2a60:	02 d0       	rcall	.+4      	; 0x2a66 <__ultoa_invert+0x84>
    2a62:	a9 f7       	brne	.-22     	; 0x2a4e <__ultoa_invert+0x6c>
    2a64:	ea cf       	rjmp	.-44     	; 0x2a3a <__ultoa_invert+0x58>
    2a66:	b4 e0       	ldi	r27, 0x04	; 4
    2a68:	a6 95       	lsr	r26
    2a6a:	97 95       	ror	r25
    2a6c:	87 95       	ror	r24
    2a6e:	77 95       	ror	r23
    2a70:	67 95       	ror	r22
    2a72:	ba 95       	dec	r27
    2a74:	c9 f7       	brne	.-14     	; 0x2a68 <__ultoa_invert+0x86>
    2a76:	00 97       	sbiw	r24, 0x00	; 0
    2a78:	61 05       	cpc	r22, r1
    2a7a:	71 05       	cpc	r23, r1
    2a7c:	08 95       	ret
    2a7e:	9b 01       	movw	r18, r22
    2a80:	ac 01       	movw	r20, r24
    2a82:	0a 2e       	mov	r0, r26
    2a84:	06 94       	lsr	r0
    2a86:	57 95       	ror	r21
    2a88:	47 95       	ror	r20
    2a8a:	37 95       	ror	r19
    2a8c:	27 95       	ror	r18
    2a8e:	ba 95       	dec	r27
    2a90:	c9 f7       	brne	.-14     	; 0x2a84 <__ultoa_invert+0xa2>
    2a92:	62 0f       	add	r22, r18
    2a94:	73 1f       	adc	r23, r19
    2a96:	84 1f       	adc	r24, r20
    2a98:	95 1f       	adc	r25, r21
    2a9a:	a0 1d       	adc	r26, r0
    2a9c:	08 95       	ret

00002a9e <__eerd_byte_m328p>:
    2a9e:	f9 99       	sbic	0x1f, 1	; 31
    2aa0:	fe cf       	rjmp	.-4      	; 0x2a9e <__eerd_byte_m328p>
    2aa2:	92 bd       	out	0x22, r25	; 34
    2aa4:	81 bd       	out	0x21, r24	; 33
    2aa6:	f8 9a       	sbi	0x1f, 0	; 31
    2aa8:	99 27       	eor	r25, r25
    2aaa:	80 b5       	in	r24, 0x20	; 32
    2aac:	08 95       	ret

00002aae <__eewr_byte_m328p>:
    2aae:	26 2f       	mov	r18, r22

00002ab0 <__eewr_r18_m328p>:
    2ab0:	f9 99       	sbic	0x1f, 1	; 31
    2ab2:	fe cf       	rjmp	.-4      	; 0x2ab0 <__eewr_r18_m328p>
    2ab4:	1f ba       	out	0x1f, r1	; 31
    2ab6:	92 bd       	out	0x22, r25	; 34
    2ab8:	81 bd       	out	0x21, r24	; 33
    2aba:	20 bd       	out	0x20, r18	; 32
    2abc:	0f b6       	in	r0, 0x3f	; 63
    2abe:	f8 94       	cli
    2ac0:	fa 9a       	sbi	0x1f, 2	; 31
    2ac2:	f9 9a       	sbi	0x1f, 1	; 31
    2ac4:	0f be       	out	0x3f, r0	; 63
    2ac6:	01 96       	adiw	r24, 0x01	; 1
    2ac8:	08 95       	ret

00002aca <__ctype_isfalse>:
    2aca:	99 27       	eor	r25, r25
    2acc:	88 27       	eor	r24, r24

00002ace <__ctype_istrue>:
    2ace:	08 95       	ret

00002ad0 <_exit>:
    2ad0:	f8 94       	cli

00002ad2 <__stop_program>:
    2ad2:	ff cf       	rjmp	.-2      	; 0x2ad2 <__stop_program>

Disassembly of section .df4iah_fw_main:

00003000 <__vector_6>:
    3000:	18 95       	reti

00003002 <main_fw_calcTimerToFloat>:
    3002:	cf 92       	push	r12
    3004:	df 92       	push	r13
    3006:	ef 92       	push	r14
    3008:	ff 92       	push	r15
    300a:	cf 93       	push	r28
    300c:	c6 2f       	mov	r28, r22
    300e:	68 2f       	mov	r22, r24
    3010:	70 e0       	ldi	r23, 0x00	; 0
    3012:	80 e0       	ldi	r24, 0x00	; 0
    3014:	90 e0       	ldi	r25, 0x00	; 0
    3016:	0e 94 ef 10 	call	0x21de	; 0x21de <__floatsisf>
    301a:	6b 01       	movw	r12, r22
    301c:	7c 01       	movw	r14, r24
    301e:	6c 2f       	mov	r22, r28
    3020:	70 e0       	ldi	r23, 0x00	; 0
    3022:	80 e0       	ldi	r24, 0x00	; 0
    3024:	90 e0       	ldi	r25, 0x00	; 0
    3026:	0e 94 ef 10 	call	0x21de	; 0x21de <__floatsisf>
    302a:	20 e0       	ldi	r18, 0x00	; 0
    302c:	30 e0       	ldi	r19, 0x00	; 0
    302e:	40 e8       	ldi	r20, 0x80	; 128
    3030:	5b e3       	ldi	r21, 0x3B	; 59
    3032:	0e 94 41 12 	call	0x2482	; 0x2482 <__mulsf3>
    3036:	9b 01       	movw	r18, r22
    3038:	ac 01       	movw	r20, r24
    303a:	c7 01       	movw	r24, r14
    303c:	b6 01       	movw	r22, r12
    303e:	0e 94 f1 0f 	call	0x1fe2	; 0x1fe2 <__addsf3>
    3042:	cf 91       	pop	r28
    3044:	ff 90       	pop	r15
    3046:	ef 90       	pop	r14
    3048:	df 90       	pop	r13
    304a:	cf 90       	pop	r12
    304c:	08 95       	ret

0000304e <calcTimerAdj>:
    304e:	8f 92       	push	r8
    3050:	9f 92       	push	r9
    3052:	af 92       	push	r10
    3054:	bf 92       	push	r11
    3056:	cf 92       	push	r12
    3058:	df 92       	push	r13
    305a:	ef 92       	push	r14
    305c:	ff 92       	push	r15
    305e:	cf 93       	push	r28
    3060:	df 93       	push	r29
    3062:	ec 01       	movw	r28, r24
    3064:	69 01       	movw	r12, r18
    3066:	7a 01       	movw	r14, r20
    3068:	70 e0       	ldi	r23, 0x00	; 0
    306a:	80 e0       	ldi	r24, 0x00	; 0
    306c:	90 e0       	ldi	r25, 0x00	; 0
    306e:	0e 94 ef 10 	call	0x21de	; 0x21de <__floatsisf>
    3072:	4b 01       	movw	r8, r22
    3074:	5c 01       	movw	r10, r24
    3076:	88 81       	ld	r24, Y
    3078:	68 2f       	mov	r22, r24
    307a:	70 e0       	ldi	r23, 0x00	; 0
    307c:	80 e0       	ldi	r24, 0x00	; 0
    307e:	90 e0       	ldi	r25, 0x00	; 0
    3080:	0e 94 ef 10 	call	0x21de	; 0x21de <__floatsisf>
    3084:	20 e0       	ldi	r18, 0x00	; 0
    3086:	30 e0       	ldi	r19, 0x00	; 0
    3088:	40 e8       	ldi	r20, 0x80	; 128
    308a:	5b e3       	ldi	r21, 0x3B	; 59
    308c:	0e 94 41 12 	call	0x2482	; 0x2482 <__mulsf3>
    3090:	9b 01       	movw	r18, r22
    3092:	ac 01       	movw	r20, r24
    3094:	c5 01       	movw	r24, r10
    3096:	b4 01       	movw	r22, r8
    3098:	0e 94 f1 0f 	call	0x1fe2	; 0x1fe2 <__addsf3>
    309c:	9b 01       	movw	r18, r22
    309e:	ac 01       	movw	r20, r24
    30a0:	c7 01       	movw	r24, r14
    30a2:	b6 01       	movw	r22, r12
    30a4:	0e 94 f1 0f 	call	0x1fe2	; 0x1fe2 <__addsf3>
    30a8:	6b 01       	movw	r12, r22
    30aa:	7c 01       	movw	r14, r24
    30ac:	20 e0       	ldi	r18, 0x00	; 0
    30ae:	30 e0       	ldi	r19, 0x00	; 0
    30b0:	a9 01       	movw	r20, r18
    30b2:	0e 94 55 10 	call	0x20aa	; 0x20aa <__cmpsf2>
    30b6:	87 fd       	sbrc	r24, 7
    30b8:	12 c0       	rjmp	.+36     	; 0x30de <calcTimerAdj+0x90>
    30ba:	20 e0       	ldi	r18, 0x00	; 0
    30bc:	38 ef       	ldi	r19, 0xF8	; 248
    30be:	4f e7       	ldi	r20, 0x7F	; 127
    30c0:	53 e4       	ldi	r21, 0x43	; 67
    30c2:	c7 01       	movw	r24, r14
    30c4:	b6 01       	movw	r22, r12
    30c6:	0e 94 f2 11 	call	0x23e4	; 0x23e4 <__gesf2>
    30ca:	18 16       	cp	r1, r24
    30cc:	5c f4       	brge	.+22     	; 0x30e4 <calcTimerAdj+0x96>
    30ce:	c1 2c       	mov	r12, r1
    30d0:	88 ef       	ldi	r24, 0xF8	; 248
    30d2:	d8 2e       	mov	r13, r24
    30d4:	8f e7       	ldi	r24, 0x7F	; 127
    30d6:	e8 2e       	mov	r14, r24
    30d8:	83 e4       	ldi	r24, 0x43	; 67
    30da:	f8 2e       	mov	r15, r24
    30dc:	03 c0       	rjmp	.+6      	; 0x30e4 <calcTimerAdj+0x96>
    30de:	c1 2c       	mov	r12, r1
    30e0:	d1 2c       	mov	r13, r1
    30e2:	76 01       	movw	r14, r12
    30e4:	20 e0       	ldi	r18, 0x00	; 0
    30e6:	30 e0       	ldi	r19, 0x00	; 0
    30e8:	40 e0       	ldi	r20, 0x00	; 0
    30ea:	5b e3       	ldi	r21, 0x3B	; 59
    30ec:	c7 01       	movw	r24, r14
    30ee:	b6 01       	movw	r22, r12
    30f0:	0e 94 f1 0f 	call	0x1fe2	; 0x1fe2 <__addsf3>
    30f4:	6b 01       	movw	r12, r22
    30f6:	7c 01       	movw	r14, r24
    30f8:	0e 94 2a 11 	call	0x2254	; 0x2254 <floor>
    30fc:	9b 01       	movw	r18, r22
    30fe:	ac 01       	movw	r20, r24
    3100:	c7 01       	movw	r24, r14
    3102:	b6 01       	movw	r22, r12
    3104:	0e 94 f0 0f 	call	0x1fe0	; 0x1fe0 <__subsf3>
    3108:	20 e0       	ldi	r18, 0x00	; 0
    310a:	30 e0       	ldi	r19, 0x00	; 0
    310c:	40 e8       	ldi	r20, 0x80	; 128
    310e:	53 e4       	ldi	r21, 0x43	; 67
    3110:	0e 94 41 12 	call	0x2482	; 0x2482 <__mulsf3>
    3114:	0e 94 c1 10 	call	0x2182	; 0x2182 <__fixunssfsi>
    3118:	68 83       	st	Y, r22
    311a:	c7 01       	movw	r24, r14
    311c:	b6 01       	movw	r22, r12
    311e:	0e 94 c1 10 	call	0x2182	; 0x2182 <__fixunssfsi>
    3122:	86 2f       	mov	r24, r22
    3124:	df 91       	pop	r29
    3126:	cf 91       	pop	r28
    3128:	ff 90       	pop	r15
    312a:	ef 90       	pop	r14
    312c:	df 90       	pop	r13
    312e:	cf 90       	pop	r12
    3130:	bf 90       	pop	r11
    3132:	af 90       	pop	r10
    3134:	9f 90       	pop	r9
    3136:	8f 90       	pop	r8
    3138:	08 95       	ret

0000313a <main_fw_calcPwmWghtDiff>:
    313a:	cf 92       	push	r12
    313c:	df 92       	push	r13
    313e:	ef 92       	push	r14
    3140:	ff 92       	push	r15
    3142:	6b 01       	movw	r12, r22
    3144:	7c 01       	movw	r14, r24
    3146:	20 e0       	ldi	r18, 0x00	; 0
    3148:	30 e0       	ldi	r19, 0x00	; 0
    314a:	a9 01       	movw	r20, r18
    314c:	0e 94 f2 11 	call	0x23e4	; 0x23e4 <__gesf2>
    3150:	87 ff       	sbrs	r24, 7
    3152:	04 c0       	rjmp	.+8      	; 0x315c <main_fw_calcPwmWghtDiff+0x22>
    3154:	c7 01       	movw	r24, r14
    3156:	b6 01       	movw	r22, r12
    3158:	90 58       	subi	r25, 0x80	; 128
    315a:	02 c0       	rjmp	.+4      	; 0x3160 <main_fw_calcPwmWghtDiff+0x26>
    315c:	c7 01       	movw	r24, r14
    315e:	b6 01       	movw	r22, r12
    3160:	20 e0       	ldi	r18, 0x00	; 0
    3162:	30 e0       	ldi	r19, 0x00	; 0
    3164:	40 e2       	ldi	r20, 0x20	; 32
    3166:	51 e4       	ldi	r21, 0x41	; 65
    3168:	0e 94 f1 0f 	call	0x1fe2	; 0x1fe2 <__addsf3>
    316c:	0e 94 f6 11 	call	0x23ec	; 0x23ec <log10>
    3170:	20 e0       	ldi	r18, 0x00	; 0
    3172:	30 e0       	ldi	r19, 0x00	; 0
    3174:	40 e0       	ldi	r20, 0x00	; 0
    3176:	5f e3       	ldi	r21, 0x3F	; 63
    3178:	0e 94 41 12 	call	0x2482	; 0x2482 <__mulsf3>
    317c:	9b 01       	movw	r18, r22
    317e:	ac 01       	movw	r20, r24
    3180:	c7 01       	movw	r24, r14
    3182:	b6 01       	movw	r22, r12
    3184:	0e 94 41 12 	call	0x2482	; 0x2482 <__mulsf3>
    3188:	2f e8       	ldi	r18, 0x8F	; 143
    318a:	32 ec       	ldi	r19, 0xC2	; 194
    318c:	45 e3       	ldi	r20, 0x35	; 53
    318e:	5f e3       	ldi	r21, 0x3F	; 63
    3190:	0e 94 41 12 	call	0x2482	; 0x2482 <__mulsf3>
    3194:	ff 90       	pop	r15
    3196:	ef 90       	pop	r14
    3198:	df 90       	pop	r13
    319a:	cf 90       	pop	r12
    319c:	08 95       	ret

0000319e <main_fw_calcPwmWghtAvg>:
    319e:	4f 92       	push	r4
    31a0:	5f 92       	push	r5
    31a2:	6f 92       	push	r6
    31a4:	7f 92       	push	r7
    31a6:	8f 92       	push	r8
    31a8:	9f 92       	push	r9
    31aa:	af 92       	push	r10
    31ac:	bf 92       	push	r11
    31ae:	cf 92       	push	r12
    31b0:	df 92       	push	r13
    31b2:	ef 92       	push	r14
    31b4:	ff 92       	push	r15
    31b6:	1f 93       	push	r17
    31b8:	cf 93       	push	r28
    31ba:	df 93       	push	r29
    31bc:	cd b7       	in	r28, 0x3d	; 61
    31be:	de b7       	in	r29, 0x3e	; 62
    31c0:	28 97       	sbiw	r28, 0x08	; 8
    31c2:	0f b6       	in	r0, 0x3f	; 63
    31c4:	f8 94       	cli
    31c6:	de bf       	out	0x3e, r29	; 62
    31c8:	0f be       	out	0x3f, r0	; 63
    31ca:	cd bf       	out	0x3d, r28	; 61
    31cc:	80 91 11 05 	lds	r24, 0x0511
    31d0:	90 91 12 05 	lds	r25, 0x0512
    31d4:	a0 91 13 05 	lds	r26, 0x0513
    31d8:	b0 91 14 05 	lds	r27, 0x0514
    31dc:	89 83       	std	Y+1, r24	; 0x01
    31de:	9a 83       	std	Y+2, r25	; 0x02
    31e0:	ab 83       	std	Y+3, r26	; 0x03
    31e2:	bc 83       	std	Y+4, r27	; 0x04
    31e4:	10 e1       	ldi	r17, 0x10	; 16
    31e6:	c1 2c       	mov	r12, r1
    31e8:	d1 2c       	mov	r13, r1
    31ea:	76 01       	movw	r14, r12
    31ec:	26 01       	movw	r4, r12
    31ee:	37 01       	movw	r6, r14
    31f0:	11 50       	subi	r17, 0x01	; 1
    31f2:	e1 2f       	mov	r30, r17
    31f4:	f0 e0       	ldi	r31, 0x00	; 0
    31f6:	e1 55       	subi	r30, 0x51	; 81
    31f8:	fb 4f       	sbci	r31, 0xFB	; 251
    31fa:	60 81       	ld	r22, Z
    31fc:	70 e0       	ldi	r23, 0x00	; 0
    31fe:	80 e0       	ldi	r24, 0x00	; 0
    3200:	90 e0       	ldi	r25, 0x00	; 0
    3202:	0e 94 ef 10 	call	0x21de	; 0x21de <__floatsisf>
    3206:	29 81       	ldd	r18, Y+1	; 0x01
    3208:	3a 81       	ldd	r19, Y+2	; 0x02
    320a:	4b 81       	ldd	r20, Y+3	; 0x03
    320c:	5c 81       	ldd	r21, Y+4	; 0x04
    320e:	0e 94 f0 0f 	call	0x1fe0	; 0x1fe0 <__subsf3>
    3212:	4b 01       	movw	r8, r22
    3214:	5c 01       	movw	r10, r24
    3216:	20 e0       	ldi	r18, 0x00	; 0
    3218:	30 e0       	ldi	r19, 0x00	; 0
    321a:	a9 01       	movw	r20, r18
    321c:	0e 94 f2 11 	call	0x23e4	; 0x23e4 <__gesf2>
    3220:	87 ff       	sbrs	r24, 7
    3222:	04 c0       	rjmp	.+8      	; 0x322c <main_fw_calcPwmWghtAvg+0x8e>
    3224:	c5 01       	movw	r24, r10
    3226:	b4 01       	movw	r22, r8
    3228:	90 58       	subi	r25, 0x80	; 128
    322a:	02 c0       	rjmp	.+4      	; 0x3230 <main_fw_calcPwmWghtAvg+0x92>
    322c:	c5 01       	movw	r24, r10
    322e:	b4 01       	movw	r22, r8
    3230:	20 e0       	ldi	r18, 0x00	; 0
    3232:	30 e0       	ldi	r19, 0x00	; 0
    3234:	40 e2       	ldi	r20, 0x20	; 32
    3236:	51 e4       	ldi	r21, 0x41	; 65
    3238:	0e 94 f1 0f 	call	0x1fe2	; 0x1fe2 <__addsf3>
    323c:	0e 94 f6 11 	call	0x23ec	; 0x23ec <log10>
    3240:	20 e0       	ldi	r18, 0x00	; 0
    3242:	30 e0       	ldi	r19, 0x00	; 0
    3244:	40 e0       	ldi	r20, 0x00	; 0
    3246:	5f e3       	ldi	r21, 0x3F	; 63
    3248:	0e 94 41 12 	call	0x2482	; 0x2482 <__mulsf3>
    324c:	6d 83       	std	Y+5, r22	; 0x05
    324e:	7e 83       	std	Y+6, r23	; 0x06
    3250:	8f 83       	std	Y+7, r24	; 0x07
    3252:	98 87       	std	Y+8, r25	; 0x08
    3254:	9b 01       	movw	r18, r22
    3256:	ac 01       	movw	r20, r24
    3258:	c5 01       	movw	r24, r10
    325a:	b4 01       	movw	r22, r8
    325c:	0e 94 41 12 	call	0x2482	; 0x2482 <__mulsf3>
    3260:	2f e8       	ldi	r18, 0x8F	; 143
    3262:	32 ec       	ldi	r19, 0xC2	; 194
    3264:	45 e3       	ldi	r20, 0x35	; 53
    3266:	5f e3       	ldi	r21, 0x3F	; 63
    3268:	0e 94 41 12 	call	0x2482	; 0x2482 <__mulsf3>
    326c:	9b 01       	movw	r18, r22
    326e:	ac 01       	movw	r20, r24
    3270:	c3 01       	movw	r24, r6
    3272:	b2 01       	movw	r22, r4
    3274:	0e 94 f1 0f 	call	0x1fe2	; 0x1fe2 <__addsf3>
    3278:	2b 01       	movw	r4, r22
    327a:	3c 01       	movw	r6, r24
    327c:	2d 81       	ldd	r18, Y+5	; 0x05
    327e:	3e 81       	ldd	r19, Y+6	; 0x06
    3280:	4f 81       	ldd	r20, Y+7	; 0x07
    3282:	58 85       	ldd	r21, Y+8	; 0x08
    3284:	c7 01       	movw	r24, r14
    3286:	b6 01       	movw	r22, r12
    3288:	0e 94 f1 0f 	call	0x1fe2	; 0x1fe2 <__addsf3>
    328c:	6b 01       	movw	r12, r22
    328e:	7c 01       	movw	r14, r24
    3290:	11 11       	cpse	r17, r1
    3292:	ae cf       	rjmp	.-164    	; 0x31f0 <main_fw_calcPwmWghtAvg+0x52>
    3294:	9b 01       	movw	r18, r22
    3296:	ac 01       	movw	r20, r24
    3298:	c3 01       	movw	r24, r6
    329a:	b2 01       	movw	r22, r4
    329c:	0e 94 59 10 	call	0x20b2	; 0x20b2 <__divsf3>
    32a0:	9b 01       	movw	r18, r22
    32a2:	ac 01       	movw	r20, r24
    32a4:	69 81       	ldd	r22, Y+1	; 0x01
    32a6:	7a 81       	ldd	r23, Y+2	; 0x02
    32a8:	8b 81       	ldd	r24, Y+3	; 0x03
    32aa:	9c 81       	ldd	r25, Y+4	; 0x04
    32ac:	0e 94 f1 0f 	call	0x1fe2	; 0x1fe2 <__addsf3>
    32b0:	60 93 11 05 	sts	0x0511, r22
    32b4:	70 93 12 05 	sts	0x0512, r23
    32b8:	80 93 13 05 	sts	0x0513, r24
    32bc:	90 93 14 05 	sts	0x0514, r25
    32c0:	c0 92 0d 05 	sts	0x050D, r12
    32c4:	d0 92 0e 05 	sts	0x050E, r13
    32c8:	e0 92 0f 05 	sts	0x050F, r14
    32cc:	f0 92 10 05 	sts	0x0510, r15
    32d0:	28 96       	adiw	r28, 0x08	; 8
    32d2:	0f b6       	in	r0, 0x3f	; 63
    32d4:	f8 94       	cli
    32d6:	de bf       	out	0x3e, r29	; 62
    32d8:	0f be       	out	0x3f, r0	; 63
    32da:	cd bf       	out	0x3d, r28	; 61
    32dc:	df 91       	pop	r29
    32de:	cf 91       	pop	r28
    32e0:	1f 91       	pop	r17
    32e2:	ff 90       	pop	r15
    32e4:	ef 90       	pop	r14
    32e6:	df 90       	pop	r13
    32e8:	cf 90       	pop	r12
    32ea:	bf 90       	pop	r11
    32ec:	af 90       	pop	r10
    32ee:	9f 90       	pop	r9
    32f0:	8f 90       	pop	r8
    32f2:	7f 90       	pop	r7
    32f4:	6f 90       	pop	r6
    32f6:	5f 90       	pop	r5
    32f8:	4f 90       	pop	r4
    32fa:	08 95       	ret

000032fc <main_fw_strncmp>:
    32fc:	0f 93       	push	r16
    32fe:	1f 93       	push	r17
    3300:	cf 93       	push	r28
    3302:	df 93       	push	r29
    3304:	8c 01       	movw	r16, r24
    3306:	ea 01       	movw	r28, r20
    3308:	9a 01       	movw	r18, r20
    330a:	ab 01       	movw	r20, r22
    330c:	69 e2       	ldi	r22, 0x29	; 41
    330e:	73 e0       	ldi	r23, 0x03	; 3
    3310:	81 e0       	ldi	r24, 0x01	; 1
    3312:	0e 94 00 28 	call	0x5000	; 0x5000 <memory_fw_copyBuffer>
    3316:	ae 01       	movw	r20, r28
    3318:	69 e2       	ldi	r22, 0x29	; 41
    331a:	73 e0       	ldi	r23, 0x03	; 3
    331c:	c8 01       	movw	r24, r16
    331e:	df 91       	pop	r29
    3320:	cf 91       	pop	r28
    3322:	1f 91       	pop	r17
    3324:	0f 91       	pop	r16
    3326:	0c 94 dd 13 	jmp	0x27ba	; 0x27ba <strncmp>

0000332a <main_fw_memcmp>:
    332a:	0f 93       	push	r16
    332c:	1f 93       	push	r17
    332e:	cf 93       	push	r28
    3330:	df 93       	push	r29
    3332:	8c 01       	movw	r16, r24
    3334:	ea 01       	movw	r28, r20
    3336:	9a 01       	movw	r18, r20
    3338:	ab 01       	movw	r20, r22
    333a:	69 e2       	ldi	r22, 0x29	; 41
    333c:	73 e0       	ldi	r23, 0x03	; 3
    333e:	81 e0       	ldi	r24, 0x01	; 1
    3340:	0e 94 00 28 	call	0x5000	; 0x5000 <memory_fw_copyBuffer>
    3344:	ae 01       	movw	r20, r28
    3346:	69 e2       	ldi	r22, 0x29	; 41
    3348:	73 e0       	ldi	r23, 0x03	; 3
    334a:	c8 01       	movw	r24, r16
    334c:	df 91       	pop	r29
    334e:	cf 91       	pop	r28
    3350:	1f 91       	pop	r17
    3352:	0f 91       	pop	r16
    3354:	0c 94 c7 13 	jmp	0x278e	; 0x278e <memcmp>

00003358 <main_fw_sendInitialHelp>:
    3358:	25 e0       	ldi	r18, 0x05	; 5
    335a:	4c ee       	ldi	r20, 0xEC	; 236
    335c:	57 e0       	ldi	r21, 0x07	; 7
    335e:	61 e0       	ldi	r22, 0x01	; 1
    3360:	81 e0       	ldi	r24, 0x01	; 1
    3362:	0c 94 17 2a 	jmp	0x542e	; 0x542e <ringbuffer_fw_ringBufferWaitAppend>

00003366 <main_fw_giveAway>:
    3366:	2f 92       	push	r2
    3368:	3f 92       	push	r3
    336a:	4f 92       	push	r4
    336c:	5f 92       	push	r5
    336e:	6f 92       	push	r6
    3370:	7f 92       	push	r7
    3372:	8f 92       	push	r8
    3374:	9f 92       	push	r9
    3376:	af 92       	push	r10
    3378:	bf 92       	push	r11
    337a:	cf 92       	push	r12
    337c:	df 92       	push	r13
    337e:	ef 92       	push	r14
    3380:	ff 92       	push	r15
    3382:	0f 93       	push	r16
    3384:	1f 93       	push	r17
    3386:	cf 93       	push	r28
    3388:	df 93       	push	r29
    338a:	cd b7       	in	r28, 0x3d	; 61
    338c:	de b7       	in	r29, 0x3e	; 62
    338e:	2d 97       	sbiw	r28, 0x0d	; 13
    3390:	0f b6       	in	r0, 0x3f	; 63
    3392:	f8 94       	cli
    3394:	de bf       	out	0x3e, r29	; 62
    3396:	0f be       	out	0x3f, r0	; 63
    3398:	cd bf       	out	0x3d, r28	; 61
    339a:	a8 95       	wdr
    339c:	0e 94 86 06 	call	0xd0c	; 0xd0c <usbPoll>
    33a0:	0e 94 0e 25 	call	0x4a1c	; 0x4a1c <usb_fw_sendInInterrupt>
    33a4:	81 e0       	ldi	r24, 0x01	; 1
    33a6:	0e 94 2b 29 	call	0x5256	; 0x5256 <ringbuffer_fw_getSemaphore>
    33aa:	88 23       	and	r24, r24
    33ac:	09 f4       	brne	.+2      	; 0x33b0 <main_fw_giveAway+0x4a>
    33ae:	dd c2       	rjmp	.+1466   	; 0x396a <main_fw_giveAway+0x604>
    33b0:	81 e0       	ldi	r24, 0x01	; 1
    33b2:	0e 94 d0 29 	call	0x53a0	; 0x53a0 <ringbuffer_fw_getStatusNextMsg>
    33b6:	18 2f       	mov	r17, r24
    33b8:	80 e0       	ldi	r24, 0x00	; 0
    33ba:	0e 94 d0 29 	call	0x53a0	; 0x53a0 <ringbuffer_fw_getStatusNextMsg>
    33be:	90 91 ee 04 	lds	r25, 0x04EE
    33c2:	9f 70       	andi	r25, 0x0F	; 15
    33c4:	09 f0       	breq	.+2      	; 0x33c8 <main_fw_giveAway+0x62>
    33c6:	1f c2       	rjmp	.+1086   	; 0x3806 <main_fw_giveAway+0x4a0>
    33c8:	10 ff       	sbrs	r17, 0
    33ca:	cc c2       	rjmp	.+1432   	; 0x3964 <main_fw_giveAway+0x5fe>
    33cc:	14 ff       	sbrs	r17, 4
    33ce:	04 c0       	rjmp	.+8      	; 0x33d8 <main_fw_giveAway+0x72>
    33d0:	81 e0       	ldi	r24, 0x01	; 1
    33d2:	0e 94 01 27 	call	0x4e02	; 0x4e02 <serial_pullAndSendNmea_havingSemaphore>
    33d6:	c9 c2       	rjmp	.+1426   	; 0x396a <main_fw_giveAway+0x604>
    33d8:	10 7f       	andi	r17, 0xF0	; 240
    33da:	09 f0       	breq	.+2      	; 0x33de <main_fw_giveAway+0x78>
    33dc:	c3 c2       	rjmp	.+1414   	; 0x3964 <main_fw_giveAway+0x5fe>
    33de:	4f e7       	ldi	r20, 0x7F	; 127
    33e0:	69 e2       	ldi	r22, 0x29	; 41
    33e2:	74 e0       	ldi	r23, 0x04	; 4
    33e4:	81 e0       	ldi	r24, 0x01	; 1
    33e6:	0e 94 48 29 	call	0x5290	; 0x5290 <ringbuffer_fw_ringBufferPull>
    33ea:	81 e0       	ldi	r24, 0x01	; 1
    33ec:	0e 94 3c 29 	call	0x5278	; 0x5278 <ringbuffer_fw_freeSemaphore>
    33f0:	46 e0       	ldi	r20, 0x06	; 6
    33f2:	50 e0       	ldi	r21, 0x00	; 0
    33f4:	6c ea       	ldi	r22, 0xAC	; 172
    33f6:	77 e0       	ldi	r23, 0x07	; 7
    33f8:	89 e2       	ldi	r24, 0x29	; 41
    33fa:	94 e0       	ldi	r25, 0x04	; 4
    33fc:	0e 94 7e 19 	call	0x32fc	; 0x32fc <main_fw_strncmp>
    3400:	89 2b       	or	r24, r25
    3402:	41 f5       	brne	.+80     	; 0x3454 <main_fw_giveAway+0xee>
    3404:	2c e1       	ldi	r18, 0x1C	; 28
    3406:	30 e0       	ldi	r19, 0x00	; 0
    3408:	4d e7       	ldi	r20, 0x7D	; 125
    340a:	51 e0       	ldi	r21, 0x01	; 1
    340c:	69 e2       	ldi	r22, 0x29	; 41
    340e:	73 e0       	ldi	r23, 0x03	; 3
    3410:	81 e0       	ldi	r24, 0x01	; 1
    3412:	0e 94 00 28 	call	0x5000	; 0x5000 <memory_fw_copyBuffer>
    3416:	80 91 2b 05 	lds	r24, 0x052B
    341a:	90 91 2c 05 	lds	r25, 0x052C
    341e:	9c 01       	movw	r18, r24
    3420:	33 27       	eor	r19, r19
    3422:	3f 93       	push	r19
    3424:	2f 93       	push	r18
    3426:	1f 92       	push	r1
    3428:	9f 93       	push	r25
    342a:	80 91 2e 05 	lds	r24, 0x052E
    342e:	8f 93       	push	r24
    3430:	80 91 2d 05 	lds	r24, 0x052D
    3434:	8f 93       	push	r24
    3436:	8f e2       	ldi	r24, 0x2F	; 47
    3438:	95 e0       	ldi	r25, 0x05	; 5
    343a:	9f 93       	push	r25
    343c:	8f 93       	push	r24
    343e:	89 e2       	ldi	r24, 0x29	; 41
    3440:	93 e0       	ldi	r25, 0x03	; 3
    3442:	9f 93       	push	r25
    3444:	8f 93       	push	r24
    3446:	89 ea       	ldi	r24, 0xA9	; 169
    3448:	93 e0       	ldi	r25, 0x03	; 3
    344a:	9f 93       	push	r25
    344c:	8f 93       	push	r24
    344e:	0e 94 9c 14 	call	0x2938	; 0x2938 <sprintf>
    3452:	cc c1       	rjmp	.+920    	; 0x37ec <main_fw_giveAway+0x486>
    3454:	47 e0       	ldi	r20, 0x07	; 7
    3456:	50 e0       	ldi	r21, 0x00	; 0
    3458:	69 e0       	ldi	r22, 0x09	; 9
    345a:	78 e0       	ldi	r23, 0x08	; 8
    345c:	89 e2       	ldi	r24, 0x29	; 41
    345e:	94 e0       	ldi	r25, 0x04	; 4
    3460:	0e 94 7e 19 	call	0x32fc	; 0x32fc <main_fw_strncmp>
    3464:	89 2b       	or	r24, r25
    3466:	21 f4       	brne	.+8      	; 0x3470 <main_fw_giveAway+0x10a>
    3468:	80 91 ed 04 	lds	r24, 0x04ED
    346c:	8e 7f       	andi	r24, 0xFE	; 254
    346e:	0d c0       	rjmp	.+26     	; 0x348a <main_fw_giveAway+0x124>
    3470:	46 e0       	ldi	r20, 0x06	; 6
    3472:	50 e0       	ldi	r21, 0x00	; 0
    3474:	63 e0       	ldi	r22, 0x03	; 3
    3476:	78 e0       	ldi	r23, 0x08	; 8
    3478:	89 e2       	ldi	r24, 0x29	; 41
    347a:	94 e0       	ldi	r25, 0x04	; 4
    347c:	0e 94 7e 19 	call	0x32fc	; 0x32fc <main_fw_strncmp>
    3480:	89 2b       	or	r24, r25
    3482:	31 f4       	brne	.+12     	; 0x3490 <main_fw_giveAway+0x12a>
    3484:	80 91 ed 04 	lds	r24, 0x04ED
    3488:	81 60       	ori	r24, 0x01	; 1
    348a:	80 93 ed 04 	sts	0x04ED, r24
    348e:	6d c2       	rjmp	.+1242   	; 0x396a <main_fw_giveAway+0x604>
    3490:	47 e0       	ldi	r20, 0x07	; 7
    3492:	50 e0       	ldi	r21, 0x00	; 0
    3494:	6c ef       	ldi	r22, 0xFC	; 252
    3496:	77 e0       	ldi	r23, 0x07	; 7
    3498:	89 e2       	ldi	r24, 0x29	; 41
    349a:	94 e0       	ldi	r25, 0x04	; 4
    349c:	0e 94 7e 19 	call	0x32fc	; 0x32fc <main_fw_strncmp>
    34a0:	89 2b       	or	r24, r25
    34a2:	21 f4       	brne	.+8      	; 0x34ac <main_fw_giveAway+0x146>
    34a4:	80 91 ed 04 	lds	r24, 0x04ED
    34a8:	8d 7f       	andi	r24, 0xFD	; 253
    34aa:	ef cf       	rjmp	.-34     	; 0x348a <main_fw_giveAway+0x124>
    34ac:	46 e0       	ldi	r20, 0x06	; 6
    34ae:	50 e0       	ldi	r21, 0x00	; 0
    34b0:	66 ef       	ldi	r22, 0xF6	; 246
    34b2:	77 e0       	ldi	r23, 0x07	; 7
    34b4:	89 e2       	ldi	r24, 0x29	; 41
    34b6:	94 e0       	ldi	r25, 0x04	; 4
    34b8:	0e 94 7e 19 	call	0x32fc	; 0x32fc <main_fw_strncmp>
    34bc:	89 2b       	or	r24, r25
    34be:	21 f4       	brne	.+8      	; 0x34c8 <main_fw_giveAway+0x162>
    34c0:	80 91 ed 04 	lds	r24, 0x04ED
    34c4:	82 60       	ori	r24, 0x02	; 2
    34c6:	e1 cf       	rjmp	.-62     	; 0x348a <main_fw_giveAway+0x124>
    34c8:	45 e0       	ldi	r20, 0x05	; 5
    34ca:	50 e0       	ldi	r21, 0x00	; 0
    34cc:	61 ef       	ldi	r22, 0xF1	; 241
    34ce:	77 e0       	ldi	r23, 0x07	; 7
    34d0:	89 e2       	ldi	r24, 0x29	; 41
    34d2:	94 e0       	ldi	r25, 0x04	; 4
    34d4:	0e 94 7e 19 	call	0x32fc	; 0x32fc <main_fw_strncmp>
    34d8:	89 2b       	or	r24, r25
    34da:	21 f4       	brne	.+8      	; 0x34e4 <main_fw_giveAway+0x17e>
    34dc:	80 91 ed 04 	lds	r24, 0x04ED
    34e0:	83 72       	andi	r24, 0x23	; 35
    34e2:	76 c0       	rjmp	.+236    	; 0x35d0 <main_fw_giveAway+0x26a>
    34e4:	45 e0       	ldi	r20, 0x05	; 5
    34e6:	50 e0       	ldi	r21, 0x00	; 0
    34e8:	6c ee       	ldi	r22, 0xEC	; 236
    34ea:	77 e0       	ldi	r23, 0x07	; 7
    34ec:	89 e2       	ldi	r24, 0x29	; 41
    34ee:	94 e0       	ldi	r25, 0x04	; 4
    34f0:	0e 94 7e 19 	call	0x32fc	; 0x32fc <main_fw_strncmp>
    34f4:	89 2b       	or	r24, r25
    34f6:	b1 f5       	brne	.+108    	; 0x3564 <main_fw_giveAway+0x1fe>
    34f8:	23 e4       	ldi	r18, 0x43	; 67
    34fa:	30 e0       	ldi	r19, 0x00	; 0
    34fc:	4c e5       	ldi	r20, 0x5C	; 92
    34fe:	54 e0       	ldi	r21, 0x04	; 4
    3500:	69 e2       	ldi	r22, 0x29	; 41
    3502:	73 e0       	ldi	r23, 0x03	; 3
    3504:	81 e0       	ldi	r24, 0x01	; 1
    3506:	0e 94 00 28 	call	0x5000	; 0x5000 <memory_fw_copyBuffer>
    350a:	1f 92       	push	r1
    350c:	88 ed       	ldi	r24, 0xD8	; 216
    350e:	8f 93       	push	r24
    3510:	1f 92       	push	r1
    3512:	86 e9       	ldi	r24, 0x96	; 150
    3514:	8f 93       	push	r24
    3516:	89 e2       	ldi	r24, 0x29	; 41
    3518:	93 e0       	ldi	r25, 0x03	; 3
    351a:	9f 93       	push	r25
    351c:	8f 93       	push	r24
    351e:	1f 92       	push	r1
    3520:	8f e7       	ldi	r24, 0x7F	; 127
    3522:	8f 93       	push	r24
    3524:	89 ea       	ldi	r24, 0xA9	; 169
    3526:	93 e0       	ldi	r25, 0x03	; 3
    3528:	9f 93       	push	r25
    352a:	8f 93       	push	r24
    352c:	0e 94 6c 14 	call	0x28d8	; 0x28d8 <snprintf>
    3530:	28 2f       	mov	r18, r24
    3532:	49 ea       	ldi	r20, 0xA9	; 169
    3534:	53 e0       	ldi	r21, 0x03	; 3
    3536:	60 e0       	ldi	r22, 0x00	; 0
    3538:	80 e0       	ldi	r24, 0x00	; 0
    353a:	0e 94 17 2a 	call	0x542e	; 0x542e <ringbuffer_fw_ringBufferWaitAppend>
    353e:	24 e4       	ldi	r18, 0x44	; 68
    3540:	43 e6       	ldi	r20, 0x63	; 99
    3542:	57 e0       	ldi	r21, 0x07	; 7
    3544:	61 e0       	ldi	r22, 0x01	; 1
    3546:	80 e0       	ldi	r24, 0x00	; 0
    3548:	0e 94 17 2a 	call	0x542e	; 0x542e <ringbuffer_fw_ringBufferWaitAppend>
    354c:	80 91 ee 04 	lds	r24, 0x04EE
    3550:	80 7f       	andi	r24, 0xF0	; 240
    3552:	81 60       	ori	r24, 0x01	; 1
    3554:	80 93 ee 04 	sts	0x04EE, r24
    3558:	80 91 ed 04 	lds	r24, 0x04ED
    355c:	8f 7e       	andi	r24, 0xEF	; 239
    355e:	80 93 ed 04 	sts	0x04ED, r24
    3562:	4b c1       	rjmp	.+662    	; 0x37fa <main_fw_giveAway+0x494>
    3564:	45 e0       	ldi	r20, 0x05	; 5
    3566:	50 e0       	ldi	r21, 0x00	; 0
    3568:	67 ee       	ldi	r22, 0xE7	; 231
    356a:	77 e0       	ldi	r23, 0x07	; 7
    356c:	89 e2       	ldi	r24, 0x29	; 41
    356e:	94 e0       	ldi	r25, 0x04	; 4
    3570:	0e 94 7e 19 	call	0x32fc	; 0x32fc <main_fw_strncmp>
    3574:	89 2b       	or	r24, r25
    3576:	79 f4       	brne	.+30     	; 0x3596 <main_fw_giveAway+0x230>
    3578:	80 91 ed 04 	lds	r24, 0x04ED
    357c:	82 fb       	bst	r24, 2
    357e:	22 27       	eor	r18, r18
    3580:	20 f9       	bld	r18, 0
    3582:	91 e0       	ldi	r25, 0x01	; 1
    3584:	92 27       	eor	r25, r18
    3586:	90 fb       	bst	r25, 0
    3588:	82 f9       	bld	r24, 2
    358a:	80 93 ed 04 	sts	0x04ED, r24
    358e:	82 ff       	sbrs	r24, 2
    3590:	ec c1       	rjmp	.+984    	; 0x396a <main_fw_giveAway+0x604>
    3592:	87 7f       	andi	r24, 0xF7	; 247
    3594:	45 c0       	rjmp	.+138    	; 0x3620 <main_fw_giveAway+0x2ba>
    3596:	47 e0       	ldi	r20, 0x07	; 7
    3598:	50 e0       	ldi	r21, 0x00	; 0
    359a:	60 ee       	ldi	r22, 0xE0	; 224
    359c:	77 e0       	ldi	r23, 0x07	; 7
    359e:	89 e2       	ldi	r24, 0x29	; 41
    35a0:	94 e0       	ldi	r25, 0x04	; 4
    35a2:	0e 94 7e 19 	call	0x32fc	; 0x32fc <main_fw_strncmp>
    35a6:	89 2b       	or	r24, r25
    35a8:	29 f4       	brne	.+10     	; 0x35b4 <main_fw_giveAway+0x24e>
    35aa:	80 91 ed 04 	lds	r24, 0x04ED
    35ae:	83 72       	andi	r24, 0x23	; 35
    35b0:	80 64       	ori	r24, 0x40	; 64
    35b2:	0e c0       	rjmp	.+28     	; 0x35d0 <main_fw_giveAway+0x26a>
    35b4:	47 e0       	ldi	r20, 0x07	; 7
    35b6:	50 e0       	ldi	r21, 0x00	; 0
    35b8:	69 ed       	ldi	r22, 0xD9	; 217
    35ba:	77 e0       	ldi	r23, 0x07	; 7
    35bc:	89 e2       	ldi	r24, 0x29	; 41
    35be:	94 e0       	ldi	r25, 0x04	; 4
    35c0:	0e 94 7e 19 	call	0x32fc	; 0x32fc <main_fw_strncmp>
    35c4:	89 2b       	or	r24, r25
    35c6:	31 f4       	brne	.+12     	; 0x35d4 <main_fw_giveAway+0x26e>
    35c8:	80 91 ed 04 	lds	r24, 0x04ED
    35cc:	83 72       	andi	r24, 0x23	; 35
    35ce:	80 68       	ori	r24, 0x80	; 128
    35d0:	80 62       	ori	r24, 0x20	; 32
    35d2:	5b cf       	rjmp	.-330    	; 0x348a <main_fw_giveAway+0x124>
    35d4:	45 e0       	ldi	r20, 0x05	; 5
    35d6:	50 e0       	ldi	r21, 0x00	; 0
    35d8:	67 ea       	ldi	r22, 0xA7	; 167
    35da:	77 e0       	ldi	r23, 0x07	; 7
    35dc:	89 e2       	ldi	r24, 0x29	; 41
    35de:	94 e0       	ldi	r25, 0x04	; 4
    35e0:	0e 94 7e 19 	call	0x32fc	; 0x32fc <main_fw_strncmp>
    35e4:	89 2b       	or	r24, r25
    35e6:	81 f3       	breq	.-32     	; 0x35c8 <main_fw_giveAway+0x262>
    35e8:	47 e0       	ldi	r20, 0x07	; 7
    35ea:	50 e0       	ldi	r21, 0x00	; 0
    35ec:	62 ed       	ldi	r22, 0xD2	; 210
    35ee:	77 e0       	ldi	r23, 0x07	; 7
    35f0:	89 e2       	ldi	r24, 0x29	; 41
    35f2:	94 e0       	ldi	r25, 0x04	; 4
    35f4:	0e 94 7e 19 	call	0x32fc	; 0x32fc <main_fw_strncmp>
    35f8:	89 2b       	or	r24, r25
    35fa:	21 f4       	brne	.+8      	; 0x3604 <main_fw_giveAway+0x29e>
    35fc:	80 91 ed 04 	lds	r24, 0x04ED
    3600:	87 7f       	andi	r24, 0xF7	; 247
    3602:	43 cf       	rjmp	.-378    	; 0x348a <main_fw_giveAway+0x124>
    3604:	46 e0       	ldi	r20, 0x06	; 6
    3606:	50 e0       	ldi	r21, 0x00	; 0
    3608:	6c ec       	ldi	r22, 0xCC	; 204
    360a:	77 e0       	ldi	r23, 0x07	; 7
    360c:	89 e2       	ldi	r24, 0x29	; 41
    360e:	94 e0       	ldi	r25, 0x04	; 4
    3610:	0e 94 7e 19 	call	0x32fc	; 0x32fc <main_fw_strncmp>
    3614:	89 2b       	or	r24, r25
    3616:	31 f4       	brne	.+12     	; 0x3624 <main_fw_giveAway+0x2be>
    3618:	80 91 ed 04 	lds	r24, 0x04ED
    361c:	88 60       	ori	r24, 0x08	; 8
    361e:	8b 7f       	andi	r24, 0xFB	; 251
    3620:	8f 7e       	andi	r24, 0xEF	; 239
    3622:	33 cf       	rjmp	.-410    	; 0x348a <main_fw_giveAway+0x124>
    3624:	47 e0       	ldi	r20, 0x07	; 7
    3626:	50 e0       	ldi	r21, 0x00	; 0
    3628:	64 ec       	ldi	r22, 0xC4	; 196
    362a:	77 e0       	ldi	r23, 0x07	; 7
    362c:	89 e2       	ldi	r24, 0x29	; 41
    362e:	94 e0       	ldi	r25, 0x04	; 4
    3630:	0e 94 95 19 	call	0x332a	; 0x332a <main_fw_memcmp>
    3634:	89 2b       	or	r24, r25
    3636:	09 f0       	breq	.+2      	; 0x363a <main_fw_giveAway+0x2d4>
    3638:	44 c0       	rjmp	.+136    	; 0x36c2 <main_fw_giveAway+0x35c>
    363a:	8b ec       	ldi	r24, 0xCB	; 203
    363c:	94 e0       	ldi	r25, 0x04	; 4
    363e:	9f 93       	push	r25
    3640:	8f 93       	push	r24
    3642:	89 e0       	ldi	r24, 0x09	; 9
    3644:	91 e0       	ldi	r25, 0x01	; 1
    3646:	9f 93       	push	r25
    3648:	8f 93       	push	r24
    364a:	81 e3       	ldi	r24, 0x31	; 49
    364c:	94 e0       	ldi	r25, 0x04	; 4
    364e:	9f 93       	push	r25
    3650:	8f 93       	push	r24
    3652:	0e 94 bf 14 	call	0x297e	; 0x297e <sscanf>
    3656:	80 91 cb 04 	lds	r24, 0x04CB
    365a:	90 91 cc 04 	lds	r25, 0x04CC
    365e:	0e 94 8e 26 	call	0x4d1c	; 0x4d1c <serial_fw_setCommBaud>
    3662:	40 e6       	ldi	r20, 0x60	; 96
    3664:	50 e0       	ldi	r21, 0x00	; 0
    3666:	62 e0       	ldi	r22, 0x02	; 2
    3668:	8b ec       	ldi	r24, 0xCB	; 203
    366a:	94 e0       	ldi	r25, 0x04	; 4
    366c:	0e 94 b5 28 	call	0x516a	; 0x516a <memory_fw_writeEEpromPage>
    3670:	83 e0       	ldi	r24, 0x03	; 3
    3672:	0e 94 26 28 	call	0x504c	; 0x504c <memory_fw_getSealMarker>
    3676:	9a 83       	std	Y+2, r25	; 0x02
    3678:	89 83       	std	Y+1, r24	; 0x01
    367a:	4e e7       	ldi	r20, 0x7E	; 126
    367c:	50 e0       	ldi	r21, 0x00	; 0
    367e:	62 e0       	ldi	r22, 0x02	; 2
    3680:	ce 01       	movw	r24, r28
    3682:	01 96       	adiw	r24, 0x01	; 1
    3684:	0e 94 b5 28 	call	0x516a	; 0x516a <memory_fw_writeEEpromPage>
    3688:	83 e0       	ldi	r24, 0x03	; 3
    368a:	0e 94 e7 28 	call	0x51ce	; 0x51ce <memory_fw_checkAndInitBlock>
    368e:	2a e2       	ldi	r18, 0x2A	; 42
    3690:	30 e0       	ldi	r19, 0x00	; 0
    3692:	43 e5       	ldi	r20, 0x53	; 83
    3694:	51 e0       	ldi	r21, 0x01	; 1
    3696:	69 e2       	ldi	r22, 0x29	; 41
    3698:	73 e0       	ldi	r23, 0x03	; 3
    369a:	81 e0       	ldi	r24, 0x01	; 1
    369c:	0e 94 00 28 	call	0x5000	; 0x5000 <memory_fw_copyBuffer>
    36a0:	80 91 cc 04 	lds	r24, 0x04CC
    36a4:	8f 93       	push	r24
    36a6:	80 91 cb 04 	lds	r24, 0x04CB
    36aa:	8f 93       	push	r24
    36ac:	89 e2       	ldi	r24, 0x29	; 41
    36ae:	93 e0       	ldi	r25, 0x03	; 3
    36b0:	9f 93       	push	r25
    36b2:	8f 93       	push	r24
    36b4:	89 ea       	ldi	r24, 0xA9	; 169
    36b6:	93 e0       	ldi	r25, 0x03	; 3
    36b8:	9f 93       	push	r25
    36ba:	8f 93       	push	r24
    36bc:	0e 94 9c 14 	call	0x2938	; 0x2938 <sprintf>
    36c0:	95 c0       	rjmp	.+298    	; 0x37ec <main_fw_giveAway+0x486>
    36c2:	45 e0       	ldi	r20, 0x05	; 5
    36c4:	50 e0       	ldi	r21, 0x00	; 0
    36c6:	6f eb       	ldi	r22, 0xBF	; 191
    36c8:	77 e0       	ldi	r23, 0x07	; 7
    36ca:	89 e2       	ldi	r24, 0x29	; 41
    36cc:	94 e0       	ldi	r25, 0x04	; 4
    36ce:	0e 94 7e 19 	call	0x32fc	; 0x32fc <main_fw_strncmp>
    36d2:	89 2b       	or	r24, r25
    36d4:	81 f4       	brne	.+32     	; 0x36f6 <main_fw_giveAway+0x390>
    36d6:	80 91 ed 04 	lds	r24, 0x04ED
    36da:	84 fb       	bst	r24, 4
    36dc:	22 27       	eor	r18, r18
    36de:	20 f9       	bld	r18, 0
    36e0:	91 e0       	ldi	r25, 0x01	; 1
    36e2:	92 27       	eor	r25, r18
    36e4:	90 fb       	bst	r25, 0
    36e6:	84 f9       	bld	r24, 4
    36e8:	80 93 ed 04 	sts	0x04ED, r24
    36ec:	84 ff       	sbrs	r24, 4
    36ee:	3d c1       	rjmp	.+634    	; 0x396a <main_fw_giveAway+0x604>
    36f0:	87 7f       	andi	r24, 0xF7	; 247
    36f2:	8b 7f       	andi	r24, 0xFB	; 251
    36f4:	ca ce       	rjmp	.-620    	; 0x348a <main_fw_giveAway+0x124>
    36f6:	49 e0       	ldi	r20, 0x09	; 9
    36f8:	50 e0       	ldi	r21, 0x00	; 0
    36fa:	66 eb       	ldi	r22, 0xB6	; 182
    36fc:	77 e0       	ldi	r23, 0x07	; 7
    36fe:	89 e2       	ldi	r24, 0x29	; 41
    3700:	94 e0       	ldi	r25, 0x04	; 4
    3702:	0e 94 7e 19 	call	0x32fc	; 0x32fc <main_fw_strncmp>
    3706:	89 2b       	or	r24, r25
    3708:	b9 f4       	brne	.+46     	; 0x3738 <main_fw_giveAway+0x3d2>
    370a:	48 e5       	ldi	r20, 0x58	; 88
    370c:	50 e0       	ldi	r21, 0x00	; 0
    370e:	62 e0       	ldi	r22, 0x02	; 2
    3710:	8b ee       	ldi	r24, 0xEB	; 235
    3712:	94 e0       	ldi	r25, 0x04	; 4
    3714:	0e 94 b5 28 	call	0x516a	; 0x516a <memory_fw_writeEEpromPage>
    3718:	82 e0       	ldi	r24, 0x02	; 2
    371a:	0e 94 26 28 	call	0x504c	; 0x504c <memory_fw_getSealMarker>
    371e:	9a 83       	std	Y+2, r25	; 0x02
    3720:	89 83       	std	Y+1, r24	; 0x01
    3722:	4e e5       	ldi	r20, 0x5E	; 94
    3724:	50 e0       	ldi	r21, 0x00	; 0
    3726:	62 e0       	ldi	r22, 0x02	; 2
    3728:	ce 01       	movw	r24, r28
    372a:	01 96       	adiw	r24, 0x01	; 1
    372c:	0e 94 b5 28 	call	0x516a	; 0x516a <memory_fw_writeEEpromPage>
    3730:	82 e0       	ldi	r24, 0x02	; 2
    3732:	0e 94 e7 28 	call	0x51ce	; 0x51ce <memory_fw_checkAndInitBlock>
    3736:	19 c1       	rjmp	.+562    	; 0x396a <main_fw_giveAway+0x604>
    3738:	09 e2       	ldi	r16, 0x29	; 41
    373a:	14 e0       	ldi	r17, 0x04	; 4
    373c:	80 91 29 04 	lds	r24, 0x0429
    3740:	8b 32       	cpi	r24, 0x2B	; 43
    3742:	79 f4       	brne	.+30     	; 0x3762 <main_fw_giveAway+0x3fc>
    3744:	88 e0       	ldi	r24, 0x08	; 8
    3746:	95 e0       	ldi	r25, 0x05	; 5
    3748:	9f 93       	push	r25
    374a:	8f 93       	push	r24
    374c:	8c e0       	ldi	r24, 0x0C	; 12
    374e:	91 e0       	ldi	r25, 0x01	; 1
    3750:	9f 93       	push	r25
    3752:	8f 93       	push	r24
    3754:	8a e2       	ldi	r24, 0x2A	; 42
    3756:	94 e0       	ldi	r25, 0x04	; 4
    3758:	9f 93       	push	r25
    375a:	8f 93       	push	r24
    375c:	0e 94 bf 14 	call	0x297e	; 0x297e <sscanf>
    3760:	21 c0       	rjmp	.+66     	; 0x37a4 <main_fw_giveAway+0x43e>
    3762:	8d 32       	cpi	r24, 0x2D	; 45
    3764:	59 f5       	brne	.+86     	; 0x37bc <main_fw_giveAway+0x456>
    3766:	88 e0       	ldi	r24, 0x08	; 8
    3768:	95 e0       	ldi	r25, 0x05	; 5
    376a:	9f 93       	push	r25
    376c:	8f 93       	push	r24
    376e:	8c e0       	ldi	r24, 0x0C	; 12
    3770:	91 e0       	ldi	r25, 0x01	; 1
    3772:	9f 93       	push	r25
    3774:	8f 93       	push	r24
    3776:	8a e2       	ldi	r24, 0x2A	; 42
    3778:	94 e0       	ldi	r25, 0x04	; 4
    377a:	9f 93       	push	r25
    377c:	8f 93       	push	r24
    377e:	0e 94 bf 14 	call	0x297e	; 0x297e <sscanf>
    3782:	80 91 08 05 	lds	r24, 0x0508
    3786:	90 91 09 05 	lds	r25, 0x0509
    378a:	a0 91 0a 05 	lds	r26, 0x050A
    378e:	b0 91 0b 05 	lds	r27, 0x050B
    3792:	b0 58       	subi	r27, 0x80	; 128
    3794:	80 93 08 05 	sts	0x0508, r24
    3798:	90 93 09 05 	sts	0x0509, r25
    379c:	a0 93 0a 05 	sts	0x050A, r26
    37a0:	b0 93 0b 05 	sts	0x050B, r27
    37a4:	80 91 ed 04 	lds	r24, 0x04ED
    37a8:	8f 7e       	andi	r24, 0xEF	; 239
    37aa:	80 93 ed 04 	sts	0x04ED, r24
    37ae:	0f 90       	pop	r0
    37b0:	0f 90       	pop	r0
    37b2:	0f 90       	pop	r0
    37b4:	0f 90       	pop	r0
    37b6:	0f 90       	pop	r0
    37b8:	0f 90       	pop	r0
    37ba:	d7 c0       	rjmp	.+430    	; 0x396a <main_fw_giveAway+0x604>
    37bc:	21 e3       	ldi	r18, 0x31	; 49
    37be:	30 e0       	ldi	r19, 0x00	; 0
    37c0:	4f e9       	ldi	r20, 0x9F	; 159
    37c2:	54 e0       	ldi	r21, 0x04	; 4
    37c4:	69 e2       	ldi	r22, 0x29	; 41
    37c6:	73 e0       	ldi	r23, 0x03	; 3
    37c8:	81 e0       	ldi	r24, 0x01	; 1
    37ca:	0e 94 00 28 	call	0x5000	; 0x5000 <memory_fw_copyBuffer>
    37ce:	1f 93       	push	r17
    37d0:	0f 93       	push	r16
    37d2:	89 e2       	ldi	r24, 0x29	; 41
    37d4:	93 e0       	ldi	r25, 0x03	; 3
    37d6:	9f 93       	push	r25
    37d8:	8f 93       	push	r24
    37da:	1f 92       	push	r1
    37dc:	8f e7       	ldi	r24, 0x7F	; 127
    37de:	8f 93       	push	r24
    37e0:	89 ea       	ldi	r24, 0xA9	; 169
    37e2:	93 e0       	ldi	r25, 0x03	; 3
    37e4:	9f 93       	push	r25
    37e6:	8f 93       	push	r24
    37e8:	0e 94 6c 14 	call	0x28d8	; 0x28d8 <snprintf>
    37ec:	28 2f       	mov	r18, r24
    37ee:	49 ea       	ldi	r20, 0xA9	; 169
    37f0:	53 e0       	ldi	r21, 0x03	; 3
    37f2:	60 e0       	ldi	r22, 0x00	; 0
    37f4:	80 e0       	ldi	r24, 0x00	; 0
    37f6:	0e 94 17 2a 	call	0x542e	; 0x542e <ringbuffer_fw_ringBufferWaitAppend>
    37fa:	0f b6       	in	r0, 0x3f	; 63
    37fc:	f8 94       	cli
    37fe:	de bf       	out	0x3e, r29	; 62
    3800:	0f be       	out	0x3f, r0	; 63
    3802:	cd bf       	out	0x3d, r28	; 61
    3804:	b2 c0       	rjmp	.+356    	; 0x396a <main_fw_giveAway+0x604>
    3806:	80 fd       	sbrc	r24, 0
    3808:	ad c0       	rjmp	.+346    	; 0x3964 <main_fw_giveAway+0x5fe>
    380a:	81 e0       	ldi	r24, 0x01	; 1
    380c:	0e 94 3c 29 	call	0x5278	; 0x5278 <ringbuffer_fw_freeSemaphore>
    3810:	e0 91 ee 04 	lds	r30, 0x04EE
    3814:	ef 70       	andi	r30, 0x0F	; 15
    3816:	f0 e0       	ldi	r31, 0x00	; 0
    3818:	31 97       	sbiw	r30, 0x01	; 1
    381a:	ed 30       	cpi	r30, 0x0D	; 13
    381c:	f1 05       	cpc	r31, r1
    381e:	08 f0       	brcs	.+2      	; 0x3822 <main_fw_giveAway+0x4bc>
    3820:	9b c0       	rjmp	.+310    	; 0x3958 <main_fw_giveAway+0x5f2>
    3822:	ec 5c       	subi	r30, 0xCC	; 204
    3824:	ff 4f       	sbci	r31, 0xFF	; 255
    3826:	0c 94 d0 0f 	jmp	0x1fa0	; 0x1fa0 <__tablejump2__>
    382a:	2f e6       	ldi	r18, 0x6F	; 111
    382c:	44 ef       	ldi	r20, 0xF4	; 244
    382e:	56 e0       	ldi	r21, 0x06	; 6
    3830:	61 e0       	ldi	r22, 0x01	; 1
    3832:	80 e0       	ldi	r24, 0x00	; 0
    3834:	0e 94 17 2a 	call	0x542e	; 0x542e <ringbuffer_fw_ringBufferWaitAppend>
    3838:	80 91 ee 04 	lds	r24, 0x04EE
    383c:	80 7f       	andi	r24, 0xF0	; 240
    383e:	82 60       	ori	r24, 0x02	; 2
    3840:	8e c0       	rjmp	.+284    	; 0x395e <main_fw_giveAway+0x5f8>
    3842:	27 e6       	ldi	r18, 0x67	; 103
    3844:	4d e8       	ldi	r20, 0x8D	; 141
    3846:	56 e0       	ldi	r21, 0x06	; 6
    3848:	61 e0       	ldi	r22, 0x01	; 1
    384a:	80 e0       	ldi	r24, 0x00	; 0
    384c:	0e 94 17 2a 	call	0x542e	; 0x542e <ringbuffer_fw_ringBufferWaitAppend>
    3850:	80 91 ee 04 	lds	r24, 0x04EE
    3854:	80 7f       	andi	r24, 0xF0	; 240
    3856:	83 60       	ori	r24, 0x03	; 3
    3858:	82 c0       	rjmp	.+260    	; 0x395e <main_fw_giveAway+0x5f8>
    385a:	2e e2       	ldi	r18, 0x2E	; 46
    385c:	4f e5       	ldi	r20, 0x5F	; 95
    385e:	56 e0       	ldi	r21, 0x06	; 6
    3860:	61 e0       	ldi	r22, 0x01	; 1
    3862:	80 e0       	ldi	r24, 0x00	; 0
    3864:	0e 94 17 2a 	call	0x542e	; 0x542e <ringbuffer_fw_ringBufferWaitAppend>
    3868:	80 91 ee 04 	lds	r24, 0x04EE
    386c:	80 7f       	andi	r24, 0xF0	; 240
    386e:	84 60       	ori	r24, 0x04	; 4
    3870:	76 c0       	rjmp	.+236    	; 0x395e <main_fw_giveAway+0x5f8>
    3872:	27 e1       	ldi	r18, 0x17	; 23
    3874:	48 e4       	ldi	r20, 0x48	; 72
    3876:	56 e0       	ldi	r21, 0x06	; 6
    3878:	61 e0       	ldi	r22, 0x01	; 1
    387a:	80 e0       	ldi	r24, 0x00	; 0
    387c:	0e 94 17 2a 	call	0x542e	; 0x542e <ringbuffer_fw_ringBufferWaitAppend>
    3880:	80 91 ee 04 	lds	r24, 0x04EE
    3884:	80 7f       	andi	r24, 0xF0	; 240
    3886:	85 60       	ori	r24, 0x05	; 5
    3888:	6a c0       	rjmp	.+212    	; 0x395e <main_fw_giveAway+0x5f8>
    388a:	2b e2       	ldi	r18, 0x2B	; 43
    388c:	4d e1       	ldi	r20, 0x1D	; 29
    388e:	56 e0       	ldi	r21, 0x06	; 6
    3890:	61 e0       	ldi	r22, 0x01	; 1
    3892:	80 e0       	ldi	r24, 0x00	; 0
    3894:	0e 94 17 2a 	call	0x542e	; 0x542e <ringbuffer_fw_ringBufferWaitAppend>
    3898:	80 91 ee 04 	lds	r24, 0x04EE
    389c:	80 7f       	andi	r24, 0xF0	; 240
    389e:	86 60       	ori	r24, 0x06	; 6
    38a0:	5e c0       	rjmp	.+188    	; 0x395e <main_fw_giveAway+0x5f8>
    38a2:	2d e1       	ldi	r18, 0x1D	; 29
    38a4:	40 e0       	ldi	r20, 0x00	; 0
    38a6:	56 e0       	ldi	r21, 0x06	; 6
    38a8:	61 e0       	ldi	r22, 0x01	; 1
    38aa:	80 e0       	ldi	r24, 0x00	; 0
    38ac:	0e 94 17 2a 	call	0x542e	; 0x542e <ringbuffer_fw_ringBufferWaitAppend>
    38b0:	80 91 ee 04 	lds	r24, 0x04EE
    38b4:	80 7f       	andi	r24, 0xF0	; 240
    38b6:	87 60       	ori	r24, 0x07	; 7
    38b8:	52 c0       	rjmp	.+164    	; 0x395e <main_fw_giveAway+0x5f8>
    38ba:	20 e2       	ldi	r18, 0x20	; 32
    38bc:	40 ee       	ldi	r20, 0xE0	; 224
    38be:	55 e0       	ldi	r21, 0x05	; 5
    38c0:	61 e0       	ldi	r22, 0x01	; 1
    38c2:	80 e0       	ldi	r24, 0x00	; 0
    38c4:	0e 94 17 2a 	call	0x542e	; 0x542e <ringbuffer_fw_ringBufferWaitAppend>
    38c8:	80 91 ee 04 	lds	r24, 0x04EE
    38cc:	80 7f       	andi	r24, 0xF0	; 240
    38ce:	88 60       	ori	r24, 0x08	; 8
    38d0:	46 c0       	rjmp	.+140    	; 0x395e <main_fw_giveAway+0x5f8>
    38d2:	2d e2       	ldi	r18, 0x2D	; 45
    38d4:	43 eb       	ldi	r20, 0xB3	; 179
    38d6:	55 e0       	ldi	r21, 0x05	; 5
    38d8:	61 e0       	ldi	r22, 0x01	; 1
    38da:	80 e0       	ldi	r24, 0x00	; 0
    38dc:	0e 94 17 2a 	call	0x542e	; 0x542e <ringbuffer_fw_ringBufferWaitAppend>
    38e0:	80 91 ee 04 	lds	r24, 0x04EE
    38e4:	80 7f       	andi	r24, 0xF0	; 240
    38e6:	89 60       	ori	r24, 0x09	; 9
    38e8:	3a c0       	rjmp	.+116    	; 0x395e <main_fw_giveAway+0x5f8>
    38ea:	25 e5       	ldi	r18, 0x55	; 85
    38ec:	4e e5       	ldi	r20, 0x5E	; 94
    38ee:	55 e0       	ldi	r21, 0x05	; 5
    38f0:	61 e0       	ldi	r22, 0x01	; 1
    38f2:	80 e0       	ldi	r24, 0x00	; 0
    38f4:	0e 94 17 2a 	call	0x542e	; 0x542e <ringbuffer_fw_ringBufferWaitAppend>
    38f8:	80 91 ee 04 	lds	r24, 0x04EE
    38fc:	80 7f       	andi	r24, 0xF0	; 240
    38fe:	8a 60       	ori	r24, 0x0A	; 10
    3900:	2e c0       	rjmp	.+92     	; 0x395e <main_fw_giveAway+0x5f8>
    3902:	2f e1       	ldi	r18, 0x1F	; 31
    3904:	4f e3       	ldi	r20, 0x3F	; 63
    3906:	55 e0       	ldi	r21, 0x05	; 5
    3908:	61 e0       	ldi	r22, 0x01	; 1
    390a:	80 e0       	ldi	r24, 0x00	; 0
    390c:	0e 94 17 2a 	call	0x542e	; 0x542e <ringbuffer_fw_ringBufferWaitAppend>
    3910:	80 91 ee 04 	lds	r24, 0x04EE
    3914:	80 7f       	andi	r24, 0xF0	; 240
    3916:	8b 60       	ori	r24, 0x0B	; 11
    3918:	22 c0       	rjmp	.+68     	; 0x395e <main_fw_giveAway+0x5f8>
    391a:	20 e3       	ldi	r18, 0x30	; 48
    391c:	4f e0       	ldi	r20, 0x0F	; 15
    391e:	55 e0       	ldi	r21, 0x05	; 5
    3920:	61 e0       	ldi	r22, 0x01	; 1
    3922:	80 e0       	ldi	r24, 0x00	; 0
    3924:	0e 94 17 2a 	call	0x542e	; 0x542e <ringbuffer_fw_ringBufferWaitAppend>
    3928:	80 91 ee 04 	lds	r24, 0x04EE
    392c:	80 7f       	andi	r24, 0xF0	; 240
    392e:	8c 60       	ori	r24, 0x0C	; 12
    3930:	16 c0       	rjmp	.+44     	; 0x395e <main_fw_giveAway+0x5f8>
    3932:	20 e3       	ldi	r18, 0x30	; 48
    3934:	4f ed       	ldi	r20, 0xDF	; 223
    3936:	54 e0       	ldi	r21, 0x04	; 4
    3938:	61 e0       	ldi	r22, 0x01	; 1
    393a:	80 e0       	ldi	r24, 0x00	; 0
    393c:	0e 94 17 2a 	call	0x542e	; 0x542e <ringbuffer_fw_ringBufferWaitAppend>
    3940:	80 91 ee 04 	lds	r24, 0x04EE
    3944:	80 7f       	andi	r24, 0xF0	; 240
    3946:	8d 60       	ori	r24, 0x0D	; 13
    3948:	0a c0       	rjmp	.+20     	; 0x395e <main_fw_giveAway+0x5f8>
    394a:	2f e0       	ldi	r18, 0x0F	; 15
    394c:	40 ed       	ldi	r20, 0xD0	; 208
    394e:	54 e0       	ldi	r21, 0x04	; 4
    3950:	61 e0       	ldi	r22, 0x01	; 1
    3952:	80 e0       	ldi	r24, 0x00	; 0
    3954:	0e 94 17 2a 	call	0x542e	; 0x542e <ringbuffer_fw_ringBufferWaitAppend>
    3958:	80 91 ee 04 	lds	r24, 0x04EE
    395c:	80 7f       	andi	r24, 0xF0	; 240
    395e:	80 93 ee 04 	sts	0x04EE, r24
    3962:	03 c0       	rjmp	.+6      	; 0x396a <main_fw_giveAway+0x604>
    3964:	81 e0       	ldi	r24, 0x01	; 1
    3966:	0e 94 3c 29 	call	0x5278	; 0x5278 <ringbuffer_fw_freeSemaphore>
    396a:	f8 94       	cli
    396c:	30 91 84 00 	lds	r19, 0x0084
    3970:	3b 83       	std	Y+3, r19	; 0x03
    3972:	80 91 85 00 	lds	r24, 0x0085
    3976:	8c 83       	std	Y+4, r24	; 0x04
    3978:	80 90 e1 04 	lds	r8, 0x04E1
    397c:	90 90 e2 04 	lds	r9, 0x04E2
    3980:	a0 90 e3 04 	lds	r10, 0x04E3
    3984:	b0 90 e4 04 	lds	r11, 0x04E4
    3988:	90 91 86 00 	lds	r25, 0x0086
    398c:	9d 83       	std	Y+5, r25	; 0x05
    398e:	e0 91 87 00 	lds	r30, 0x0087
    3992:	ee 83       	std	Y+6, r30	; 0x06
    3994:	c0 90 e5 04 	lds	r12, 0x04E5
    3998:	d0 90 e6 04 	lds	r13, 0x04E6
    399c:	e0 90 e7 04 	lds	r14, 0x04E7
    39a0:	f0 90 e8 04 	lds	r15, 0x04E8
    39a4:	78 94       	sei
    39a6:	80 91 d3 04 	lds	r24, 0x04D3
    39aa:	90 91 1a 01 	lds	r25, 0x011A
    39ae:	89 17       	cp	r24, r25
    39b0:	99 f0       	breq	.+38     	; 0x39d8 <main_fw_giveAway+0x672>
    39b2:	80 93 1a 01 	sts	0x011A, r24
    39b6:	d7 01       	movw	r26, r14
    39b8:	c6 01       	movw	r24, r12
    39ba:	87 51       	subi	r24, 0x17	; 23
    39bc:	9c 4f       	sbci	r25, 0xFC	; 252
    39be:	af 4f       	sbci	r26, 0xFF	; 255
    39c0:	bf 4f       	sbci	r27, 0xFF	; 255
    39c2:	80 93 16 01 	sts	0x0116, r24
    39c6:	90 93 17 01 	sts	0x0117, r25
    39ca:	a0 93 18 01 	sts	0x0118, r26
    39ce:	b0 93 19 01 	sts	0x0119, r27
    39d2:	33 24       	eor	r3, r3
    39d4:	33 94       	inc	r3
    39d6:	26 c0       	rjmp	.+76     	; 0x3a24 <main_fw_giveAway+0x6be>
    39d8:	80 91 16 01 	lds	r24, 0x0116
    39dc:	90 91 17 01 	lds	r25, 0x0117
    39e0:	a0 91 18 01 	lds	r26, 0x0118
    39e4:	b0 91 19 01 	lds	r27, 0x0119
    39e8:	88 16       	cp	r8, r24
    39ea:	99 06       	cpc	r9, r25
    39ec:	aa 06       	cpc	r10, r26
    39ee:	bb 06       	cpc	r11, r27
    39f0:	08 f4       	brcc	.+2      	; 0x39f4 <main_fw_giveAway+0x68e>
    39f2:	53 c4       	rjmp	.+2214   	; 0x429a <main_fw_giveAway+0xf34>
    39f4:	88 51       	subi	r24, 0x18	; 24
    39f6:	9c 4f       	sbci	r25, 0xFC	; 252
    39f8:	af 4f       	sbci	r26, 0xFF	; 255
    39fa:	bf 4f       	sbci	r27, 0xFF	; 255
    39fc:	88 16       	cp	r8, r24
    39fe:	99 06       	cpc	r9, r25
    3a00:	aa 06       	cpc	r10, r26
    3a02:	bb 06       	cpc	r11, r27
    3a04:	30 f0       	brcs	.+12     	; 0x3a12 <main_fw_giveAway+0x6ac>
    3a06:	d5 01       	movw	r26, r10
    3a08:	c4 01       	movw	r24, r8
    3a0a:	87 51       	subi	r24, 0x17	; 23
    3a0c:	9c 4f       	sbci	r25, 0xFC	; 252
    3a0e:	af 4f       	sbci	r26, 0xFF	; 255
    3a10:	bf 4f       	sbci	r27, 0xFF	; 255
    3a12:	80 93 16 01 	sts	0x0116, r24
    3a16:	90 93 17 01 	sts	0x0117, r25
    3a1a:	a0 93 18 01 	sts	0x0118, r26
    3a1e:	b0 93 19 01 	sts	0x0119, r27
    3a22:	31 2c       	mov	r3, r1
    3a24:	80 91 ed 04 	lds	r24, 0x04ED
    3a28:	82 ff       	sbrs	r24, 2
    3a2a:	3f c1       	rjmp	.+638    	; 0x3caa <main_fw_giveAway+0x944>
    3a2c:	33 20       	and	r3, r3
    3a2e:	09 f4       	brne	.+2      	; 0x3a32 <main_fw_giveAway+0x6cc>
    3a30:	c6 c0       	rjmp	.+396    	; 0x3bbe <main_fw_giveAway+0x858>
    3a32:	40 90 27 05 	lds	r4, 0x0527
    3a36:	50 90 28 05 	lds	r5, 0x0528
    3a3a:	60 90 29 05 	lds	r6, 0x0529
    3a3e:	70 90 2a 05 	lds	r7, 0x052A
    3a42:	60 91 23 03 	lds	r22, 0x0323
    3a46:	70 91 24 03 	lds	r23, 0x0324
    3a4a:	80 e0       	ldi	r24, 0x00	; 0
    3a4c:	90 e0       	ldi	r25, 0x00	; 0
    3a4e:	0e 94 ed 10 	call	0x21da	; 0x21da <__floatunsisf>
    3a52:	a3 01       	movw	r20, r6
    3a54:	92 01       	movw	r18, r4
    3a56:	0e 94 41 12 	call	0x2482	; 0x2482 <__mulsf3>
    3a5a:	20 e0       	ldi	r18, 0x00	; 0
    3a5c:	30 e0       	ldi	r19, 0x00	; 0
    3a5e:	40 e8       	ldi	r20, 0x80	; 128
    3a60:	5a e3       	ldi	r21, 0x3A	; 58
    3a62:	0e 94 41 12 	call	0x2482	; 0x2482 <__mulsf3>
    3a66:	16 2f       	mov	r17, r22
    3a68:	07 2f       	mov	r16, r23
    3a6a:	8f 83       	std	Y+7, r24	; 0x07
    3a6c:	29 2e       	mov	r2, r25
    3a6e:	60 91 25 03 	lds	r22, 0x0325
    3a72:	70 91 26 03 	lds	r23, 0x0326
    3a76:	80 e0       	ldi	r24, 0x00	; 0
    3a78:	90 e0       	ldi	r25, 0x00	; 0
    3a7a:	0e 94 ed 10 	call	0x21da	; 0x21da <__floatunsisf>
    3a7e:	a3 01       	movw	r20, r6
    3a80:	92 01       	movw	r18, r4
    3a82:	0e 94 41 12 	call	0x2482	; 0x2482 <__mulsf3>
    3a86:	20 e0       	ldi	r18, 0x00	; 0
    3a88:	30 e0       	ldi	r19, 0x00	; 0
    3a8a:	40 e8       	ldi	r20, 0x80	; 128
    3a8c:	5a e3       	ldi	r21, 0x3A	; 58
    3a8e:	0e 94 41 12 	call	0x2482	; 0x2482 <__mulsf3>
    3a92:	68 87       	std	Y+8, r22	; 0x08
    3a94:	79 87       	std	Y+9, r23	; 0x09
    3a96:	2c 01       	movw	r4, r24
    3a98:	60 91 27 03 	lds	r22, 0x0327
    3a9c:	70 91 28 03 	lds	r23, 0x0328
    3aa0:	80 e0       	ldi	r24, 0x00	; 0
    3aa2:	90 e0       	ldi	r25, 0x00	; 0
    3aa4:	0e 94 ed 10 	call	0x21da	; 0x21da <__floatunsisf>
    3aa8:	20 91 1f 05 	lds	r18, 0x051F
    3aac:	30 91 20 05 	lds	r19, 0x0520
    3ab0:	40 91 21 05 	lds	r20, 0x0521
    3ab4:	50 91 22 05 	lds	r21, 0x0522
    3ab8:	0e 94 f0 0f 	call	0x1fe0	; 0x1fe0 <__subsf3>
    3abc:	20 91 1b 05 	lds	r18, 0x051B
    3ac0:	30 91 1c 05 	lds	r19, 0x051C
    3ac4:	40 91 1d 05 	lds	r20, 0x051D
    3ac8:	50 91 1e 05 	lds	r21, 0x051E
    3acc:	0e 94 41 12 	call	0x2482	; 0x2482 <__mulsf3>
    3ad0:	20 e0       	ldi	r18, 0x00	; 0
    3ad2:	30 e0       	ldi	r19, 0x00	; 0
    3ad4:	48 ec       	ldi	r20, 0xC8	; 200
    3ad6:	51 e4       	ldi	r21, 0x41	; 65
    3ad8:	0e 94 f1 0f 	call	0x1fe2	; 0x1fe2 <__addsf3>
    3adc:	6a 87       	std	Y+10, r22	; 0x0a
    3ade:	7b 87       	std	Y+11, r23	; 0x0b
    3ae0:	8c 87       	std	Y+12, r24	; 0x0c
    3ae2:	9d 87       	std	Y+13, r25	; 0x0d
    3ae4:	2d e1       	ldi	r18, 0x1D	; 29
    3ae6:	30 e0       	ldi	r19, 0x00	; 0
    3ae8:	4f e3       	ldi	r20, 0x3F	; 63
    3aea:	54 e0       	ldi	r21, 0x04	; 4
    3aec:	69 e2       	ldi	r22, 0x29	; 41
    3aee:	73 e0       	ldi	r23, 0x03	; 3
    3af0:	81 e0       	ldi	r24, 0x01	; 1
    3af2:	0e 94 00 28 	call	0x5000	; 0x5000 <memory_fw_copyBuffer>
    3af6:	2f 92       	push	r2
    3af8:	ff 81       	ldd	r31, Y+7	; 0x07
    3afa:	ff 93       	push	r31
    3afc:	0f 93       	push	r16
    3afe:	1f 93       	push	r17
    3b00:	80 91 24 03 	lds	r24, 0x0324
    3b04:	8f 93       	push	r24
    3b06:	80 91 23 03 	lds	r24, 0x0323
    3b0a:	8f 93       	push	r24
    3b0c:	09 e2       	ldi	r16, 0x29	; 41
    3b0e:	13 e0       	ldi	r17, 0x03	; 3
    3b10:	1f 93       	push	r17
    3b12:	0f 93       	push	r16
    3b14:	59 ea       	ldi	r21, 0xA9	; 169
    3b16:	65 2e       	mov	r6, r21
    3b18:	53 e0       	ldi	r21, 0x03	; 3
    3b1a:	75 2e       	mov	r7, r21
    3b1c:	7f 92       	push	r7
    3b1e:	6f 92       	push	r6
    3b20:	0e 94 9c 14 	call	0x2938	; 0x2938 <sprintf>
    3b24:	28 2f       	mov	r18, r24
    3b26:	a3 01       	movw	r20, r6
    3b28:	60 e0       	ldi	r22, 0x00	; 0
    3b2a:	80 e0       	ldi	r24, 0x00	; 0
    3b2c:	0e 94 17 2a 	call	0x542e	; 0x542e <ringbuffer_fw_ringBufferWaitAppend>
    3b30:	2d e1       	ldi	r18, 0x1D	; 29
    3b32:	30 e0       	ldi	r19, 0x00	; 0
    3b34:	42 e2       	ldi	r20, 0x22	; 34
    3b36:	54 e0       	ldi	r21, 0x04	; 4
    3b38:	b8 01       	movw	r22, r16
    3b3a:	81 e0       	ldi	r24, 0x01	; 1
    3b3c:	0e 94 00 28 	call	0x5000	; 0x5000 <memory_fw_copyBuffer>
    3b40:	5f 92       	push	r5
    3b42:	4f 92       	push	r4
    3b44:	29 85       	ldd	r18, Y+9	; 0x09
    3b46:	2f 93       	push	r18
    3b48:	38 85       	ldd	r19, Y+8	; 0x08
    3b4a:	3f 93       	push	r19
    3b4c:	80 91 26 03 	lds	r24, 0x0326
    3b50:	8f 93       	push	r24
    3b52:	80 91 25 03 	lds	r24, 0x0325
    3b56:	8f 93       	push	r24
    3b58:	1f 93       	push	r17
    3b5a:	0f 93       	push	r16
    3b5c:	7f 92       	push	r7
    3b5e:	6f 92       	push	r6
    3b60:	0e 94 9c 14 	call	0x2938	; 0x2938 <sprintf>
    3b64:	28 2f       	mov	r18, r24
    3b66:	a3 01       	movw	r20, r6
    3b68:	60 e0       	ldi	r22, 0x00	; 0
    3b6a:	80 e0       	ldi	r24, 0x00	; 0
    3b6c:	0e 94 17 2a 	call	0x542e	; 0x542e <ringbuffer_fw_ringBufferWaitAppend>
    3b70:	2d e1       	ldi	r18, 0x1D	; 29
    3b72:	30 e0       	ldi	r19, 0x00	; 0
    3b74:	45 e0       	ldi	r20, 0x05	; 5
    3b76:	54 e0       	ldi	r21, 0x04	; 4
    3b78:	b8 01       	movw	r22, r16
    3b7a:	81 e0       	ldi	r24, 0x01	; 1
    3b7c:	0e 94 00 28 	call	0x5000	; 0x5000 <memory_fw_copyBuffer>
    3b80:	8d 85       	ldd	r24, Y+13	; 0x0d
    3b82:	8f 93       	push	r24
    3b84:	9c 85       	ldd	r25, Y+12	; 0x0c
    3b86:	9f 93       	push	r25
    3b88:	eb 85       	ldd	r30, Y+11	; 0x0b
    3b8a:	ef 93       	push	r30
    3b8c:	fa 85       	ldd	r31, Y+10	; 0x0a
    3b8e:	ff 93       	push	r31
    3b90:	80 91 28 03 	lds	r24, 0x0328
    3b94:	8f 93       	push	r24
    3b96:	80 91 27 03 	lds	r24, 0x0327
    3b9a:	8f 93       	push	r24
    3b9c:	1f 93       	push	r17
    3b9e:	0f 93       	push	r16
    3ba0:	7f 92       	push	r7
    3ba2:	6f 92       	push	r6
    3ba4:	0e 94 9c 14 	call	0x2938	; 0x2938 <sprintf>
    3ba8:	28 2f       	mov	r18, r24
    3baa:	a3 01       	movw	r20, r6
    3bac:	60 e0       	ldi	r22, 0x00	; 0
    3bae:	80 e0       	ldi	r24, 0x00	; 0
    3bb0:	0e 94 17 2a 	call	0x542e	; 0x542e <ringbuffer_fw_ringBufferWaitAppend>
    3bb4:	0f b6       	in	r0, 0x3f	; 63
    3bb6:	f8 94       	cli
    3bb8:	de bf       	out	0x3e, r29	; 62
    3bba:	0f be       	out	0x3f, r0	; 63
    3bbc:	cd bf       	out	0x3d, r28	; 61
    3bbe:	2c e6       	ldi	r18, 0x6C	; 108
    3bc0:	30 e0       	ldi	r19, 0x00	; 0
    3bc2:	49 e9       	ldi	r20, 0x99	; 153
    3bc4:	53 e0       	ldi	r21, 0x03	; 3
    3bc6:	69 e2       	ldi	r22, 0x29	; 41
    3bc8:	73 e0       	ldi	r23, 0x03	; 3
    3bca:	81 e0       	ldi	r24, 0x01	; 1
    3bcc:	0e 94 00 28 	call	0x5000	; 0x5000 <memory_fw_copyBuffer>
    3bd0:	3d 81       	ldd	r19, Y+5	; 0x05
    3bd2:	90 e0       	ldi	r25, 0x00	; 0
    3bd4:	ee 81       	ldd	r30, Y+6	; 0x06
    3bd6:	9e 2b       	or	r25, r30
    3bd8:	9f 93       	push	r25
    3bda:	3f 93       	push	r19
    3bdc:	ff 92       	push	r15
    3bde:	ef 92       	push	r14
    3be0:	df 92       	push	r13
    3be2:	cf 92       	push	r12
    3be4:	fb 81       	ldd	r31, Y+3	; 0x03
    3be6:	90 e0       	ldi	r25, 0x00	; 0
    3be8:	2c 81       	ldd	r18, Y+4	; 0x04
    3bea:	92 2b       	or	r25, r18
    3bec:	9f 93       	push	r25
    3bee:	ff 93       	push	r31
    3bf0:	bf 92       	push	r11
    3bf2:	af 92       	push	r10
    3bf4:	9f 92       	push	r9
    3bf6:	8f 92       	push	r8
    3bf8:	49 e2       	ldi	r20, 0x29	; 41
    3bfa:	a4 2e       	mov	r10, r20
    3bfc:	43 e0       	ldi	r20, 0x03	; 3
    3bfe:	b4 2e       	mov	r11, r20
    3c00:	bf 92       	push	r11
    3c02:	af 92       	push	r10
    3c04:	09 ea       	ldi	r16, 0xA9	; 169
    3c06:	13 e0       	ldi	r17, 0x03	; 3
    3c08:	1f 93       	push	r17
    3c0a:	0f 93       	push	r16
    3c0c:	0e 94 9c 14 	call	0x2938	; 0x2938 <sprintf>
    3c10:	28 2f       	mov	r18, r24
    3c12:	a8 01       	movw	r20, r16
    3c14:	60 e0       	ldi	r22, 0x00	; 0
    3c16:	80 e0       	ldi	r24, 0x00	; 0
    3c18:	0e 94 17 2a 	call	0x542e	; 0x542e <ringbuffer_fw_ringBufferWaitAppend>
    3c1c:	24 e2       	ldi	r18, 0x24	; 36
    3c1e:	30 e0       	ldi	r19, 0x00	; 0
    3c20:	45 e7       	ldi	r20, 0x75	; 117
    3c22:	53 e0       	ldi	r21, 0x03	; 3
    3c24:	b5 01       	movw	r22, r10
    3c26:	81 e0       	ldi	r24, 0x01	; 1
    3c28:	0e 94 00 28 	call	0x5000	; 0x5000 <memory_fw_copyBuffer>
    3c2c:	80 91 df 04 	lds	r24, 0x04DF
    3c30:	1f 92       	push	r1
    3c32:	8f 93       	push	r24
    3c34:	80 91 eb 04 	lds	r24, 0x04EB
    3c38:	1f 92       	push	r1
    3c3a:	8f 93       	push	r24
    3c3c:	bf 92       	push	r11
    3c3e:	af 92       	push	r10
    3c40:	1f 93       	push	r17
    3c42:	0f 93       	push	r16
    3c44:	0e 94 9c 14 	call	0x2938	; 0x2938 <sprintf>
    3c48:	28 2f       	mov	r18, r24
    3c4a:	a8 01       	movw	r20, r16
    3c4c:	60 e0       	ldi	r22, 0x00	; 0
    3c4e:	80 e0       	ldi	r24, 0x00	; 0
    3c50:	0e 94 17 2a 	call	0x542e	; 0x542e <ringbuffer_fw_ringBufferWaitAppend>
    3c54:	2d e1       	ldi	r18, 0x1D	; 29
    3c56:	30 e0       	ldi	r19, 0x00	; 0
    3c58:	48 e5       	ldi	r20, 0x58	; 88
    3c5a:	53 e0       	ldi	r21, 0x03	; 3
    3c5c:	b5 01       	movw	r22, r10
    3c5e:	81 e0       	ldi	r24, 0x01	; 1
    3c60:	0e 94 00 28 	call	0x5000	; 0x5000 <memory_fw_copyBuffer>
    3c64:	80 91 0c 05 	lds	r24, 0x050C
    3c68:	1f 92       	push	r1
    3c6a:	8f 93       	push	r24
    3c6c:	bf 92       	push	r11
    3c6e:	af 92       	push	r10
    3c70:	1f 93       	push	r17
    3c72:	0f 93       	push	r16
    3c74:	0e 94 9c 14 	call	0x2938	; 0x2938 <sprintf>
    3c78:	28 2f       	mov	r18, r24
    3c7a:	a8 01       	movw	r20, r16
    3c7c:	60 e0       	ldi	r22, 0x00	; 0
    3c7e:	80 e0       	ldi	r24, 0x00	; 0
    3c80:	0e 94 17 2a 	call	0x542e	; 0x542e <ringbuffer_fw_ringBufferWaitAppend>
    3c84:	22 e1       	ldi	r18, 0x12	; 18
    3c86:	30 e0       	ldi	r19, 0x00	; 0
    3c88:	47 e4       	ldi	r20, 0x47	; 71
    3c8a:	53 e0       	ldi	r21, 0x03	; 3
    3c8c:	b8 01       	movw	r22, r16
    3c8e:	81 e0       	ldi	r24, 0x01	; 1
    3c90:	0e 94 00 28 	call	0x5000	; 0x5000 <memory_fw_copyBuffer>
    3c94:	22 e1       	ldi	r18, 0x12	; 18
    3c96:	a8 01       	movw	r20, r16
    3c98:	60 e0       	ldi	r22, 0x00	; 0
    3c9a:	80 e0       	ldi	r24, 0x00	; 0
    3c9c:	0e 94 17 2a 	call	0x542e	; 0x542e <ringbuffer_fw_ringBufferWaitAppend>
    3ca0:	0f b6       	in	r0, 0x3f	; 63
    3ca2:	f8 94       	cli
    3ca4:	de bf       	out	0x3e, r29	; 62
    3ca6:	0f be       	out	0x3f, r0	; 63
    3ca8:	cd bf       	out	0x3d, r28	; 61
    3caa:	33 20       	and	r3, r3
    3cac:	09 f4       	brne	.+2      	; 0x3cb0 <main_fw_giveAway+0x94a>
    3cae:	6a c2       	rjmp	.+1236   	; 0x4184 <main_fw_giveAway+0xe1e>
    3cb0:	80 91 ed 04 	lds	r24, 0x04ED
    3cb4:	80 ff       	sbrs	r24, 0
    3cb6:	d3 c1       	rjmp	.+934    	; 0x405e <main_fw_giveAway+0xcf8>
    3cb8:	46 01       	movw	r8, r12
    3cba:	57 01       	movw	r10, r14
    3cbc:	aa 24       	eor	r10, r10
    3cbe:	bb 24       	eor	r11, r11
    3cc0:	a0 ee       	ldi	r26, 0xE0	; 224
    3cc2:	b1 eb       	ldi	r27, 0xB1	; 177
    3cc4:	a7 01       	movw	r20, r14
    3cc6:	96 01       	movw	r18, r12
    3cc8:	0e 94 5e 0f 	call	0x1ebc	; 0x1ebc <__mulohisi3>
    3ccc:	6b 01       	movw	r12, r22
    3cce:	7c 01       	movw	r14, r24
    3cd0:	c8 18       	sub	r12, r8
    3cd2:	d9 08       	sbc	r13, r9
    3cd4:	ea 08       	sbc	r14, r10
    3cd6:	fb 08       	sbc	r15, r11
    3cd8:	d7 01       	movw	r26, r14
    3cda:	c6 01       	movw	r24, r12
    3cdc:	89 51       	subi	r24, 0x19	; 25
    3cde:	99 42       	sbci	r25, 0x29	; 41
    3ce0:	a1 43       	sbci	r26, 0x31	; 49
    3ce2:	b1 40       	sbci	r27, 0x01	; 1
    3ce4:	8f 3c       	cpi	r24, 0xCF	; 207
    3ce6:	97 40       	sbci	r25, 0x07	; 7
    3ce8:	a1 05       	cpc	r26, r1
    3cea:	b1 05       	cpc	r27, r1
    3cec:	08 f0       	brcs	.+2      	; 0x3cf0 <main_fw_giveAway+0x98a>
    3cee:	b7 c1       	rjmp	.+878    	; 0x405e <main_fw_giveAway+0xcf8>
    3cf0:	fd e2       	ldi	r31, 0x2D	; 45
    3cf2:	df 1a       	sub	r13, r31
    3cf4:	f1 e3       	ldi	r31, 0x31	; 49
    3cf6:	ef 0a       	sbc	r14, r31
    3cf8:	f1 e0       	ldi	r31, 0x01	; 1
    3cfa:	ff 0a       	sbc	r15, r31
    3cfc:	c7 01       	movw	r24, r14
    3cfe:	b6 01       	movw	r22, r12
    3d00:	0e 94 ef 10 	call	0x21de	; 0x21de <__floatsisf>
    3d04:	4b 01       	movw	r8, r22
    3d06:	5c 01       	movw	r10, r24
    3d08:	20 e0       	ldi	r18, 0x00	; 0
    3d0a:	30 e0       	ldi	r19, 0x00	; 0
    3d0c:	40 ea       	ldi	r20, 0xA0	; 160
    3d0e:	51 e4       	ldi	r21, 0x41	; 65
    3d10:	0e 94 59 10 	call	0x20b2	; 0x20b2 <__divsf3>
    3d14:	16 2f       	mov	r17, r22
    3d16:	07 2f       	mov	r16, r23
    3d18:	78 2e       	mov	r7, r24
    3d1a:	69 2e       	mov	r6, r25
    3d1c:	80 91 ab 04 	lds	r24, 0x04AB
    3d20:	90 91 ac 04 	lds	r25, 0x04AC
    3d24:	90 93 ae 04 	sts	0x04AE, r25
    3d28:	80 93 ad 04 	sts	0x04AD, r24
    3d2c:	60 91 a9 04 	lds	r22, 0x04A9
    3d30:	70 91 aa 04 	lds	r23, 0x04AA
    3d34:	70 93 ac 04 	sts	0x04AC, r23
    3d38:	60 93 ab 04 	sts	0x04AB, r22
    3d3c:	d0 92 aa 04 	sts	0x04AA, r13
    3d40:	c0 92 a9 04 	sts	0x04A9, r12
    3d44:	68 0f       	add	r22, r24
    3d46:	79 1f       	adc	r23, r25
    3d48:	6c 0d       	add	r22, r12
    3d4a:	7d 1d       	adc	r23, r13
    3d4c:	88 27       	eor	r24, r24
    3d4e:	77 fd       	sbrc	r23, 7
    3d50:	80 95       	com	r24
    3d52:	98 2f       	mov	r25, r24
    3d54:	0e 94 ef 10 	call	0x21de	; 0x21de <__floatsisf>
    3d58:	20 e0       	ldi	r18, 0x00	; 0
    3d5a:	30 e0       	ldi	r19, 0x00	; 0
    3d5c:	40 e4       	ldi	r20, 0x40	; 64
    3d5e:	50 e4       	ldi	r21, 0x40	; 64
    3d60:	0e 94 59 10 	call	0x20b2	; 0x20b2 <__divsf3>
    3d64:	26 2e       	mov	r2, r22
    3d66:	57 2e       	mov	r5, r23
    3d68:	48 2e       	mov	r4, r24
    3d6a:	39 2e       	mov	r3, r25
    3d6c:	80 91 0c 05 	lds	r24, 0x050C
    3d70:	83 30       	cpi	r24, 0x03	; 3
    3d72:	20 f0       	brcs	.+8      	; 0x3d7c <main_fw_giveAway+0xa16>
    3d74:	82 2c       	mov	r8, r2
    3d76:	95 2c       	mov	r9, r5
    3d78:	a4 2c       	mov	r10, r4
    3d7a:	b3 2c       	mov	r11, r3
    3d7c:	0e 94 cf 18 	call	0x319e	; 0x319e <main_fw_calcPwmWghtAvg>
    3d80:	c5 01       	movw	r24, r10
    3d82:	b4 01       	movw	r22, r8
    3d84:	90 58       	subi	r25, 0x80	; 128
    3d86:	20 e0       	ldi	r18, 0x00	; 0
    3d88:	30 e0       	ldi	r19, 0x00	; 0
    3d8a:	40 e0       	ldi	r20, 0x00	; 0
    3d8c:	53 e4       	ldi	r21, 0x43	; 67
    3d8e:	0e 94 41 12 	call	0x2482	; 0x2482 <__mulsf3>
    3d92:	4b 01       	movw	r8, r22
    3d94:	5c 01       	movw	r10, r24
    3d96:	20 91 27 05 	lds	r18, 0x0527
    3d9a:	30 91 28 05 	lds	r19, 0x0528
    3d9e:	40 91 29 05 	lds	r20, 0x0529
    3da2:	50 91 2a 05 	lds	r21, 0x052A
    3da6:	60 91 17 05 	lds	r22, 0x0517
    3daa:	70 91 18 05 	lds	r23, 0x0518
    3dae:	80 91 19 05 	lds	r24, 0x0519
    3db2:	90 91 1a 05 	lds	r25, 0x051A
    3db6:	0e 94 41 12 	call	0x2482	; 0x2482 <__mulsf3>
    3dba:	9b 01       	movw	r18, r22
    3dbc:	ac 01       	movw	r20, r24
    3dbe:	c5 01       	movw	r24, r10
    3dc0:	b4 01       	movw	r22, r8
    3dc2:	0e 94 59 10 	call	0x20b2	; 0x20b2 <__divsf3>
    3dc6:	6c 83       	std	Y+4, r22	; 0x04
    3dc8:	7d 83       	std	Y+5, r23	; 0x05
    3dca:	8e 83       	std	Y+6, r24	; 0x06
    3dcc:	9f 83       	std	Y+7, r25	; 0x07
    3dce:	0e 94 9d 18 	call	0x313a	; 0x313a <main_fw_calcPwmWghtDiff>
    3dd2:	6b 83       	std	Y+3, r22	; 0x03
    3dd4:	a7 2e       	mov	r10, r23
    3dd6:	98 2e       	mov	r9, r24
    3dd8:	89 2e       	mov	r8, r25
    3dda:	20 e0       	ldi	r18, 0x00	; 0
    3ddc:	30 e0       	ldi	r19, 0x00	; 0
    3dde:	40 e8       	ldi	r20, 0x80	; 128
    3de0:	5e eb       	ldi	r21, 0xBE	; 190
    3de2:	d8 01       	movw	r26, r16
    3de4:	f3 01       	movw	r30, r6
    3de6:	6b 2f       	mov	r22, r27
    3de8:	70 2f       	mov	r23, r16
    3dea:	8f 2f       	mov	r24, r31
    3dec:	96 2d       	mov	r25, r6
    3dee:	0e 94 f2 11 	call	0x23e4	; 0x23e4 <__gesf2>
    3df2:	87 fd       	sbrc	r24, 7
    3df4:	15 c0       	rjmp	.+42     	; 0x3e20 <main_fw_giveAway+0xaba>
    3df6:	2a e9       	ldi	r18, 0x9A	; 154
    3df8:	39 e9       	ldi	r19, 0x99	; 153
    3dfa:	49 e1       	ldi	r20, 0x19	; 25
    3dfc:	5e e3       	ldi	r21, 0x3E	; 62
    3dfe:	d8 01       	movw	r26, r16
    3e00:	f3 01       	movw	r30, r6
    3e02:	6b 2f       	mov	r22, r27
    3e04:	70 2f       	mov	r23, r16
    3e06:	8f 2f       	mov	r24, r31
    3e08:	96 2d       	mov	r25, r6
    3e0a:	0e 94 55 10 	call	0x20aa	; 0x20aa <__cmpsf2>
    3e0e:	18 16       	cp	r1, r24
    3e10:	3c f0       	brlt	.+14     	; 0x3e20 <main_fw_giveAway+0xaba>
    3e12:	80 91 0c 05 	lds	r24, 0x050C
    3e16:	83 30       	cpi	r24, 0x03	; 3
    3e18:	08 f0       	brcs	.+2      	; 0x3e1c <main_fw_giveAway+0xab6>
    3e1a:	6c c0       	rjmp	.+216    	; 0x3ef4 <main_fw_giveAway+0xb8e>
    3e1c:	83 e0       	ldi	r24, 0x03	; 3
    3e1e:	44 c0       	rjmp	.+136    	; 0x3ea8 <main_fw_giveAway+0xb42>
    3e20:	23 e3       	ldi	r18, 0x33	; 51
    3e22:	33 e3       	ldi	r19, 0x33	; 51
    3e24:	43 eb       	ldi	r20, 0xB3	; 179
    3e26:	5e eb       	ldi	r21, 0xBE	; 190
    3e28:	d8 01       	movw	r26, r16
    3e2a:	f3 01       	movw	r30, r6
    3e2c:	6b 2f       	mov	r22, r27
    3e2e:	70 2f       	mov	r23, r16
    3e30:	8f 2f       	mov	r24, r31
    3e32:	96 2d       	mov	r25, r6
    3e34:	0e 94 f2 11 	call	0x23e4	; 0x23e4 <__gesf2>
    3e38:	87 fd       	sbrc	r24, 7
    3e3a:	15 c0       	rjmp	.+42     	; 0x3e66 <main_fw_giveAway+0xb00>
    3e3c:	23 e3       	ldi	r18, 0x33	; 51
    3e3e:	33 e3       	ldi	r19, 0x33	; 51
    3e40:	43 eb       	ldi	r20, 0xB3	; 179
    3e42:	5e e3       	ldi	r21, 0x3E	; 62
    3e44:	d8 01       	movw	r26, r16
    3e46:	f3 01       	movw	r30, r6
    3e48:	6b 2f       	mov	r22, r27
    3e4a:	70 2f       	mov	r23, r16
    3e4c:	8f 2f       	mov	r24, r31
    3e4e:	96 2d       	mov	r25, r6
    3e50:	0e 94 55 10 	call	0x20aa	; 0x20aa <__cmpsf2>
    3e54:	18 16       	cp	r1, r24
    3e56:	3c f0       	brlt	.+14     	; 0x3e66 <main_fw_giveAway+0xb00>
    3e58:	80 91 0c 05 	lds	r24, 0x050C
    3e5c:	82 30       	cpi	r24, 0x02	; 2
    3e5e:	09 f4       	brne	.+2      	; 0x3e62 <main_fw_giveAway+0xafc>
    3e60:	49 c0       	rjmp	.+146    	; 0x3ef4 <main_fw_giveAway+0xb8e>
    3e62:	82 e0       	ldi	r24, 0x02	; 2
    3e64:	21 c0       	rjmp	.+66     	; 0x3ea8 <main_fw_giveAway+0xb42>
    3e66:	20 e0       	ldi	r18, 0x00	; 0
    3e68:	30 e0       	ldi	r19, 0x00	; 0
    3e6a:	40 e0       	ldi	r20, 0x00	; 0
    3e6c:	5f eb       	ldi	r21, 0xBF	; 191
    3e6e:	d8 01       	movw	r26, r16
    3e70:	f3 01       	movw	r30, r6
    3e72:	6b 2f       	mov	r22, r27
    3e74:	70 2f       	mov	r23, r16
    3e76:	8f 2f       	mov	r24, r31
    3e78:	96 2d       	mov	r25, r6
    3e7a:	0e 94 f2 11 	call	0x23e4	; 0x23e4 <__gesf2>
    3e7e:	87 fd       	sbrc	r24, 7
    3e80:	16 c0       	rjmp	.+44     	; 0x3eae <main_fw_giveAway+0xb48>
    3e82:	20 e0       	ldi	r18, 0x00	; 0
    3e84:	30 e0       	ldi	r19, 0x00	; 0
    3e86:	40 e0       	ldi	r20, 0x00	; 0
    3e88:	5f e3       	ldi	r21, 0x3F	; 63
    3e8a:	d8 01       	movw	r26, r16
    3e8c:	f3 01       	movw	r30, r6
    3e8e:	6b 2f       	mov	r22, r27
    3e90:	70 2f       	mov	r23, r16
    3e92:	8f 2f       	mov	r24, r31
    3e94:	96 2d       	mov	r25, r6
    3e96:	0e 94 55 10 	call	0x20aa	; 0x20aa <__cmpsf2>
    3e9a:	18 16       	cp	r1, r24
    3e9c:	44 f0       	brlt	.+16     	; 0x3eae <main_fw_giveAway+0xb48>
    3e9e:	80 91 0c 05 	lds	r24, 0x050C
    3ea2:	82 30       	cpi	r24, 0x02	; 2
    3ea4:	38 f1       	brcs	.+78     	; 0x3ef4 <main_fw_giveAway+0xb8e>
    3ea6:	81 e0       	ldi	r24, 0x01	; 1
    3ea8:	80 93 0c 05 	sts	0x050C, r24
    3eac:	23 c0       	rjmp	.+70     	; 0x3ef4 <main_fw_giveAway+0xb8e>
    3eae:	20 e0       	ldi	r18, 0x00	; 0
    3eb0:	30 e0       	ldi	r19, 0x00	; 0
    3eb2:	48 ec       	ldi	r20, 0xC8	; 200
    3eb4:	51 ec       	ldi	r21, 0xC1	; 193
    3eb6:	d8 01       	movw	r26, r16
    3eb8:	f3 01       	movw	r30, r6
    3eba:	6b 2f       	mov	r22, r27
    3ebc:	70 2f       	mov	r23, r16
    3ebe:	8f 2f       	mov	r24, r31
    3ec0:	96 2d       	mov	r25, r6
    3ec2:	0e 94 f2 11 	call	0x23e4	; 0x23e4 <__gesf2>
    3ec6:	87 fd       	sbrc	r24, 7
    3ec8:	13 c0       	rjmp	.+38     	; 0x3ef0 <main_fw_giveAway+0xb8a>
    3eca:	20 e0       	ldi	r18, 0x00	; 0
    3ecc:	30 e0       	ldi	r19, 0x00	; 0
    3ece:	48 ec       	ldi	r20, 0xC8	; 200
    3ed0:	51 e4       	ldi	r21, 0x41	; 65
    3ed2:	d8 01       	movw	r26, r16
    3ed4:	f3 01       	movw	r30, r6
    3ed6:	6b 2f       	mov	r22, r27
    3ed8:	70 2f       	mov	r23, r16
    3eda:	8f 2f       	mov	r24, r31
    3edc:	96 2d       	mov	r25, r6
    3ede:	0e 94 55 10 	call	0x20aa	; 0x20aa <__cmpsf2>
    3ee2:	18 16       	cp	r1, r24
    3ee4:	2c f0       	brlt	.+10     	; 0x3ef0 <main_fw_giveAway+0xb8a>
    3ee6:	80 91 0c 05 	lds	r24, 0x050C
    3eea:	81 30       	cpi	r24, 0x01	; 1
    3eec:	e1 f6       	brne	.-72     	; 0x3ea6 <main_fw_giveAway+0xb40>
    3eee:	02 c0       	rjmp	.+4      	; 0x3ef4 <main_fw_giveAway+0xb8e>
    3ef0:	10 92 0c 05 	sts	0x050C, r1
    3ef4:	f8 94       	cli
    3ef6:	b0 90 eb 04 	lds	r11, 0x04EB
    3efa:	80 91 df 04 	lds	r24, 0x04DF
    3efe:	89 83       	std	Y+1, r24	; 0x01
    3f00:	78 94       	sei
    3f02:	80 91 ed 04 	lds	r24, 0x04ED
    3f06:	80 ff       	sbrs	r24, 0
    3f08:	1a c0       	rjmp	.+52     	; 0x3f3e <main_fw_giveAway+0xbd8>
    3f0a:	80 91 0c 05 	lds	r24, 0x050C
    3f0e:	84 30       	cpi	r24, 0x04	; 4
    3f10:	b0 f4       	brcc	.+44     	; 0x3f3e <main_fw_giveAway+0xbd8>
    3f12:	7b 81       	ldd	r23, Y+3	; 0x03
    3f14:	c4 01       	movw	r24, r8
    3f16:	27 2f       	mov	r18, r23
    3f18:	3a 2d       	mov	r19, r10
    3f1a:	49 2f       	mov	r20, r25
    3f1c:	58 2d       	mov	r21, r8
    3f1e:	6b 2d       	mov	r22, r11
    3f20:	ce 01       	movw	r24, r28
    3f22:	01 96       	adiw	r24, 0x01	; 1
    3f24:	0e 94 27 18 	call	0x304e	; 0x304e <calcTimerAdj>
    3f28:	b8 2e       	mov	r11, r24
    3f2a:	f8 94       	cli
    3f2c:	80 93 eb 04 	sts	0x04EB, r24
    3f30:	89 81       	ldd	r24, Y+1	; 0x01
    3f32:	80 93 df 04 	sts	0x04DF, r24
    3f36:	8b 2d       	mov	r24, r11
    3f38:	0e 94 a1 2c 	call	0x5942	; 0x5942 <clkPullPwm_fw_setRatio>
    3f3c:	78 94       	sei
    3f3e:	80 91 15 05 	lds	r24, 0x0515
    3f42:	e8 2f       	mov	r30, r24
    3f44:	f0 e0       	ldi	r31, 0x00	; 0
    3f46:	e1 55       	subi	r30, 0x51	; 81
    3f48:	fb 4f       	sbci	r31, 0xFB	; 251
    3f4a:	90 91 eb 04 	lds	r25, 0x04EB
    3f4e:	90 83       	st	Z, r25
    3f50:	8f 5f       	subi	r24, 0xFF	; 255
    3f52:	8f 70       	andi	r24, 0x0F	; 15
    3f54:	80 93 15 05 	sts	0x0515, r24
    3f58:	80 91 ed 04 	lds	r24, 0x04ED
    3f5c:	82 ff       	sbrs	r24, 2
    3f5e:	7f c0       	rjmp	.+254    	; 0x405e <main_fw_giveAway+0xcf8>
    3f60:	22 e7       	ldi	r18, 0x72	; 114
    3f62:	30 e0       	ldi	r19, 0x00	; 0
    3f64:	48 e0       	ldi	r20, 0x08	; 8
    3f66:	52 e0       	ldi	r21, 0x02	; 2
    3f68:	69 e2       	ldi	r22, 0x29	; 41
    3f6a:	73 e0       	ldi	r23, 0x03	; 3
    3f6c:	81 e0       	ldi	r24, 0x01	; 1
    3f6e:	0e 94 00 28 	call	0x5000	; 0x5000 <memory_fw_copyBuffer>
    3f72:	6f 92       	push	r6
    3f74:	7f 92       	push	r7
    3f76:	0f 93       	push	r16
    3f78:	1f 93       	push	r17
    3f7a:	d7 01       	movw	r26, r14
    3f7c:	c6 01       	movw	r24, r12
    3f7e:	b5 95       	asr	r27
    3f80:	a7 95       	ror	r26
    3f82:	97 95       	ror	r25
    3f84:	87 95       	ror	r24
    3f86:	9f 93       	push	r25
    3f88:	8f 93       	push	r24
    3f8a:	3f 92       	push	r3
    3f8c:	4f 92       	push	r4
    3f8e:	5f 92       	push	r5
    3f90:	2f 92       	push	r2
    3f92:	ff 92       	push	r15
    3f94:	ef 92       	push	r14
    3f96:	df 92       	push	r13
    3f98:	cf 92       	push	r12
    3f9a:	39 e2       	ldi	r19, 0x29	; 41
    3f9c:	e3 2e       	mov	r14, r19
    3f9e:	33 e0       	ldi	r19, 0x03	; 3
    3fa0:	f3 2e       	mov	r15, r19
    3fa2:	ff 92       	push	r15
    3fa4:	ef 92       	push	r14
    3fa6:	09 ea       	ldi	r16, 0xA9	; 169
    3fa8:	13 e0       	ldi	r17, 0x03	; 3
    3faa:	1f 93       	push	r17
    3fac:	0f 93       	push	r16
    3fae:	0e 94 9c 14 	call	0x2938	; 0x2938 <sprintf>
    3fb2:	28 2f       	mov	r18, r24
    3fb4:	a8 01       	movw	r20, r16
    3fb6:	60 e0       	ldi	r22, 0x00	; 0
    3fb8:	80 e0       	ldi	r24, 0x00	; 0
    3fba:	0e 94 17 2a 	call	0x542e	; 0x542e <ringbuffer_fw_ringBufferWaitAppend>
    3fbe:	2f e6       	ldi	r18, 0x6F	; 111
    3fc0:	30 e0       	ldi	r19, 0x00	; 0
    3fc2:	49 e9       	ldi	r20, 0x99	; 153
    3fc4:	51 e0       	ldi	r21, 0x01	; 1
    3fc6:	b7 01       	movw	r22, r14
    3fc8:	81 e0       	ldi	r24, 0x01	; 1
    3fca:	0e 94 00 28 	call	0x5000	; 0x5000 <memory_fw_copyBuffer>
    3fce:	6b 2d       	mov	r22, r11
    3fd0:	70 e0       	ldi	r23, 0x00	; 0
    3fd2:	80 e0       	ldi	r24, 0x00	; 0
    3fd4:	90 e0       	ldi	r25, 0x00	; 0
    3fd6:	0e 94 ef 10 	call	0x21de	; 0x21de <__floatsisf>
    3fda:	2b 01       	movw	r4, r22
    3fdc:	3c 01       	movw	r6, r24
    3fde:	69 81       	ldd	r22, Y+1	; 0x01
    3fe0:	70 e0       	ldi	r23, 0x00	; 0
    3fe2:	80 e0       	ldi	r24, 0x00	; 0
    3fe4:	90 e0       	ldi	r25, 0x00	; 0
    3fe6:	0e 94 ef 10 	call	0x21de	; 0x21de <__floatsisf>
    3fea:	20 e0       	ldi	r18, 0x00	; 0
    3fec:	30 e0       	ldi	r19, 0x00	; 0
    3fee:	40 e8       	ldi	r20, 0x80	; 128
    3ff0:	5b e3       	ldi	r21, 0x3B	; 59
    3ff2:	0e 94 41 12 	call	0x2482	; 0x2482 <__mulsf3>
    3ff6:	9b 01       	movw	r18, r22
    3ff8:	ac 01       	movw	r20, r24
    3ffa:	c3 01       	movw	r24, r6
    3ffc:	b2 01       	movw	r22, r4
    3ffe:	0e 94 f1 0f 	call	0x1fe2	; 0x1fe2 <__addsf3>
    4002:	9f 93       	push	r25
    4004:	8f 93       	push	r24
    4006:	7f 93       	push	r23
    4008:	6f 93       	push	r22
    400a:	8f 92       	push	r8
    400c:	9f 92       	push	r9
    400e:	af 92       	push	r10
    4010:	2b 81       	ldd	r18, Y+3	; 0x03
    4012:	2f 93       	push	r18
    4014:	3f 81       	ldd	r19, Y+7	; 0x07
    4016:	3f 93       	push	r19
    4018:	8e 81       	ldd	r24, Y+6	; 0x06
    401a:	8f 93       	push	r24
    401c:	9d 81       	ldd	r25, Y+5	; 0x05
    401e:	9f 93       	push	r25
    4020:	ec 81       	ldd	r30, Y+4	; 0x04
    4022:	ef 93       	push	r30
    4024:	80 91 14 05 	lds	r24, 0x0514
    4028:	8f 93       	push	r24
    402a:	80 91 13 05 	lds	r24, 0x0513
    402e:	8f 93       	push	r24
    4030:	80 91 12 05 	lds	r24, 0x0512
    4034:	8f 93       	push	r24
    4036:	80 91 11 05 	lds	r24, 0x0511
    403a:	8f 93       	push	r24
    403c:	ff 92       	push	r15
    403e:	ef 92       	push	r14
    4040:	1f 93       	push	r17
    4042:	0f 93       	push	r16
    4044:	0e 94 9c 14 	call	0x2938	; 0x2938 <sprintf>
    4048:	0f b6       	in	r0, 0x3f	; 63
    404a:	f8 94       	cli
    404c:	de bf       	out	0x3e, r29	; 62
    404e:	0f be       	out	0x3f, r0	; 63
    4050:	cd bf       	out	0x3d, r28	; 61
    4052:	28 2f       	mov	r18, r24
    4054:	a8 01       	movw	r20, r16
    4056:	60 e0       	ldi	r22, 0x00	; 0
    4058:	80 e0       	ldi	r24, 0x00	; 0
    405a:	0e 94 17 2a 	call	0x542e	; 0x542e <ringbuffer_fw_ringBufferWaitAppend>
    405e:	80 91 ed 04 	lds	r24, 0x04ED
    4062:	81 ff       	sbrs	r24, 1
    4064:	8f c0       	rjmp	.+286    	; 0x4184 <main_fw_giveAway+0xe1e>
    4066:	30 91 0c 05 	lds	r19, 0x050C
    406a:	33 30       	cpi	r19, 0x03	; 3
    406c:	08 f4       	brcc	.+2      	; 0x4070 <main_fw_giveAway+0xd0a>
    406e:	8a c0       	rjmp	.+276    	; 0x4184 <main_fw_giveAway+0xe1e>
    4070:	40 91 25 03 	lds	r20, 0x0325
    4074:	50 91 26 03 	lds	r21, 0x0326
    4078:	80 91 12 01 	lds	r24, 0x0112
    407c:	90 91 13 01 	lds	r25, 0x0113
    4080:	a0 91 14 01 	lds	r26, 0x0114
    4084:	b0 91 15 01 	lds	r27, 0x0115
    4088:	84 0f       	add	r24, r20
    408a:	95 1f       	adc	r25, r21
    408c:	a1 1d       	adc	r26, r1
    408e:	b1 1d       	adc	r27, r1
    4090:	80 93 12 01 	sts	0x0112, r24
    4094:	90 93 13 01 	sts	0x0113, r25
    4098:	a0 93 14 01 	sts	0x0114, r26
    409c:	b0 93 15 01 	sts	0x0115, r27
    40a0:	20 91 11 01 	lds	r18, 0x0111
    40a4:	20 31       	cpi	r18, 0x10	; 16
    40a6:	21 f0       	breq	.+8      	; 0x40b0 <main_fw_giveAway+0xd4a>
    40a8:	2f 5f       	subi	r18, 0xFF	; 255
    40aa:	20 93 11 01 	sts	0x0111, r18
    40ae:	6a c0       	rjmp	.+212    	; 0x4184 <main_fw_giveAway+0xe1e>
    40b0:	10 92 11 01 	sts	0x0111, r1
    40b4:	40 91 db 04 	lds	r20, 0x04DB
    40b8:	50 91 dc 04 	lds	r21, 0x04DC
    40bc:	60 91 dd 04 	lds	r22, 0x04DD
    40c0:	70 91 de 04 	lds	r23, 0x04DE
    40c4:	40 93 d7 04 	sts	0x04D7, r20
    40c8:	50 93 d8 04 	sts	0x04D8, r21
    40cc:	60 93 d9 04 	sts	0x04D9, r22
    40d0:	70 93 da 04 	sts	0x04DA, r23
    40d4:	80 93 db 04 	sts	0x04DB, r24
    40d8:	90 93 dc 04 	sts	0x04DC, r25
    40dc:	a0 93 dd 04 	sts	0x04DD, r26
    40e0:	b0 93 de 04 	sts	0x04DE, r27
    40e4:	10 92 12 01 	sts	0x0112, r1
    40e8:	10 92 13 01 	sts	0x0113, r1
    40ec:	10 92 14 01 	sts	0x0114, r1
    40f0:	10 92 15 01 	sts	0x0115, r1
    40f4:	6c 01       	movw	r12, r24
    40f6:	7d 01       	movw	r14, r26
    40f8:	e1 ee       	ldi	r30, 0xE1	; 225
    40fa:	ce 1a       	sub	r12, r30
    40fc:	e1 e0       	ldi	r30, 0x01	; 1
    40fe:	de 0a       	sbc	r13, r30
    4100:	e1 08       	sbc	r14, r1
    4102:	f1 08       	sbc	r15, r1
    4104:	ff ef       	ldi	r31, 0xFF	; 255
    4106:	cf 16       	cp	r12, r31
    4108:	fe e0       	ldi	r31, 0x0E	; 14
    410a:	df 06       	cpc	r13, r31
    410c:	e1 04       	cpc	r14, r1
    410e:	f1 04       	cpc	r15, r1
    4110:	90 f5       	brcc	.+100    	; 0x4176 <main_fw_giveAway+0xe10>
    4112:	fc 01       	movw	r30, r24
    4114:	e4 1b       	sub	r30, r20
    4116:	f5 0b       	sbc	r31, r21
    4118:	af 01       	movw	r20, r30
    411a:	bf 01       	movw	r22, r30
    411c:	64 5d       	subi	r22, 0xD4	; 212
    411e:	7e 4f       	sbci	r23, 0xFE	; 254
    4120:	69 35       	cpi	r22, 0x59	; 89
    4122:	72 40       	sbci	r23, 0x02	; 2
    4124:	28 f4       	brcc	.+10     	; 0x4130 <main_fw_giveAway+0xdca>
    4126:	50 93 d6 04 	sts	0x04D6, r21
    412a:	40 93 d5 04 	sts	0x04D5, r20
    412e:	04 c0       	rjmp	.+8      	; 0x4138 <main_fw_giveAway+0xdd2>
    4130:	10 92 d6 04 	sts	0x04D6, r1
    4134:	10 92 d5 04 	sts	0x04D5, r1
    4138:	37 30       	cpi	r19, 0x07	; 7
    413a:	18 f4       	brcc	.+6      	; 0x4142 <main_fw_giveAway+0xddc>
    413c:	27 e0       	ldi	r18, 0x07	; 7
    413e:	20 93 0c 05 	sts	0x050C, r18
    4142:	80 36       	cpi	r24, 0x60	; 96
    4144:	29 e0       	ldi	r18, 0x09	; 9
    4146:	92 07       	cpc	r25, r18
    4148:	a1 05       	cpc	r26, r1
    414a:	b1 05       	cpc	r27, r1
    414c:	40 f4       	brcc	.+16     	; 0x415e <main_fw_giveAway+0xdf8>
    414e:	80 91 d5 04 	lds	r24, 0x04D5
    4152:	90 91 d6 04 	lds	r25, 0x04D6
    4156:	8d 3f       	cpi	r24, 0xFD	; 253
    4158:	9f 4f       	sbci	r25, 0xFF	; 255
    415a:	94 f4       	brge	.+36     	; 0x4180 <main_fw_giveAway+0xe1a>
    415c:	13 c0       	rjmp	.+38     	; 0x4184 <main_fw_giveAway+0xe1e>
    415e:	80 36       	cpi	r24, 0x60	; 96
    4160:	99 40       	sbci	r25, 0x09	; 9
    4162:	a1 05       	cpc	r26, r1
    4164:	b1 05       	cpc	r27, r1
    4166:	61 f0       	breq	.+24     	; 0x4180 <main_fw_giveAway+0xe1a>
    4168:	80 91 d5 04 	lds	r24, 0x04D5
    416c:	90 91 d6 04 	lds	r25, 0x04D6
    4170:	04 97       	sbiw	r24, 0x04	; 4
    4172:	44 f4       	brge	.+16     	; 0x4184 <main_fw_giveAway+0xe1e>
    4174:	05 c0       	rjmp	.+10     	; 0x4180 <main_fw_giveAway+0xe1a>
    4176:	37 30       	cpi	r19, 0x07	; 7
    4178:	28 f0       	brcs	.+10     	; 0x4184 <main_fw_giveAway+0xe1e>
    417a:	83 e0       	ldi	r24, 0x03	; 3
    417c:	80 93 0c 05 	sts	0x050C, r24
    4180:	2c 98       	cbi	0x05, 4	; 5
    4182:	2d 98       	cbi	0x05, 5	; 5
    4184:	20 e0       	ldi	r18, 0x00	; 0
    4186:	30 e0       	ldi	r19, 0x00	; 0
    4188:	a9 01       	movw	r20, r18
    418a:	60 91 08 05 	lds	r22, 0x0508
    418e:	70 91 09 05 	lds	r23, 0x0509
    4192:	80 91 0a 05 	lds	r24, 0x050A
    4196:	90 91 0b 05 	lds	r25, 0x050B
    419a:	0e 94 55 10 	call	0x20aa	; 0x20aa <__cmpsf2>
    419e:	88 23       	and	r24, r24
    41a0:	09 f4       	brne	.+2      	; 0x41a4 <main_fw_giveAway+0xe3e>
    41a2:	7b c0       	rjmp	.+246    	; 0x429a <main_fw_giveAway+0xf34>
    41a4:	f8 94       	cli
    41a6:	10 91 eb 04 	lds	r17, 0x04EB
    41aa:	00 91 df 04 	lds	r16, 0x04DF
    41ae:	78 94       	sei
    41b0:	09 83       	std	Y+1, r16	; 0x01
    41b2:	20 91 08 05 	lds	r18, 0x0508
    41b6:	30 91 09 05 	lds	r19, 0x0509
    41ba:	40 91 0a 05 	lds	r20, 0x050A
    41be:	50 91 0b 05 	lds	r21, 0x050B
    41c2:	61 2f       	mov	r22, r17
    41c4:	ce 01       	movw	r24, r28
    41c6:	01 96       	adiw	r24, 0x01	; 1
    41c8:	0e 94 27 18 	call	0x304e	; 0x304e <calcTimerAdj>
    41cc:	d8 2e       	mov	r13, r24
    41ce:	f8 94       	cli
    41d0:	80 93 eb 04 	sts	0x04EB, r24
    41d4:	0e 94 a1 2c 	call	0x5942	; 0x5942 <clkPullPwm_fw_setRatio>
    41d8:	89 81       	ldd	r24, Y+1	; 0x01
    41da:	80 93 df 04 	sts	0x04DF, r24
    41de:	78 94       	sei
    41e0:	26 e6       	ldi	r18, 0x66	; 102
    41e2:	30 e0       	ldi	r19, 0x00	; 0
    41e4:	41 ee       	ldi	r20, 0xE1	; 225
    41e6:	52 e0       	ldi	r21, 0x02	; 2
    41e8:	69 e2       	ldi	r22, 0x29	; 41
    41ea:	73 e0       	ldi	r23, 0x03	; 3
    41ec:	81 e0       	ldi	r24, 0x01	; 1
    41ee:	0e 94 00 28 	call	0x5000	; 0x5000 <memory_fw_copyBuffer>
    41f2:	1f 92       	push	r1
    41f4:	0f 93       	push	r16
    41f6:	1f 92       	push	r1
    41f8:	1f 93       	push	r17
    41fa:	80 91 0b 05 	lds	r24, 0x050B
    41fe:	8f 93       	push	r24
    4200:	80 91 0a 05 	lds	r24, 0x050A
    4204:	8f 93       	push	r24
    4206:	80 91 09 05 	lds	r24, 0x0509
    420a:	8f 93       	push	r24
    420c:	80 91 08 05 	lds	r24, 0x0508
    4210:	8f 93       	push	r24
    4212:	89 e2       	ldi	r24, 0x29	; 41
    4214:	e8 2e       	mov	r14, r24
    4216:	83 e0       	ldi	r24, 0x03	; 3
    4218:	f8 2e       	mov	r15, r24
    421a:	ff 92       	push	r15
    421c:	ef 92       	push	r14
    421e:	09 ea       	ldi	r16, 0xA9	; 169
    4220:	13 e0       	ldi	r17, 0x03	; 3
    4222:	1f 93       	push	r17
    4224:	0f 93       	push	r16
    4226:	0e 94 9c 14 	call	0x2938	; 0x2938 <sprintf>
    422a:	28 2f       	mov	r18, r24
    422c:	a8 01       	movw	r20, r16
    422e:	60 e0       	ldi	r22, 0x00	; 0
    4230:	80 e0       	ldi	r24, 0x00	; 0
    4232:	0e 94 17 2a 	call	0x542e	; 0x542e <ringbuffer_fw_ringBufferWaitAppend>
    4236:	27 e6       	ldi	r18, 0x67	; 103
    4238:	30 e0       	ldi	r19, 0x00	; 0
    423a:	4a e7       	ldi	r20, 0x7A	; 122
    423c:	52 e0       	ldi	r21, 0x02	; 2
    423e:	b7 01       	movw	r22, r14
    4240:	81 e0       	ldi	r24, 0x01	; 1
    4242:	0e 94 00 28 	call	0x5000	; 0x5000 <memory_fw_copyBuffer>
    4246:	89 81       	ldd	r24, Y+1	; 0x01
    4248:	1f 92       	push	r1
    424a:	8f 93       	push	r24
    424c:	1f 92       	push	r1
    424e:	df 92       	push	r13
    4250:	80 91 0b 05 	lds	r24, 0x050B
    4254:	8f 93       	push	r24
    4256:	80 91 0a 05 	lds	r24, 0x050A
    425a:	8f 93       	push	r24
    425c:	80 91 09 05 	lds	r24, 0x0509
    4260:	8f 93       	push	r24
    4262:	80 91 08 05 	lds	r24, 0x0508
    4266:	8f 93       	push	r24
    4268:	ff 92       	push	r15
    426a:	ef 92       	push	r14
    426c:	1f 93       	push	r17
    426e:	0f 93       	push	r16
    4270:	0e 94 9c 14 	call	0x2938	; 0x2938 <sprintf>
    4274:	28 2f       	mov	r18, r24
    4276:	a8 01       	movw	r20, r16
    4278:	60 e0       	ldi	r22, 0x00	; 0
    427a:	80 e0       	ldi	r24, 0x00	; 0
    427c:	0e 94 17 2a 	call	0x542e	; 0x542e <ringbuffer_fw_ringBufferWaitAppend>
    4280:	10 92 08 05 	sts	0x0508, r1
    4284:	10 92 09 05 	sts	0x0509, r1
    4288:	10 92 0a 05 	sts	0x050A, r1
    428c:	10 92 0b 05 	sts	0x050B, r1
    4290:	0f b6       	in	r0, 0x3f	; 63
    4292:	f8 94       	cli
    4294:	de bf       	out	0x3e, r29	; 62
    4296:	0f be       	out	0x3f, r0	; 63
    4298:	cd bf       	out	0x3d, r28	; 61
    429a:	0e 94 a9 2c 	call	0x5952	; 0x5952 <clkPullPwm_fw_togglePin>
    429e:	2d 96       	adiw	r28, 0x0d	; 13
    42a0:	0f b6       	in	r0, 0x3f	; 63
    42a2:	f8 94       	cli
    42a4:	de bf       	out	0x3e, r29	; 62
    42a6:	0f be       	out	0x3f, r0	; 63
    42a8:	cd bf       	out	0x3d, r28	; 61
    42aa:	df 91       	pop	r29
    42ac:	cf 91       	pop	r28
    42ae:	1f 91       	pop	r17
    42b0:	0f 91       	pop	r16
    42b2:	ff 90       	pop	r15
    42b4:	ef 90       	pop	r14
    42b6:	df 90       	pop	r13
    42b8:	cf 90       	pop	r12
    42ba:	bf 90       	pop	r11
    42bc:	af 90       	pop	r10
    42be:	9f 90       	pop	r9
    42c0:	8f 90       	pop	r8
    42c2:	7f 90       	pop	r7
    42c4:	6f 90       	pop	r6
    42c6:	5f 90       	pop	r5
    42c8:	4f 90       	pop	r4
    42ca:	3f 90       	pop	r3
    42cc:	2f 90       	pop	r2
    42ce:	08 95       	ret

000042d0 <main>:
    42d0:	cf 93       	push	r28
    42d2:	df 93       	push	r29
    42d4:	00 d0       	rcall	.+0      	; 0x42d6 <main+0x6>
    42d6:	cd b7       	in	r28, 0x3d	; 61
    42d8:	de b7       	in	r29, 0x3e	; 62
    42da:	f8 94       	cli
    42dc:	81 e0       	ldi	r24, 0x01	; 1
    42de:	85 bf       	out	0x35, r24	; 53
    42e0:	80 e0       	ldi	r24, 0x00	; 0
    42e2:	85 bf       	out	0x35, r24	; 53
    42e4:	88 e1       	ldi	r24, 0x18	; 24
    42e6:	0f b6       	in	r0, 0x3f	; 63
    42e8:	f8 94       	cli
    42ea:	80 93 60 00 	sts	0x0060, r24
    42ee:	10 92 60 00 	sts	0x0060, r1
    42f2:	0f be       	out	0x3f, r0	; 63
    42f4:	8f ee       	ldi	r24, 0xEF	; 239
    42f6:	80 93 64 00 	sts	0x0064, r24
    42fa:	80 b7       	in	r24, 0x30	; 48
    42fc:	80 68       	ori	r24, 0x80	; 128
    42fe:	80 bf       	out	0x30, r24	; 48
    4300:	80 91 7f 00 	lds	r24, 0x007F
    4304:	83 60       	ori	r24, 0x03	; 3
    4306:	80 93 7f 00 	sts	0x007F, r24
    430a:	85 b7       	in	r24, 0x35	; 53
    430c:	8f 7e       	andi	r24, 0xEF	; 239
    430e:	85 bf       	out	0x35, r24	; 53
    4310:	0e 94 80 2c 	call	0x5900	; 0x5900 <clkPullPwm_fw_init>
    4314:	0e 94 00 2d 	call	0x5a00	; 0x5a00 <clkFastCtr_fw_init>
    4318:	0e 94 40 2b 	call	0x5680	; 0x5680 <anlgComp_fw_init>
    431c:	0e 94 ae 26 	call	0x4d5c	; 0x4d5c <serial_fw_init>
    4320:	0e 94 18 25 	call	0x4a30	; 0x4a30 <usb_fw_init>
    4324:	78 94       	sei
    4326:	0e 94 1c 29 	call	0x5238	; 0x5238 <memory_fw_checkAndInitAllBlocks>
    432a:	60 e0       	ldi	r22, 0x00	; 0
    432c:	89 e2       	ldi	r24, 0x29	; 41
    432e:	93 e0       	ldi	r25, 0x03	; 3
    4330:	0e 94 94 28 	call	0x5128	; 0x5128 <memory_fw_readEepromValidBlock>
    4334:	88 23       	and	r24, r24
    4336:	d9 f0       	breq	.+54     	; 0x436e <main+0x9e>
    4338:	80 e1       	ldi	r24, 0x10	; 16
    433a:	e9 e2       	ldi	r30, 0x29	; 41
    433c:	f3 e0       	ldi	r31, 0x03	; 3
    433e:	af e2       	ldi	r26, 0x2F	; 47
    4340:	b5 e0       	ldi	r27, 0x05	; 5
    4342:	01 90       	ld	r0, Z+
    4344:	0d 92       	st	X+, r0
    4346:	8a 95       	dec	r24
    4348:	e1 f7       	brne	.-8      	; 0x4342 <main+0x72>
    434a:	10 92 3f 05 	sts	0x053F, r1
    434e:	80 91 3b 03 	lds	r24, 0x033B
    4352:	90 91 3c 03 	lds	r25, 0x033C
    4356:	90 93 2e 05 	sts	0x052E, r25
    435a:	80 93 2d 05 	sts	0x052D, r24
    435e:	80 91 39 03 	lds	r24, 0x0339
    4362:	90 91 3a 03 	lds	r25, 0x033A
    4366:	90 93 2c 05 	sts	0x052C, r25
    436a:	80 93 2b 05 	sts	0x052B, r24
    436e:	61 e0       	ldi	r22, 0x01	; 1
    4370:	89 e2       	ldi	r24, 0x29	; 41
    4372:	93 e0       	ldi	r25, 0x03	; 3
    4374:	0e 94 94 28 	call	0x5128	; 0x5128 <memory_fw_readEepromValidBlock>
    4378:	88 23       	and	r24, r24
    437a:	09 f4       	brne	.+2      	; 0x437e <main+0xae>
    437c:	40 c0       	rjmp	.+128    	; 0x43fe <main+0x12e>
    437e:	80 91 29 03 	lds	r24, 0x0329
    4382:	90 91 2a 03 	lds	r25, 0x032A
    4386:	a0 91 2b 03 	lds	r26, 0x032B
    438a:	b0 91 2c 03 	lds	r27, 0x032C
    438e:	80 93 27 05 	sts	0x0527, r24
    4392:	90 93 28 05 	sts	0x0528, r25
    4396:	a0 93 29 05 	sts	0x0529, r26
    439a:	b0 93 2a 05 	sts	0x052A, r27
    439e:	80 91 2d 03 	lds	r24, 0x032D
    43a2:	90 91 2e 03 	lds	r25, 0x032E
    43a6:	a0 91 2f 03 	lds	r26, 0x032F
    43aa:	b0 91 30 03 	lds	r27, 0x0330
    43ae:	80 93 23 05 	sts	0x0523, r24
    43b2:	90 93 24 05 	sts	0x0524, r25
    43b6:	a0 93 25 05 	sts	0x0525, r26
    43ba:	b0 93 26 05 	sts	0x0526, r27
    43be:	80 91 31 03 	lds	r24, 0x0331
    43c2:	90 91 32 03 	lds	r25, 0x0332
    43c6:	a0 91 33 03 	lds	r26, 0x0333
    43ca:	b0 91 34 03 	lds	r27, 0x0334
    43ce:	80 93 1f 05 	sts	0x051F, r24
    43d2:	90 93 20 05 	sts	0x0520, r25
    43d6:	a0 93 21 05 	sts	0x0521, r26
    43da:	b0 93 22 05 	sts	0x0522, r27
    43de:	80 91 35 03 	lds	r24, 0x0335
    43e2:	90 91 36 03 	lds	r25, 0x0336
    43e6:	a0 91 37 03 	lds	r26, 0x0337
    43ea:	b0 91 38 03 	lds	r27, 0x0338
    43ee:	80 93 1b 05 	sts	0x051B, r24
    43f2:	90 93 1c 05 	sts	0x051C, r25
    43f6:	a0 93 1d 05 	sts	0x051D, r26
    43fa:	b0 93 1e 05 	sts	0x051E, r27
    43fe:	62 e0       	ldi	r22, 0x02	; 2
    4400:	89 e2       	ldi	r24, 0x29	; 41
    4402:	93 e0       	ldi	r25, 0x03	; 3
    4404:	0e 94 94 28 	call	0x5128	; 0x5128 <memory_fw_readEepromValidBlock>
    4408:	88 23       	and	r24, r24
    440a:	81 f0       	breq	.+32     	; 0x442c <main+0x15c>
    440c:	80 91 39 03 	lds	r24, 0x0339
    4410:	90 91 3a 03 	lds	r25, 0x033A
    4414:	a0 91 3b 03 	lds	r26, 0x033B
    4418:	b0 91 3c 03 	lds	r27, 0x033C
    441c:	80 93 17 05 	sts	0x0517, r24
    4420:	90 93 18 05 	sts	0x0518, r25
    4424:	a0 93 19 05 	sts	0x0519, r26
    4428:	b0 93 1a 05 	sts	0x051A, r27
    442c:	60 91 ec 04 	lds	r22, 0x04EC
    4430:	ef eb       	ldi	r30, 0xBF	; 191
    4432:	f4 e0       	ldi	r31, 0x04	; 4
    4434:	62 93       	st	-Z, r22
    4436:	84 e0       	ldi	r24, 0x04	; 4
    4438:	ef 3a       	cpi	r30, 0xAF	; 175
    443a:	f8 07       	cpc	r31, r24
    443c:	d9 f7       	brne	.-10     	; 0x4434 <main+0x164>
    443e:	70 e0       	ldi	r23, 0x00	; 0
    4440:	80 e0       	ldi	r24, 0x00	; 0
    4442:	90 e0       	ldi	r25, 0x00	; 0
    4444:	0e 94 ed 10 	call	0x21da	; 0x21da <__floatunsisf>
    4448:	60 93 11 05 	sts	0x0511, r22
    444c:	70 93 12 05 	sts	0x0512, r23
    4450:	80 93 13 05 	sts	0x0513, r24
    4454:	90 93 14 05 	sts	0x0514, r25
    4458:	80 e0       	ldi	r24, 0x00	; 0
    445a:	90 e0       	ldi	r25, 0x00	; 0
    445c:	a0 e8       	ldi	r26, 0x80	; 128
    445e:	b1 e4       	ldi	r27, 0x41	; 65
    4460:	80 93 0d 05 	sts	0x050D, r24
    4464:	90 93 0e 05 	sts	0x050E, r25
    4468:	a0 93 0f 05 	sts	0x050F, r26
    446c:	b0 93 10 05 	sts	0x0510, r27
    4470:	0e 94 ac 19 	call	0x3358	; 0x3358 <main_fw_sendInitialHelp>
    4474:	80 91 ed 04 	lds	r24, 0x04ED
    4478:	85 fd       	sbrc	r24, 5
    447a:	03 c0       	rjmp	.+6      	; 0x4482 <main+0x1b2>
    447c:	0e 94 b3 19 	call	0x3366	; 0x3366 <main_fw_giveAway>
    4480:	f9 cf       	rjmp	.-14     	; 0x4474 <main+0x1a4>
    4482:	f8 94       	cli
    4484:	88 e1       	ldi	r24, 0x18	; 24
    4486:	0f b6       	in	r0, 0x3f	; 63
    4488:	f8 94       	cli
    448a:	80 93 60 00 	sts	0x0060, r24
    448e:	10 92 60 00 	sts	0x0060, r1
    4492:	0f be       	out	0x3f, r0	; 63
    4494:	0e 94 2c 25 	call	0x4a58	; 0x4a58 <usb_fw_close>
    4498:	0e 94 80 26 	call	0x4d00	; 0x4d00 <serial_fw_close>
    449c:	0e 94 6a 2b 	call	0x56d4	; 0x56d4 <anlgComp_fw_close>
    44a0:	0e 94 18 2d 	call	0x5a30	; 0x5a30 <clkFastCtr_fw_close>
    44a4:	0e 94 9b 2c 	call	0x5936	; 0x5936 <clkPullPwm_fw_close>
    44a8:	14 b8       	out	0x04, r1	; 4
    44aa:	17 b8       	out	0x07, r1	; 7
    44ac:	1a b8       	out	0x0a, r1	; 10
    44ae:	15 b8       	out	0x05, r1	; 5
    44b0:	18 b8       	out	0x08, r1	; 8
    44b2:	1b b8       	out	0x0b, r1	; 11
    44b4:	85 b7       	in	r24, 0x35	; 53
    44b6:	8f 7e       	andi	r24, 0xEF	; 239
    44b8:	85 bf       	out	0x35, r24	; 53
    44ba:	80 91 ed 04 	lds	r24, 0x04ED
    44be:	80 7c       	andi	r24, 0xC0	; 192
    44c0:	d1 f0       	breq	.+52     	; 0x44f6 <main+0x226>
    44c2:	80 34       	cpi	r24, 0x40	; 64
    44c4:	81 f4       	brne	.+32     	; 0x44e6 <main+0x216>
    44c6:	8f e0       	ldi	r24, 0x0F	; 15
    44c8:	90 eb       	ldi	r25, 0xB0	; 176
    44ca:	9a 83       	std	Y+2, r25	; 0x02
    44cc:	89 83       	std	Y+1, r24	; 0x01
    44ce:	4a ef       	ldi	r20, 0xFA	; 250
    44d0:	53 e0       	ldi	r21, 0x03	; 3
    44d2:	62 e0       	ldi	r22, 0x02	; 2
    44d4:	ce 01       	movw	r24, r28
    44d6:	01 96       	adiw	r24, 0x01	; 1
    44d8:	0e 94 b5 28 	call	0x516a	; 0x516a <memory_fw_writeEEpromPage>
    44dc:	e0 91 02 01 	lds	r30, 0x0102
    44e0:	f0 91 03 01 	lds	r31, 0x0103
    44e4:	06 c0       	rjmp	.+12     	; 0x44f2 <main+0x222>
    44e6:	80 38       	cpi	r24, 0x80	; 128
    44e8:	c9 f4       	brne	.+50     	; 0x451c <main+0x24c>
    44ea:	e0 91 40 05 	lds	r30, 0x0540
    44ee:	f0 91 41 05 	lds	r31, 0x0541
    44f2:	09 95       	icall
    44f4:	13 c0       	rjmp	.+38     	; 0x451c <main+0x24c>
    44f6:	83 b7       	in	r24, 0x33	; 51
    44f8:	81 7f       	andi	r24, 0xF1	; 241
    44fa:	84 60       	ori	r24, 0x04	; 4
    44fc:	83 bf       	out	0x33, r24	; 51
    44fe:	f8 94       	cli
    4500:	83 b7       	in	r24, 0x33	; 51
    4502:	81 60       	ori	r24, 0x01	; 1
    4504:	83 bf       	out	0x33, r24	; 51
    4506:	85 b7       	in	r24, 0x35	; 53
    4508:	80 66       	ori	r24, 0x60	; 96
    450a:	85 bf       	out	0x35, r24	; 53
    450c:	8f 7d       	andi	r24, 0xDF	; 223
    450e:	85 bf       	out	0x35, r24	; 53
    4510:	88 95       	sleep
    4512:	83 b7       	in	r24, 0x33	; 51
    4514:	8e 7f       	andi	r24, 0xFE	; 254
    4516:	83 bf       	out	0x33, r24	; 51
    4518:	78 94       	sei
    451a:	ed cf       	rjmp	.-38     	; 0x44f6 <main+0x226>
    451c:	80 e0       	ldi	r24, 0x00	; 0
    451e:	90 e0       	ldi	r25, 0x00	; 0
    4520:	0f 90       	pop	r0
    4522:	0f 90       	pop	r0
    4524:	df 91       	pop	r29
    4526:	cf 91       	pop	r28
    4528:	08 95       	ret

Disassembly of section .df4iah_fw_usb:

00004a00 <usb_fw_replyContent>:
    4a00:	fc 01       	movw	r30, r24
    4a02:	db 01       	movw	r26, r22
    4a04:	12 96       	adiw	r26, 0x02	; 2
    4a06:	8c 91       	ld	r24, X
    4a08:	12 97       	sbiw	r26, 0x02	; 2
    4a0a:	80 83       	st	Z, r24
    4a0c:	13 96       	adiw	r26, 0x03	; 3
    4a0e:	8c 91       	ld	r24, X
    4a10:	13 97       	sbiw	r26, 0x03	; 3
    4a12:	81 83       	std	Z+1, r24	; 0x01
    4a14:	14 96       	adiw	r26, 0x04	; 4
    4a16:	8c 91       	ld	r24, X
    4a18:	82 83       	std	Z+2, r24	; 0x02
    4a1a:	08 95       	ret

00004a1c <usb_fw_sendInInterrupt>:
    4a1c:	80 91 fb 04 	lds	r24, 0x04FB
    4a20:	84 ff       	sbrs	r24, 4
    4a22:	05 c0       	rjmp	.+10     	; 0x4a2e <usb_fw_sendInInterrupt+0x12>
    4a24:	65 e0       	ldi	r22, 0x05	; 5
    4a26:	84 e0       	ldi	r24, 0x04	; 4
    4a28:	91 e0       	ldi	r25, 0x01	; 1
    4a2a:	0c 94 60 06 	jmp	0xcc0	; 0xcc0 <usbSetInterrupt>
    4a2e:	08 95       	ret

00004a30 <usb_fw_init>:
    4a30:	0e 94 d4 07 	call	0xfa8	; 0xfa8 <usbInit>
    4a34:	e8 98       	cbi	0x1d, 0	; 29
    4a36:	21 98       	cbi	0x04, 1	; 4
    4a38:	29 98       	cbi	0x05, 1	; 5
    4a3a:	8a ef       	ldi	r24, 0xFA	; 250
    4a3c:	81 50       	subi	r24, 0x01	; 1
    4a3e:	41 f0       	breq	.+16     	; 0x4a50 <usb_fw_init+0x20>
    4a40:	e7 e8       	ldi	r30, 0x87	; 135
    4a42:	f3 e1       	ldi	r31, 0x13	; 19
    4a44:	31 97       	sbiw	r30, 0x01	; 1
    4a46:	f1 f7       	brne	.-4      	; 0x4a44 <usb_fw_init+0x14>
    4a48:	00 c0       	rjmp	.+0      	; 0x4a4a <usb_fw_init+0x1a>
    4a4a:	00 00       	nop
    4a4c:	a8 95       	wdr
    4a4e:	f6 cf       	rjmp	.-20     	; 0x4a3c <usb_fw_init+0xc>
    4a50:	21 9a       	sbi	0x04, 1	; 4
    4a52:	29 9a       	sbi	0x05, 1	; 5
    4a54:	e8 9a       	sbi	0x1d, 0	; 29
    4a56:	08 95       	ret

00004a58 <usb_fw_close>:
    4a58:	e8 98       	cbi	0x1d, 0	; 29
    4a5a:	21 98       	cbi	0x04, 1	; 4
    4a5c:	29 98       	cbi	0x05, 1	; 5
    4a5e:	08 95       	ret

00004a60 <usbFunctionSetup>:
    4a60:	fc 01       	movw	r30, r24
    4a62:	80 81       	ld	r24, Z
    4a64:	98 2f       	mov	r25, r24
    4a66:	90 76       	andi	r25, 0x60	; 96
    4a68:	90 34       	cpi	r25, 0x40	; 64
    4a6a:	59 f5       	brne	.+86     	; 0x4ac2 <usbFunctionSetup+0x62>
    4a6c:	8f 71       	andi	r24, 0x1F	; 31
    4a6e:	49 f5       	brne	.+82     	; 0x4ac2 <usbFunctionSetup+0x62>
    4a70:	81 81       	ldd	r24, Z+1	; 0x01
    4a72:	81 11       	cpse	r24, r1
    4a74:	0e c0       	rjmp	.+28     	; 0x4a92 <usbFunctionSetup+0x32>
    4a76:	82 81       	ldd	r24, Z+2	; 0x02
    4a78:	80 93 1b 01 	sts	0x011B, r24
    4a7c:	83 81       	ldd	r24, Z+3	; 0x03
    4a7e:	80 93 1c 01 	sts	0x011C, r24
    4a82:	84 81       	ldd	r24, Z+4	; 0x04
    4a84:	80 93 1d 01 	sts	0x011D, r24
    4a88:	85 81       	ldd	r24, Z+5	; 0x05
    4a8a:	80 93 1e 01 	sts	0x011E, r24
    4a8e:	84 e0       	ldi	r24, 0x04	; 4
    4a90:	19 c0       	rjmp	.+50     	; 0x4ac4 <usbFunctionSetup+0x64>
    4a92:	82 30       	cpi	r24, 0x02	; 2
    4a94:	49 f4       	brne	.+18     	; 0x4aa8 <usbFunctionSetup+0x48>
    4a96:	8f b7       	in	r24, 0x3f	; 63
    4a98:	f8 94       	cli
    4a9a:	26 81       	ldd	r18, Z+6	; 0x06
    4a9c:	37 81       	ldd	r19, Z+7	; 0x07
    4a9e:	30 93 c3 04 	sts	0x04C3, r19
    4aa2:	20 93 c2 04 	sts	0x04C2, r18
    4aa6:	0a c0       	rjmp	.+20     	; 0x4abc <usbFunctionSetup+0x5c>
    4aa8:	81 30       	cpi	r24, 0x01	; 1
    4aaa:	59 f4       	brne	.+22     	; 0x4ac2 <usbFunctionSetup+0x62>
    4aac:	8f b7       	in	r24, 0x3f	; 63
    4aae:	f8 94       	cli
    4ab0:	26 81       	ldd	r18, Z+6	; 0x06
    4ab2:	37 81       	ldd	r19, Z+7	; 0x07
    4ab4:	30 93 c1 04 	sts	0x04C1, r19
    4ab8:	20 93 c0 04 	sts	0x04C0, r18
    4abc:	8f bf       	out	0x3f, r24	; 63
    4abe:	8f ef       	ldi	r24, 0xFF	; 255
    4ac0:	01 c0       	rjmp	.+2      	; 0x4ac4 <usbFunctionSetup+0x64>
    4ac2:	80 e0       	ldi	r24, 0x00	; 0
    4ac4:	2b e1       	ldi	r18, 0x1B	; 27
    4ac6:	31 e0       	ldi	r19, 0x01	; 1
    4ac8:	30 93 53 05 	sts	0x0553, r19
    4acc:	20 93 52 05 	sts	0x0552, r18
    4ad0:	08 95       	ret

00004ad2 <usbFunctionRead>:
    4ad2:	cf 92       	push	r12
    4ad4:	df 92       	push	r13
    4ad6:	ef 92       	push	r14
    4ad8:	ff 92       	push	r15
    4ada:	1f 93       	push	r17
    4adc:	cf 93       	push	r28
    4ade:	df 93       	push	r29
    4ae0:	7c 01       	movw	r14, r24
    4ae2:	46 2f       	mov	r20, r22
    4ae4:	80 91 ed 04 	lds	r24, 0x04ED
    4ae8:	84 ff       	sbrs	r24, 4
    4aea:	3d c0       	rjmp	.+122    	; 0x4b66 <usbFunctionRead+0x94>
    4aec:	80 91 c2 04 	lds	r24, 0x04C2
    4af0:	90 91 c3 04 	lds	r25, 0x04C3
    4af4:	89 2b       	or	r24, r25
    4af6:	b9 f1       	breq	.+110    	; 0x4b66 <usbFunctionRead+0x94>
    4af8:	20 91 42 05 	lds	r18, 0x0542
    4afc:	30 91 43 05 	lds	r19, 0x0543
    4b00:	c9 01       	movw	r24, r18
    4b02:	68 ee       	ldi	r22, 0xE8	; 232
    4b04:	73 e0       	ldi	r23, 0x03	; 3
    4b06:	0e 94 63 0f 	call	0x1ec6	; 0x1ec6 <__udivmodhi4>
    4b0a:	cb 01       	movw	r24, r22
    4b0c:	ea e0       	ldi	r30, 0x0A	; 10
    4b0e:	f0 e0       	ldi	r31, 0x00	; 0
    4b10:	bf 01       	movw	r22, r30
    4b12:	0e 94 63 0f 	call	0x1ec6	; 0x1ec6 <__udivmodhi4>
    4b16:	80 5d       	subi	r24, 0xD0	; 208
    4b18:	d7 01       	movw	r26, r14
    4b1a:	8c 93       	st	X, r24
    4b1c:	c9 01       	movw	r24, r18
    4b1e:	64 e6       	ldi	r22, 0x64	; 100
    4b20:	70 e0       	ldi	r23, 0x00	; 0
    4b22:	0e 94 63 0f 	call	0x1ec6	; 0x1ec6 <__udivmodhi4>
    4b26:	cb 01       	movw	r24, r22
    4b28:	bf 01       	movw	r22, r30
    4b2a:	0e 94 63 0f 	call	0x1ec6	; 0x1ec6 <__udivmodhi4>
    4b2e:	80 5d       	subi	r24, 0xD0	; 208
    4b30:	d7 01       	movw	r26, r14
    4b32:	11 96       	adiw	r26, 0x01	; 1
    4b34:	8c 93       	st	X, r24
    4b36:	c9 01       	movw	r24, r18
    4b38:	bf 01       	movw	r22, r30
    4b3a:	0e 94 63 0f 	call	0x1ec6	; 0x1ec6 <__udivmodhi4>
    4b3e:	c8 2f       	mov	r28, r24
    4b40:	cb 01       	movw	r24, r22
    4b42:	bf 01       	movw	r22, r30
    4b44:	0e 94 63 0f 	call	0x1ec6	; 0x1ec6 <__udivmodhi4>
    4b48:	80 5d       	subi	r24, 0xD0	; 208
    4b4a:	f7 01       	movw	r30, r14
    4b4c:	82 83       	std	Z+2, r24	; 0x02
    4b4e:	2f 5f       	subi	r18, 0xFF	; 255
    4b50:	3f 4f       	sbci	r19, 0xFF	; 255
    4b52:	30 93 43 05 	sts	0x0543, r19
    4b56:	20 93 42 05 	sts	0x0542, r18
    4b5a:	c0 5d       	subi	r28, 0xD0	; 208
    4b5c:	c3 83       	std	Z+3, r28	; 0x03
    4b5e:	8a e3       	ldi	r24, 0x3A	; 58
    4b60:	84 83       	std	Z+4, r24	; 0x04
    4b62:	15 e0       	ldi	r17, 0x05	; 5
    4b64:	01 c0       	rjmp	.+2      	; 0x4b68 <usbFunctionRead+0x96>
    4b66:	10 e0       	ldi	r17, 0x00	; 0
    4b68:	c1 2e       	mov	r12, r17
    4b6a:	d1 2c       	mov	r13, r1
    4b6c:	80 91 c2 04 	lds	r24, 0x04C2
    4b70:	90 91 c3 04 	lds	r25, 0x04C3
    4b74:	50 e0       	ldi	r21, 0x00	; 0
    4b76:	84 17       	cp	r24, r20
    4b78:	95 07       	cpc	r25, r21
    4b7a:	08 f4       	brcc	.+2      	; 0x4b7e <usbFunctionRead+0xac>
    4b7c:	ac 01       	movw	r20, r24
    4b7e:	ea 01       	movw	r28, r20
    4b80:	cc 19       	sub	r28, r12
    4b82:	dd 09       	sbc	r29, r13
    4b84:	1c 16       	cp	r1, r28
    4b86:	1d 06       	cpc	r1, r29
    4b88:	04 f5       	brge	.+64     	; 0x4bca <usbFunctionRead+0xf8>
    4b8a:	80 e0       	ldi	r24, 0x00	; 0
    4b8c:	0e 94 2b 29 	call	0x5256	; 0x5256 <ringbuffer_fw_getSemaphore>
    4b90:	88 23       	and	r24, r24
    4b92:	d9 f3       	breq	.-10     	; 0x4b8a <usbFunctionRead+0xb8>
    4b94:	4c 2f       	mov	r20, r28
    4b96:	4f 5f       	subi	r20, 0xFF	; 255
    4b98:	b7 01       	movw	r22, r14
    4b9a:	6c 0d       	add	r22, r12
    4b9c:	7d 1d       	adc	r23, r13
    4b9e:	80 e0       	ldi	r24, 0x00	; 0
    4ba0:	0e 94 48 29 	call	0x5290	; 0x5290 <ringbuffer_fw_ringBufferPull>
    4ba4:	c8 2f       	mov	r28, r24
    4ba6:	80 e0       	ldi	r24, 0x00	; 0
    4ba8:	0e 94 3c 29 	call	0x5278	; 0x5278 <ringbuffer_fw_freeSemaphore>
    4bac:	cc 0e       	add	r12, r28
    4bae:	d1 1c       	adc	r13, r1
    4bb0:	20 91 c2 04 	lds	r18, 0x04C2
    4bb4:	30 91 c3 04 	lds	r19, 0x04C3
    4bb8:	2c 19       	sub	r18, r12
    4bba:	3d 09       	sbc	r19, r13
    4bbc:	30 93 c3 04 	sts	0x04C3, r19
    4bc0:	20 93 c2 04 	sts	0x04C2, r18
    4bc4:	8c 2f       	mov	r24, r28
    4bc6:	81 0f       	add	r24, r17
    4bc8:	01 c0       	rjmp	.+2      	; 0x4bcc <usbFunctionRead+0xfa>
    4bca:	81 2f       	mov	r24, r17
    4bcc:	df 91       	pop	r29
    4bce:	cf 91       	pop	r28
    4bd0:	1f 91       	pop	r17
    4bd2:	ff 90       	pop	r15
    4bd4:	ef 90       	pop	r14
    4bd6:	df 90       	pop	r13
    4bd8:	cf 90       	pop	r12
    4bda:	08 95       	ret

00004bdc <usbFunctionWrite>:
    4bdc:	1f 93       	push	r17
    4bde:	cf 93       	push	r28
    4be0:	df 93       	push	r29
    4be2:	d6 2f       	mov	r29, r22
    4be4:	20 91 c0 04 	lds	r18, 0x04C0
    4be8:	30 91 c1 04 	lds	r19, 0x04C1
    4bec:	46 2f       	mov	r20, r22
    4bee:	50 e0       	ldi	r21, 0x00	; 0
    4bf0:	42 17       	cp	r20, r18
    4bf2:	53 07       	cpc	r21, r19
    4bf4:	c0 f4       	brcc	.+48     	; 0x4c26 <usbFunctionWrite+0x4a>
    4bf6:	24 1b       	sub	r18, r20
    4bf8:	35 0b       	sbc	r19, r21
    4bfa:	30 93 c1 04 	sts	0x04C1, r19
    4bfe:	20 93 c0 04 	sts	0x04C0, r18
    4c02:	1f b7       	in	r17, 0x3f	; 63
    4c04:	f8 94       	cli
    4c06:	c0 91 bf 04 	lds	r28, 0x04BF
    4c0a:	2c 2f       	mov	r18, r28
    4c0c:	30 e0       	ldi	r19, 0x00	; 0
    4c0e:	bc 01       	movw	r22, r24
    4c10:	c9 01       	movw	r24, r18
    4c12:	8d 5d       	subi	r24, 0xDD	; 221
    4c14:	9e 4f       	sbci	r25, 0xFE	; 254
    4c16:	0e 94 d4 13 	call	0x27a8	; 0x27a8 <memcpy>
    4c1a:	cd 0f       	add	r28, r29
    4c1c:	c0 93 bf 04 	sts	0x04BF, r28
    4c20:	1f bf       	out	0x3f, r17	; 63
    4c22:	80 e0       	ldi	r24, 0x00	; 0
    4c24:	29 c0       	rjmp	.+82     	; 0x4c78 <usbFunctionWrite+0x9c>
    4c26:	23 2b       	or	r18, r19
    4c28:	a9 f0       	breq	.+42     	; 0x4c54 <usbFunctionWrite+0x78>
    4c2a:	1f b7       	in	r17, 0x3f	; 63
    4c2c:	f8 94       	cli
    4c2e:	c0 91 c0 04 	lds	r28, 0x04C0
    4c32:	50 91 c1 04 	lds	r21, 0x04C1
    4c36:	d0 91 bf 04 	lds	r29, 0x04BF
    4c3a:	2d 2f       	mov	r18, r29
    4c3c:	30 e0       	ldi	r19, 0x00	; 0
    4c3e:	4c 2f       	mov	r20, r28
    4c40:	bc 01       	movw	r22, r24
    4c42:	c9 01       	movw	r24, r18
    4c44:	8d 5d       	subi	r24, 0xDD	; 221
    4c46:	9e 4f       	sbci	r25, 0xFE	; 254
    4c48:	0e 94 d4 13 	call	0x27a8	; 0x27a8 <memcpy>
    4c4c:	cd 0f       	add	r28, r29
    4c4e:	c0 93 bf 04 	sts	0x04BF, r28
    4c52:	1f bf       	out	0x3f, r17	; 63
    4c54:	20 91 bf 04 	lds	r18, 0x04BF
    4c58:	43 e2       	ldi	r20, 0x23	; 35
    4c5a:	51 e0       	ldi	r21, 0x01	; 1
    4c5c:	60 e0       	ldi	r22, 0x00	; 0
    4c5e:	81 e0       	ldi	r24, 0x01	; 1
    4c60:	0e 94 17 2a 	call	0x542e	; 0x542e <ringbuffer_fw_ringBufferWaitAppend>
    4c64:	8f b7       	in	r24, 0x3f	; 63
    4c66:	f8 94       	cli
    4c68:	10 92 c1 04 	sts	0x04C1, r1
    4c6c:	10 92 c0 04 	sts	0x04C0, r1
    4c70:	10 92 bf 04 	sts	0x04BF, r1
    4c74:	8f bf       	out	0x3f, r24	; 63
    4c76:	81 e0       	ldi	r24, 0x01	; 1
    4c78:	df 91       	pop	r29
    4c7a:	cf 91       	pop	r28
    4c7c:	1f 91       	pop	r17
    4c7e:	08 95       	ret

Disassembly of section .df4iah_fw_clkpullpwm:

00005900 <clkPullPwm_fw_init>:
    5900:	0e 94 c0 3b 	call	0x7780	; 0x7780 <clkPullPwm_bl_init>
    5904:	82 e0       	ldi	r24, 0x02	; 2
    5906:	0e 94 7b 28 	call	0x50f6	; 0x50f6 <memory_fw_isEepromBlockValid>
    590a:	88 23       	and	r24, r24
    590c:	69 f0       	breq	.+26     	; 0x5928 <clkPullPwm_fw_init+0x28>
    590e:	48 e5       	ldi	r20, 0x58	; 88
    5910:	50 e0       	ldi	r21, 0x00	; 0
    5912:	61 e0       	ldi	r22, 0x01	; 1
    5914:	8c ee       	ldi	r24, 0xEC	; 236
    5916:	94 e0       	ldi	r25, 0x04	; 4
    5918:	0e 94 58 28 	call	0x50b0	; 0x50b0 <memory_fw_readEEpromPage>
    591c:	80 91 ec 04 	lds	r24, 0x04EC
    5920:	80 93 eb 04 	sts	0x04EB, r24
    5924:	0e 94 dc 3b 	call	0x77b8	; 0x77b8 <clkPullPwm_bl_setRatio>
    5928:	a8 9a       	sbi	0x15, 0	; 21
    592a:	80 91 6e 00 	lds	r24, 0x006E
    592e:	81 60       	ori	r24, 0x01	; 1
    5930:	80 93 6e 00 	sts	0x006E, r24
    5934:	08 95       	ret

00005936 <clkPullPwm_fw_close>:
    5936:	ee e6       	ldi	r30, 0x6E	; 110
    5938:	f0 e0       	ldi	r31, 0x00	; 0
    593a:	80 81       	ld	r24, Z
    593c:	80 83       	st	Z, r24
    593e:	0c 94 d0 3b 	jmp	0x77a0	; 0x77a0 <clkPullPwm_bl_close>

00005942 <clkPullPwm_fw_setRatio>:
    5942:	0c 94 dc 3b 	jmp	0x77b8	; 0x77b8 <clkPullPwm_bl_setRatio>

00005946 <clkPullPwm_fw_setPin>:
    5946:	88 23       	and	r24, r24
    5948:	11 f0       	breq	.+4      	; 0x594e <clkPullPwm_fw_setPin+0x8>
    594a:	35 9a       	sbi	0x06, 5	; 6
    594c:	08 95       	ret
    594e:	35 98       	cbi	0x06, 5	; 6
    5950:	08 95       	ret

00005952 <clkPullPwm_fw_togglePin>:
    5952:	0c 94 de 3b 	jmp	0x77bc	; 0x77bc <clkPullPwm_bl_togglePin>

00005956 <clkPullPwm_fw_endlessTogglePin>:
    5956:	0c 94 e1 3b 	jmp	0x77c2	; 0x77c2 <clkPullPwm_bl_endlessTogglePin>

0000595a <__vector_16>:
    595a:	1f 92       	push	r1
    595c:	0f 92       	push	r0
    595e:	0f b6       	in	r0, 0x3f	; 63
    5960:	0f 92       	push	r0
    5962:	11 24       	eor	r1, r1
    5964:	8f 93       	push	r24
    5966:	9f 93       	push	r25
    5968:	80 91 eb 04 	lds	r24, 0x04EB
    596c:	88 bd       	out	0x28, r24	; 40
    596e:	90 91 e0 04 	lds	r25, 0x04E0
    5972:	80 91 df 04 	lds	r24, 0x04DF
    5976:	98 17       	cp	r25, r24
    5978:	18 f4       	brcc	.+6      	; 0x5980 <__vector_16+0x26>
    597a:	88 b5       	in	r24, 0x28	; 40
    597c:	8f 5f       	subi	r24, 0xFF	; 255
    597e:	88 bd       	out	0x28, r24	; 40
    5980:	78 94       	sei
    5982:	80 91 e0 04 	lds	r24, 0x04E0
    5986:	88 5f       	subi	r24, 0xF8	; 248
    5988:	80 93 e0 04 	sts	0x04E0, r24
    598c:	9f 91       	pop	r25
    598e:	8f 91       	pop	r24
    5990:	0f 90       	pop	r0
    5992:	0f be       	out	0x3f, r0	; 63
    5994:	0f 90       	pop	r0
    5996:	1f 90       	pop	r1
    5998:	18 95       	reti

Disassembly of section .df4iah_fw_clkfastctr:

00005a00 <clkFastCtr_fw_init>:
    5a00:	e4 e6       	ldi	r30, 0x64	; 100
    5a02:	f0 e0       	ldi	r31, 0x00	; 0
    5a04:	80 81       	ld	r24, Z
    5a06:	87 7f       	andi	r24, 0xF7	; 247
    5a08:	80 83       	st	Z, r24
    5a0a:	10 92 85 00 	sts	0x0085, r1
    5a0e:	10 92 84 00 	sts	0x0084, r1
    5a12:	8e e4       	ldi	r24, 0x4E	; 78
    5a14:	80 93 89 00 	sts	0x0089, r24
    5a18:	8f e1       	ldi	r24, 0x1F	; 31
    5a1a:	80 93 88 00 	sts	0x0088, r24
    5a1e:	10 92 80 00 	sts	0x0080, r1
    5a22:	89 e4       	ldi	r24, 0x49	; 73
    5a24:	80 93 81 00 	sts	0x0081, r24
    5a28:	82 e2       	ldi	r24, 0x22	; 34
    5a2a:	80 93 6f 00 	sts	0x006F, r24
    5a2e:	08 95       	ret

00005a30 <clkFastCtr_fw_close>:
    5a30:	10 92 6f 00 	sts	0x006F, r1
    5a34:	10 92 81 00 	sts	0x0081, r1
    5a38:	e4 e6       	ldi	r30, 0x64	; 100
    5a3a:	f0 e0       	ldi	r31, 0x00	; 0
    5a3c:	80 81       	ld	r24, Z
    5a3e:	88 60       	ori	r24, 0x08	; 8
    5a40:	80 83       	st	Z, r24
    5a42:	08 95       	ret

00005a44 <__vector_11>:
    5a44:	1f 92       	push	r1
    5a46:	0f 92       	push	r0
    5a48:	0f b6       	in	r0, 0x3f	; 63
    5a4a:	0f 92       	push	r0
    5a4c:	11 24       	eor	r1, r1
    5a4e:	8f 93       	push	r24
    5a50:	9f 93       	push	r25
    5a52:	af 93       	push	r26
    5a54:	bf 93       	push	r27
    5a56:	80 91 e1 04 	lds	r24, 0x04E1
    5a5a:	90 91 e2 04 	lds	r25, 0x04E2
    5a5e:	a0 91 e3 04 	lds	r26, 0x04E3
    5a62:	b0 91 e4 04 	lds	r27, 0x04E4
    5a66:	01 96       	adiw	r24, 0x01	; 1
    5a68:	a1 1d       	adc	r26, r1
    5a6a:	b1 1d       	adc	r27, r1
    5a6c:	80 93 e1 04 	sts	0x04E1, r24
    5a70:	90 93 e2 04 	sts	0x04E2, r25
    5a74:	a0 93 e3 04 	sts	0x04E3, r26
    5a78:	b0 93 e4 04 	sts	0x04E4, r27
    5a7c:	78 94       	sei
    5a7e:	bf 91       	pop	r27
    5a80:	af 91       	pop	r26
    5a82:	9f 91       	pop	r25
    5a84:	8f 91       	pop	r24
    5a86:	0f 90       	pop	r0
    5a88:	0f be       	out	0x3f, r0	; 63
    5a8a:	0f 90       	pop	r0
    5a8c:	1f 90       	pop	r1
    5a8e:	18 95       	reti

00005a90 <__vector_10>:
    5a90:	1f 92       	push	r1
    5a92:	0f 92       	push	r0
    5a94:	0f b6       	in	r0, 0x3f	; 63
    5a96:	0f 92       	push	r0
    5a98:	11 24       	eor	r1, r1
    5a9a:	2f 93       	push	r18
    5a9c:	4f 93       	push	r20
    5a9e:	5f 93       	push	r21
    5aa0:	6f 93       	push	r22
    5aa2:	7f 93       	push	r23
    5aa4:	8f 93       	push	r24
    5aa6:	9f 93       	push	r25
    5aa8:	ef 93       	push	r30
    5aaa:	ff 93       	push	r31
    5aac:	80 91 86 00 	lds	r24, 0x0086
    5ab0:	20 91 87 00 	lds	r18, 0x0087
    5ab4:	40 91 e1 04 	lds	r20, 0x04E1
    5ab8:	50 91 e2 04 	lds	r21, 0x04E2
    5abc:	60 91 e3 04 	lds	r22, 0x04E3
    5ac0:	70 91 e4 04 	lds	r23, 0x04E4
    5ac4:	78 94       	sei
    5ac6:	44 9a       	sbi	0x08, 4	; 8
    5ac8:	ea e7       	ldi	r30, 0x7A	; 122
    5aca:	f0 e0       	ldi	r31, 0x00	; 0
    5acc:	90 81       	ld	r25, Z
    5ace:	90 64       	ori	r25, 0x40	; 64
    5ad0:	90 83       	st	Z, r25
    5ad2:	f8 94       	cli
    5ad4:	90 e0       	ldi	r25, 0x00	; 0
    5ad6:	92 2b       	or	r25, r18
    5ad8:	90 93 ea 04 	sts	0x04EA, r25
    5adc:	80 93 e9 04 	sts	0x04E9, r24
    5ae0:	40 93 e5 04 	sts	0x04E5, r20
    5ae4:	50 93 e6 04 	sts	0x04E6, r21
    5ae8:	60 93 e7 04 	sts	0x04E7, r22
    5aec:	70 93 e8 04 	sts	0x04E8, r23
    5af0:	78 94       	sei
    5af2:	ff 91       	pop	r31
    5af4:	ef 91       	pop	r30
    5af6:	9f 91       	pop	r25
    5af8:	8f 91       	pop	r24
    5afa:	7f 91       	pop	r23
    5afc:	6f 91       	pop	r22
    5afe:	5f 91       	pop	r21
    5b00:	4f 91       	pop	r20
    5b02:	2f 91       	pop	r18
    5b04:	0f 90       	pop	r0
    5b06:	0f be       	out	0x3f, r0	; 63
    5b08:	0f 90       	pop	r0
    5b0a:	1f 90       	pop	r1
    5b0c:	18 95       	reti

Disassembly of section .df4iah_fw_anlgcomp:

00005680 <anlgComp_fw_init>:
    5680:	3c 9a       	sbi	0x07, 4	; 7
    5682:	e4 e6       	ldi	r30, 0x64	; 100
    5684:	f0 e0       	ldi	r31, 0x00	; 0
    5686:	80 81       	ld	r24, Z
    5688:	8e 7f       	andi	r24, 0xFE	; 254
    568a:	80 83       	st	Z, r24
    568c:	10 92 d3 04 	sts	0x04D3, r1
    5690:	ef e7       	ldi	r30, 0x7F	; 127
    5692:	f0 e0       	ldi	r31, 0x00	; 0
    5694:	80 81       	ld	r24, Z
    5696:	83 60       	ori	r24, 0x03	; 3
    5698:	80 83       	st	Z, r24
    569a:	83 e0       	ldi	r24, 0x03	; 3
    569c:	80 93 7e 00 	sts	0x007E, r24
    56a0:	eb e7       	ldi	r30, 0x7B	; 123
    56a2:	f0 e0       	ldi	r31, 0x00	; 0
    56a4:	80 81       	ld	r24, Z
    56a6:	8f 7b       	andi	r24, 0xBF	; 191
    56a8:	80 83       	st	Z, r24
    56aa:	ea e7       	ldi	r30, 0x7A	; 122
    56ac:	f0 e0       	ldi	r31, 0x00	; 0
    56ae:	80 81       	ld	r24, Z
    56b0:	87 68       	ori	r24, 0x87	; 135
    56b2:	80 83       	st	Z, r24
    56b4:	80 b7       	in	r24, 0x30	; 48
    56b6:	87 e1       	ldi	r24, 0x17	; 23
    56b8:	80 bf       	out	0x30, r24	; 48
    56ba:	81 e1       	ldi	r24, 0x11	; 17
    56bc:	80 93 d4 04 	sts	0x04D4, r24
    56c0:	81 e4       	ldi	r24, 0x41	; 65
    56c2:	80 93 7c 00 	sts	0x007C, r24
    56c6:	80 81       	ld	r24, Z
    56c8:	80 65       	ori	r24, 0x50	; 80
    56ca:	80 83       	st	Z, r24
    56cc:	80 81       	ld	r24, Z
    56ce:	88 60       	ori	r24, 0x08	; 8
    56d0:	80 83       	st	Z, r24
    56d2:	08 95       	ret

000056d4 <anlgComp_fw_close>:
    56d4:	80 b7       	in	r24, 0x30	; 48
    56d6:	87 77       	andi	r24, 0x77	; 119
    56d8:	80 68       	ori	r24, 0x80	; 128
    56da:	80 bf       	out	0x30, r24	; 48
    56dc:	87 e0       	ldi	r24, 0x07	; 7
    56de:	80 93 7a 00 	sts	0x007A, r24
    56e2:	10 92 7b 00 	sts	0x007B, r1
    56e6:	10 92 7c 00 	sts	0x007C, r1
    56ea:	e4 e6       	ldi	r30, 0x64	; 100
    56ec:	f0 e0       	ldi	r31, 0x00	; 0
    56ee:	80 81       	ld	r24, Z
    56f0:	81 60       	ori	r24, 0x01	; 1
    56f2:	80 83       	st	Z, r24
    56f4:	3c 98       	cbi	0x07, 4	; 7
    56f6:	08 95       	ret

000056f8 <__vector_21>:
    56f8:	1f 92       	push	r1
    56fa:	0f 92       	push	r0
    56fc:	0f b6       	in	r0, 0x3f	; 63
    56fe:	0f 92       	push	r0
    5700:	11 24       	eor	r1, r1
    5702:	2f 93       	push	r18
    5704:	3f 93       	push	r19
    5706:	4f 93       	push	r20
    5708:	5f 93       	push	r21
    570a:	6f 93       	push	r22
    570c:	7f 93       	push	r23
    570e:	8f 93       	push	r24
    5710:	9f 93       	push	r25
    5712:	af 93       	push	r26
    5714:	bf 93       	push	r27
    5716:	ef 93       	push	r30
    5718:	ff 93       	push	r31
    571a:	44 98       	cbi	0x08, 4	; 8
    571c:	80 91 78 00 	lds	r24, 0x0078
    5720:	20 91 79 00 	lds	r18, 0x0079
    5724:	78 94       	sei
    5726:	90 e0       	ldi	r25, 0x00	; 0
    5728:	92 2b       	or	r25, r18
    572a:	20 91 d4 04 	lds	r18, 0x04D4
    572e:	28 30       	cpi	r18, 0x08	; 8
    5730:	21 f1       	breq	.+72     	; 0x577a <__vector_21+0x82>
    5732:	68 f4       	brcc	.+26     	; 0x574e <__vector_21+0x56>
    5734:	22 23       	and	r18, r18
    5736:	a1 f0       	breq	.+40     	; 0x5760 <__vector_21+0x68>
    5738:	21 30       	cpi	r18, 0x01	; 1
    573a:	19 f5       	brne	.+70     	; 0x5782 <__vector_21+0x8a>
    573c:	90 93 26 03 	sts	0x0326, r25
    5740:	80 93 25 03 	sts	0x0325, r24
    5744:	80 e1       	ldi	r24, 0x10	; 16
    5746:	80 93 d4 04 	sts	0x04D4, r24
    574a:	80 e4       	ldi	r24, 0x40	; 64
    574c:	1e c0       	rjmp	.+60     	; 0x578a <__vector_21+0x92>
    574e:	21 31       	cpi	r18, 0x11	; 17
    5750:	09 f1       	breq	.+66     	; 0x5794 <__vector_21+0x9c>
    5752:	28 31       	cpi	r18, 0x18	; 24
    5754:	71 f0       	breq	.+28     	; 0x5772 <__vector_21+0x7a>
    5756:	20 31       	cpi	r18, 0x10	; 16
    5758:	a1 f4       	brne	.+40     	; 0x5782 <__vector_21+0x8a>
    575a:	10 92 d4 04 	sts	0x04D4, r1
    575e:	17 c0       	rjmp	.+46     	; 0x578e <__vector_21+0x96>
    5760:	90 93 24 03 	sts	0x0324, r25
    5764:	80 93 23 03 	sts	0x0323, r24
    5768:	88 e1       	ldi	r24, 0x18	; 24
    576a:	80 93 d4 04 	sts	0x04D4, r24
    576e:	88 ec       	ldi	r24, 0xC8	; 200
    5770:	0c c0       	rjmp	.+24     	; 0x578a <__vector_21+0x92>
    5772:	88 e0       	ldi	r24, 0x08	; 8
    5774:	80 93 d4 04 	sts	0x04D4, r24
    5778:	0a c0       	rjmp	.+20     	; 0x578e <__vector_21+0x96>
    577a:	90 93 28 03 	sts	0x0328, r25
    577e:	80 93 27 03 	sts	0x0327, r24
    5782:	81 e1       	ldi	r24, 0x11	; 17
    5784:	80 93 d4 04 	sts	0x04D4, r24
    5788:	81 e4       	ldi	r24, 0x41	; 65
    578a:	80 93 7c 00 	sts	0x007C, r24
    578e:	0e 94 e1 07 	call	0xfc2	; 0xfc2 <anlgComp_fw_startAdcConvertion>
    5792:	08 c0       	rjmp	.+16     	; 0x57a4 <__vector_21+0xac>
    5794:	81 e0       	ldi	r24, 0x01	; 1
    5796:	80 93 d4 04 	sts	0x04D4, r24
    579a:	80 91 d3 04 	lds	r24, 0x04D3
    579e:	8f 5f       	subi	r24, 0xFF	; 255
    57a0:	80 93 d3 04 	sts	0x04D3, r24
    57a4:	ff 91       	pop	r31
    57a6:	ef 91       	pop	r30
    57a8:	bf 91       	pop	r27
    57aa:	af 91       	pop	r26
    57ac:	9f 91       	pop	r25
    57ae:	8f 91       	pop	r24
    57b0:	7f 91       	pop	r23
    57b2:	6f 91       	pop	r22
    57b4:	5f 91       	pop	r21
    57b6:	4f 91       	pop	r20
    57b8:	3f 91       	pop	r19
    57ba:	2f 91       	pop	r18
    57bc:	0f 90       	pop	r0
    57be:	0f be       	out	0x3f, r0	; 63
    57c0:	0f 90       	pop	r0
    57c2:	1f 90       	pop	r1
    57c4:	18 95       	reti

Disassembly of section .df4iah_fw_memory:

00005000 <memory_fw_copyBuffer>:
    5000:	1f 93       	push	r17
    5002:	cf 93       	push	r28
    5004:	df 93       	push	r29
    5006:	16 2f       	mov	r17, r22
    5008:	97 2f       	mov	r25, r23
    500a:	ba 01       	movw	r22, r20
    500c:	88 23       	and	r24, r24
    500e:	29 f0       	breq	.+10     	; 0x501a <memory_fw_copyBuffer+0x1a>
    5010:	c1 2f       	mov	r28, r17
    5012:	d9 2f       	mov	r29, r25
    5014:	a0 e0       	ldi	r26, 0x00	; 0
    5016:	b0 e0       	ldi	r27, 0x00	; 0
    5018:	07 c0       	rjmp	.+14     	; 0x5028 <memory_fw_copyBuffer+0x28>
    501a:	a9 01       	movw	r20, r18
    501c:	81 2f       	mov	r24, r17
    501e:	df 91       	pop	r29
    5020:	cf 91       	pop	r28
    5022:	1f 91       	pop	r17
    5024:	0c 94 d4 13 	jmp	0x27a8	; 0x27a8 <memcpy>
    5028:	a2 17       	cp	r26, r18
    502a:	b3 07       	cpc	r27, r19
    502c:	39 f0       	breq	.+14     	; 0x503c <memory_fw_copyBuffer+0x3c>
    502e:	fb 01       	movw	r30, r22
    5030:	ea 0f       	add	r30, r26
    5032:	fb 1f       	adc	r31, r27
    5034:	e4 91       	lpm	r30, Z
    5036:	e9 93       	st	Y+, r30
    5038:	11 96       	adiw	r26, 0x01	; 1
    503a:	f6 cf       	rjmp	.-20     	; 0x5028 <memory_fw_copyBuffer+0x28>
    503c:	81 2f       	mov	r24, r17
    503e:	df 91       	pop	r29
    5040:	cf 91       	pop	r28
    5042:	1f 91       	pop	r17
    5044:	08 95       	ret

00005046 <memory_fw_calcBlockCrc>:
    5046:	85 ea       	ldi	r24, 0xA5	; 165
    5048:	95 ea       	ldi	r25, 0xA5	; 165
    504a:	08 95       	ret

0000504c <memory_fw_getSealMarker>:
    504c:	20 e1       	ldi	r18, 0x10	; 16
    504e:	82 9f       	mul	r24, r18
    5050:	c0 01       	movw	r24, r0
    5052:	11 24       	eor	r1, r1
    5054:	8c 60       	ori	r24, 0x0C	; 12
    5056:	90 6b       	ori	r25, 0xB0	; 176
    5058:	08 95       	ret

0000505a <memory_fw_makeEepromBlockValid>:
    505a:	fc 01       	movw	r30, r24
    505c:	68 30       	cpi	r22, 0x08	; 8
    505e:	00 f5       	brcc	.+64     	; 0x50a0 <memory_fw_makeEepromBlockValid+0x46>
    5060:	87 8d       	ldd	r24, Z+31	; 0x1f
    5062:	90 e0       	ldi	r25, 0x00	; 0
    5064:	98 2f       	mov	r25, r24
    5066:	88 27       	eor	r24, r24
    5068:	26 8d       	ldd	r18, Z+30	; 0x1e
    506a:	82 2b       	or	r24, r18
    506c:	85 3a       	cpi	r24, 0xA5	; 165
    506e:	25 ea       	ldi	r18, 0xA5	; 165
    5070:	92 07       	cpc	r25, r18
    5072:	c1 f0       	breq	.+48     	; 0x50a4 <memory_fw_makeEepromBlockValid+0x4a>
    5074:	20 e1       	ldi	r18, 0x10	; 16
    5076:	62 9f       	mul	r22, r18
    5078:	b0 01       	movw	r22, r0
    507a:	11 24       	eor	r1, r1
    507c:	6c 60       	ori	r22, 0x0C	; 12
    507e:	70 6b       	ori	r23, 0xB0	; 176
    5080:	86 17       	cp	r24, r22
    5082:	97 07       	cpc	r25, r23
    5084:	49 f0       	breq	.+18     	; 0x5098 <memory_fw_makeEepromBlockValid+0x3e>
    5086:	85 8d       	ldd	r24, Z+29	; 0x1d
    5088:	90 e0       	ldi	r25, 0x00	; 0
    508a:	98 2f       	mov	r25, r24
    508c:	88 27       	eor	r24, r24
    508e:	24 8d       	ldd	r18, Z+28	; 0x1c
    5090:	82 2b       	or	r24, r18
    5092:	01 96       	adiw	r24, 0x01	; 1
    5094:	84 8f       	std	Z+28, r24	; 0x1c
    5096:	95 8f       	std	Z+29, r25	; 0x1d
    5098:	85 ea       	ldi	r24, 0xA5	; 165
    509a:	86 8f       	std	Z+30, r24	; 0x1e
    509c:	87 8f       	std	Z+31, r24	; 0x1f
    509e:	02 c0       	rjmp	.+4      	; 0x50a4 <memory_fw_makeEepromBlockValid+0x4a>
    50a0:	80 e0       	ldi	r24, 0x00	; 0
    50a2:	08 95       	ret
    50a4:	81 e0       	ldi	r24, 0x01	; 1
    50a6:	08 95       	ret

000050a8 <memory_fw_eraseFlash>:
    50a8:	0c 94 80 3c 	jmp	0x7900	; 0x7900 <memory_bl_eraseFlash>

000050ac <memory_fw_readFlashPage>:
    50ac:	0c 94 94 3c 	jmp	0x7928	; 0x7928 <memory_bl_readFlashPage>

000050b0 <memory_fw_readEEpromPage>:
    50b0:	ef 92       	push	r14
    50b2:	ff 92       	push	r15
    50b4:	0f 93       	push	r16
    50b6:	1f 93       	push	r17
    50b8:	cf 93       	push	r28
    50ba:	df 93       	push	r29
    50bc:	1f 92       	push	r1
    50be:	cd b7       	in	r28, 0x3d	; 61
    50c0:	de b7       	in	r29, 0x3e	; 62
    50c2:	7c 01       	movw	r14, r24
    50c4:	8a 01       	movw	r16, r20
    50c6:	08 1b       	sub	r16, r24
    50c8:	19 0b       	sbc	r17, r25
    50ca:	66 23       	and	r22, r22
    50cc:	61 f0       	breq	.+24     	; 0x50e6 <memory_fw_readEEpromPage+0x36>
    50ce:	c8 01       	movw	r24, r16
    50d0:	8e 0d       	add	r24, r14
    50d2:	9f 1d       	adc	r25, r15
    50d4:	69 83       	std	Y+1, r22	; 0x01
    50d6:	0e 94 4f 15 	call	0x2a9e	; 0x2a9e <__eerd_byte_m328p>
    50da:	f7 01       	movw	r30, r14
    50dc:	81 93       	st	Z+, r24
    50de:	7f 01       	movw	r14, r30
    50e0:	69 81       	ldd	r22, Y+1	; 0x01
    50e2:	61 50       	subi	r22, 0x01	; 1
    50e4:	f2 cf       	rjmp	.-28     	; 0x50ca <memory_fw_readEEpromPage+0x1a>
    50e6:	0f 90       	pop	r0
    50e8:	df 91       	pop	r29
    50ea:	cf 91       	pop	r28
    50ec:	1f 91       	pop	r17
    50ee:	0f 91       	pop	r16
    50f0:	ff 90       	pop	r15
    50f2:	ef 90       	pop	r14
    50f4:	08 95       	ret

000050f6 <memory_fw_isEepromBlockValid>:
    50f6:	88 30       	cpi	r24, 0x08	; 8
    50f8:	a8 f4       	brcc	.+42     	; 0x5124 <memory_fw_isEepromBlockValid+0x2e>
    50fa:	90 e2       	ldi	r25, 0x20	; 32
    50fc:	89 9f       	mul	r24, r25
    50fe:	a0 01       	movw	r20, r0
    5100:	11 24       	eor	r1, r1
    5102:	60 e2       	ldi	r22, 0x20	; 32
    5104:	89 e2       	ldi	r24, 0x29	; 41
    5106:	93 e0       	ldi	r25, 0x03	; 3
    5108:	0e 94 58 28 	call	0x50b0	; 0x50b0 <memory_fw_readEEpromPage>
    510c:	20 91 48 03 	lds	r18, 0x0348
    5110:	30 e0       	ldi	r19, 0x00	; 0
    5112:	32 2f       	mov	r19, r18
    5114:	22 27       	eor	r18, r18
    5116:	80 91 47 03 	lds	r24, 0x0347
    511a:	28 2b       	or	r18, r24
    511c:	81 e0       	ldi	r24, 0x01	; 1
    511e:	25 3a       	cpi	r18, 0xA5	; 165
    5120:	35 4a       	sbci	r19, 0xA5	; 165
    5122:	09 f0       	breq	.+2      	; 0x5126 <memory_fw_isEepromBlockValid+0x30>
    5124:	80 e0       	ldi	r24, 0x00	; 0
    5126:	08 95       	ret

00005128 <memory_fw_readEepromValidBlock>:
    5128:	0f 93       	push	r16
    512a:	1f 93       	push	r17
    512c:	cf 93       	push	r28
    512e:	68 30       	cpi	r22, 0x08	; 8
    5130:	10 f0       	brcs	.+4      	; 0x5136 <memory_fw_readEepromValidBlock+0xe>
    5132:	80 e0       	ldi	r24, 0x00	; 0
    5134:	14 c0       	rjmp	.+40     	; 0x515e <memory_fw_readEepromValidBlock+0x36>
    5136:	c6 2f       	mov	r28, r22
    5138:	8c 01       	movw	r16, r24
    513a:	86 2f       	mov	r24, r22
    513c:	0e 94 7b 28 	call	0x50f6	; 0x50f6 <memory_fw_isEepromBlockValid>
    5140:	88 23       	and	r24, r24
    5142:	b9 f3       	breq	.-18     	; 0x5132 <memory_fw_readEepromValidBlock+0xa>
    5144:	83 e0       	ldi	r24, 0x03	; 3
    5146:	09 32       	cpi	r16, 0x29	; 41
    5148:	18 07       	cpc	r17, r24
    514a:	41 f0       	breq	.+16     	; 0x515c <memory_fw_readEepromValidBlock+0x34>
    514c:	80 e2       	ldi	r24, 0x20	; 32
    514e:	c8 9f       	mul	r28, r24
    5150:	a0 01       	movw	r20, r0
    5152:	11 24       	eor	r1, r1
    5154:	60 e2       	ldi	r22, 0x20	; 32
    5156:	c8 01       	movw	r24, r16
    5158:	0e 94 58 28 	call	0x50b0	; 0x50b0 <memory_fw_readEEpromPage>
    515c:	81 e0       	ldi	r24, 0x01	; 1
    515e:	cf 91       	pop	r28
    5160:	1f 91       	pop	r17
    5162:	0f 91       	pop	r16
    5164:	08 95       	ret

00005166 <memory_fw_writeFlashPage>:
    5166:	0c 94 ed 3c 	jmp	0x79da	; 0x79da <memory_bl_writeFlashPage>

0000516a <memory_fw_writeEEpromPage>:
    516a:	ef 92       	push	r14
    516c:	ff 92       	push	r15
    516e:	1f 93       	push	r17
    5170:	cf 93       	push	r28
    5172:	df 93       	push	r29
    5174:	7c 01       	movw	r14, r24
    5176:	c4 2f       	mov	r28, r20
    5178:	d5 2f       	mov	r29, r21
    517a:	16 2f       	mov	r17, r22
    517c:	14 0f       	add	r17, r20
    517e:	1c 17       	cp	r17, r28
    5180:	41 f0       	breq	.+16     	; 0x5192 <memory_fw_writeEEpromPage+0x28>
    5182:	f7 01       	movw	r30, r14
    5184:	61 91       	ld	r22, Z+
    5186:	7f 01       	movw	r14, r30
    5188:	ce 01       	movw	r24, r28
    518a:	0e 94 57 15 	call	0x2aae	; 0x2aae <__eewr_byte_m328p>
    518e:	21 96       	adiw	r28, 0x01	; 1
    5190:	f6 cf       	rjmp	.-20     	; 0x517e <memory_fw_writeEEpromPage+0x14>
    5192:	df 91       	pop	r29
    5194:	cf 91       	pop	r28
    5196:	1f 91       	pop	r17
    5198:	ff 90       	pop	r15
    519a:	ef 90       	pop	r14
    519c:	08 95       	ret

0000519e <memory_fw_writeEepromBlockMakeValid>:
    519e:	0f 93       	push	r16
    51a0:	1f 93       	push	r17
    51a2:	cf 93       	push	r28
    51a4:	68 30       	cpi	r22, 0x08	; 8
    51a6:	70 f4       	brcc	.+28     	; 0x51c4 <memory_fw_writeEepromBlockMakeValid+0x26>
    51a8:	c6 2f       	mov	r28, r22
    51aa:	8c 01       	movw	r16, r24
    51ac:	0e 94 2d 28 	call	0x505a	; 0x505a <memory_fw_makeEepromBlockValid>
    51b0:	80 e2       	ldi	r24, 0x20	; 32
    51b2:	c8 9f       	mul	r28, r24
    51b4:	a0 01       	movw	r20, r0
    51b6:	11 24       	eor	r1, r1
    51b8:	60 e2       	ldi	r22, 0x20	; 32
    51ba:	c8 01       	movw	r24, r16
    51bc:	0e 94 b5 28 	call	0x516a	; 0x516a <memory_fw_writeEEpromPage>
    51c0:	81 e0       	ldi	r24, 0x01	; 1
    51c2:	01 c0       	rjmp	.+2      	; 0x51c6 <memory_fw_writeEepromBlockMakeValid+0x28>
    51c4:	80 e0       	ldi	r24, 0x00	; 0
    51c6:	cf 91       	pop	r28
    51c8:	1f 91       	pop	r17
    51ca:	0f 91       	pop	r16
    51cc:	08 95       	ret

000051ce <memory_fw_checkAndInitBlock>:
    51ce:	cf 93       	push	r28
    51d0:	88 30       	cpi	r24, 0x08	; 8
    51d2:	10 f0       	brcs	.+4      	; 0x51d8 <memory_fw_checkAndInitBlock+0xa>
    51d4:	80 e0       	ldi	r24, 0x00	; 0
    51d6:	2e c0       	rjmp	.+92     	; 0x5234 <memory_fw_checkAndInitBlock+0x66>
    51d8:	c8 2f       	mov	r28, r24
    51da:	0e 94 7b 28 	call	0x50f6	; 0x50f6 <memory_fw_isEepromBlockValid>
    51de:	81 11       	cpse	r24, r1
    51e0:	f9 cf       	rjmp	.-14     	; 0x51d4 <memory_fw_checkAndInitBlock+0x6>
    51e2:	2c 2f       	mov	r18, r28
    51e4:	30 e0       	ldi	r19, 0x00	; 0
    51e6:	40 91 48 03 	lds	r20, 0x0348
    51ea:	50 e0       	ldi	r21, 0x00	; 0
    51ec:	54 2f       	mov	r21, r20
    51ee:	44 27       	eor	r20, r20
    51f0:	80 91 47 03 	lds	r24, 0x0347
    51f4:	48 2b       	or	r20, r24
    51f6:	c9 01       	movw	r24, r18
    51f8:	64 e0       	ldi	r22, 0x04	; 4
    51fa:	88 0f       	add	r24, r24
    51fc:	99 1f       	adc	r25, r25
    51fe:	6a 95       	dec	r22
    5200:	e1 f7       	brne	.-8      	; 0x51fa <memory_fw_checkAndInitBlock+0x2c>
    5202:	8c 60       	ori	r24, 0x0C	; 12
    5204:	90 6b       	ori	r25, 0xB0	; 176
    5206:	48 17       	cp	r20, r24
    5208:	59 07       	cpc	r21, r25
    520a:	71 f0       	breq	.+28     	; 0x5228 <memory_fw_checkAndInitBlock+0x5a>
    520c:	85 e0       	ldi	r24, 0x05	; 5
    520e:	22 0f       	add	r18, r18
    5210:	33 1f       	adc	r19, r19
    5212:	8a 95       	dec	r24
    5214:	e1 f7       	brne	.-8      	; 0x520e <memory_fw_checkAndInitBlock+0x40>
    5216:	20 5f       	subi	r18, 0xF0	; 240
    5218:	37 4f       	sbci	r19, 0xF7	; 247
    521a:	40 e0       	ldi	r20, 0x00	; 0
    521c:	50 e0       	ldi	r21, 0x00	; 0
    521e:	6c e1       	ldi	r22, 0x1C	; 28
    5220:	89 e2       	ldi	r24, 0x29	; 41
    5222:	93 e0       	ldi	r25, 0x03	; 3
    5224:	0e 94 94 3c 	call	0x7928	; 0x7928 <memory_bl_readFlashPage>
    5228:	6c 2f       	mov	r22, r28
    522a:	89 e2       	ldi	r24, 0x29	; 41
    522c:	93 e0       	ldi	r25, 0x03	; 3
    522e:	0e 94 cf 28 	call	0x519e	; 0x519e <memory_fw_writeEepromBlockMakeValid>
    5232:	81 e0       	ldi	r24, 0x01	; 1
    5234:	cf 91       	pop	r28
    5236:	08 95       	ret

00005238 <memory_fw_checkAndInitAllBlocks>:
    5238:	cf 93       	push	r28
    523a:	df 93       	push	r29
    523c:	c0 e0       	ldi	r28, 0x00	; 0
    523e:	d0 e0       	ldi	r29, 0x00	; 0
    5240:	8c 2f       	mov	r24, r28
    5242:	0e 94 e7 28 	call	0x51ce	; 0x51ce <memory_fw_checkAndInitBlock>
    5246:	d8 0f       	add	r29, r24
    5248:	cf 5f       	subi	r28, 0xFF	; 255
    524a:	c8 30       	cpi	r28, 0x08	; 8
    524c:	c9 f7       	brne	.-14     	; 0x5240 <memory_fw_checkAndInitAllBlocks+0x8>
    524e:	8d 2f       	mov	r24, r29
    5250:	df 91       	pop	r29
    5252:	cf 91       	pop	r28
    5254:	08 95       	ret

00005256 <ringbuffer_fw_getSemaphore>:
    5256:	81 11       	cpse	r24, r1
    5258:	03 c0       	rjmp	.+6      	; 0x5260 <ringbuffer_fw_getSemaphore+0xa>
    525a:	ed ec       	ldi	r30, 0xCD	; 205
    525c:	f4 e0       	ldi	r31, 0x04	; 4
    525e:	02 c0       	rjmp	.+4      	; 0x5264 <ringbuffer_fw_getSemaphore+0xe>
    5260:	ee ec       	ldi	r30, 0xCE	; 206
    5262:	f4 e0       	ldi	r31, 0x04	; 4
    5264:	8f b7       	in	r24, 0x3f	; 63
    5266:	f8 94       	cli
    5268:	90 81       	ld	r25, Z
    526a:	21 e0       	ldi	r18, 0x01	; 1
    526c:	20 83       	st	Z, r18
    526e:	8f bf       	out	0x3f, r24	; 63
    5270:	81 e0       	ldi	r24, 0x01	; 1
    5272:	91 11       	cpse	r25, r1
    5274:	80 e0       	ldi	r24, 0x00	; 0
    5276:	08 95       	ret

00005278 <ringbuffer_fw_freeSemaphore>:
    5278:	81 11       	cpse	r24, r1
    527a:	03 c0       	rjmp	.+6      	; 0x5282 <ringbuffer_fw_freeSemaphore+0xa>
    527c:	ed ec       	ldi	r30, 0xCD	; 205
    527e:	f4 e0       	ldi	r31, 0x04	; 4
    5280:	02 c0       	rjmp	.+4      	; 0x5286 <ringbuffer_fw_freeSemaphore+0xe>
    5282:	ee ec       	ldi	r30, 0xCE	; 206
    5284:	f4 e0       	ldi	r31, 0x04	; 4
    5286:	8f b7       	in	r24, 0x3f	; 63
    5288:	f8 94       	cli
    528a:	10 82       	st	Z, r1
    528c:	8f bf       	out	0x3f, r24	; 63
    528e:	08 95       	ret

00005290 <ringbuffer_fw_ringBufferPull>:
    5290:	9f 92       	push	r9
    5292:	af 92       	push	r10
    5294:	bf 92       	push	r11
    5296:	cf 92       	push	r12
    5298:	df 92       	push	r13
    529a:	ef 92       	push	r14
    529c:	ff 92       	push	r15
    529e:	0f 93       	push	r16
    52a0:	1f 93       	push	r17
    52a2:	cf 93       	push	r28
    52a4:	df 93       	push	r29
    52a6:	2f b7       	in	r18, 0x3f	; 63
    52a8:	f8 94       	cli
    52aa:	88 23       	and	r24, r24
    52ac:	29 f0       	breq	.+10     	; 0x52b8 <ringbuffer_fw_ringBufferPull+0x28>
    52ae:	c0 91 d2 04 	lds	r28, 0x04D2
    52b2:	90 91 d1 04 	lds	r25, 0x04D1
    52b6:	04 c0       	rjmp	.+8      	; 0x52c0 <ringbuffer_fw_ringBufferPull+0x30>
    52b8:	c0 91 d0 04 	lds	r28, 0x04D0
    52bc:	90 91 cf 04 	lds	r25, 0x04CF
    52c0:	2f bf       	out	0x3f, r18	; 63
    52c2:	c9 17       	cp	r28, r25
    52c4:	09 f4       	brne	.+2      	; 0x52c8 <ringbuffer_fw_ringBufferPull+0x38>
    52c6:	5a c0       	rjmp	.+180    	; 0x537c <ringbuffer_fw_ringBufferPull+0xec>
    52c8:	42 30       	cpi	r20, 0x02	; 2
    52ca:	08 f4       	brcc	.+2      	; 0x52ce <ringbuffer_fw_ringBufferPull+0x3e>
    52cc:	57 c0       	rjmp	.+174    	; 0x537c <ringbuffer_fw_ringBufferPull+0xec>
    52ce:	81 11       	cpse	r24, r1
    52d0:	03 c0       	rjmp	.+6      	; 0x52d8 <ringbuffer_fw_ringBufferPull+0x48>
    52d2:	03 e2       	ldi	r16, 0x23	; 35
    52d4:	12 e0       	ldi	r17, 0x02	; 2
    52d6:	02 c0       	rjmp	.+4      	; 0x52dc <ringbuffer_fw_ringBufferPull+0x4c>
    52d8:	03 ea       	ldi	r16, 0xA3	; 163
    52da:	12 e0       	ldi	r17, 0x02	; 2
    52dc:	50 e0       	ldi	r21, 0x00	; 0
    52de:	41 50       	subi	r20, 0x01	; 1
    52e0:	51 09       	sbc	r21, r1
    52e2:	e9 2f       	mov	r30, r25
    52e4:	f0 e0       	ldi	r31, 0x00	; 0
    52e6:	9c 17       	cp	r25, r28
    52e8:	18 f4       	brcc	.+6      	; 0x52f0 <ringbuffer_fw_ringBufferPull+0x60>
    52ea:	2c 2f       	mov	r18, r28
    52ec:	30 e0       	ldi	r19, 0x00	; 0
    52ee:	02 c0       	rjmp	.+4      	; 0x52f4 <ringbuffer_fw_ringBufferPull+0x64>
    52f0:	20 e8       	ldi	r18, 0x80	; 128
    52f2:	30 e0       	ldi	r19, 0x00	; 0
    52f4:	2e 1b       	sub	r18, r30
    52f6:	3f 0b       	sbc	r19, r31
    52f8:	42 17       	cp	r20, r18
    52fa:	53 07       	cpc	r21, r19
    52fc:	0c f4       	brge	.+2      	; 0x5300 <ringbuffer_fw_ringBufferPull+0x70>
    52fe:	9a 01       	movw	r18, r20
    5300:	b2 2e       	mov	r11, r18
    5302:	79 01       	movw	r14, r18
    5304:	ff 24       	eor	r15, r15
    5306:	4e 19       	sub	r20, r14
    5308:	5f 09       	sbc	r21, r15
    530a:	9c 17       	cp	r25, r28
    530c:	10 f0       	brcs	.+4      	; 0x5312 <ringbuffer_fw_ringBufferPull+0x82>
    530e:	d0 e0       	ldi	r29, 0x00	; 0
    5310:	02 c0       	rjmp	.+4      	; 0x5316 <ringbuffer_fw_ringBufferPull+0x86>
    5312:	c0 e0       	ldi	r28, 0x00	; 0
    5314:	d0 e0       	ldi	r29, 0x00	; 0
    5316:	4c 17       	cp	r20, r28
    5318:	5d 07       	cpc	r21, r29
    531a:	0c f4       	brge	.+2      	; 0x531e <ringbuffer_fw_ringBufferPull+0x8e>
    531c:	ea 01       	movw	r28, r20
    531e:	6b 01       	movw	r12, r22
    5320:	a8 2e       	mov	r10, r24
    5322:	9c 2e       	mov	r9, r28
    5324:	bb 20       	and	r11, r11
    5326:	39 f0       	breq	.+14     	; 0x5336 <ringbuffer_fw_ringBufferPull+0xa6>
    5328:	b8 01       	movw	r22, r16
    532a:	6e 0f       	add	r22, r30
    532c:	7f 1f       	adc	r23, r31
    532e:	a7 01       	movw	r20, r14
    5330:	c6 01       	movw	r24, r12
    5332:	0e 94 d4 13 	call	0x27a8	; 0x27a8 <memcpy>
    5336:	99 20       	and	r9, r9
    5338:	49 f0       	breq	.+18     	; 0x534c <ringbuffer_fw_ringBufferPull+0xbc>
    533a:	ae 01       	movw	r20, r28
    533c:	55 27       	eor	r21, r21
    533e:	b8 01       	movw	r22, r16
    5340:	c6 01       	movw	r24, r12
    5342:	8e 0d       	add	r24, r14
    5344:	9f 1d       	adc	r25, r15
    5346:	0e 94 d4 13 	call	0x27a8	; 0x27a8 <memcpy>
    534a:	b9 0c       	add	r11, r9
    534c:	f6 01       	movw	r30, r12
    534e:	eb 0d       	add	r30, r11
    5350:	f1 1d       	adc	r31, r1
    5352:	10 82       	st	Z, r1
    5354:	9f b7       	in	r25, 0x3f	; 63
    5356:	aa 20       	and	r10, r10
    5358:	41 f0       	breq	.+16     	; 0x536a <ringbuffer_fw_ringBufferPull+0xda>
    535a:	f8 94       	cli
    535c:	80 91 d1 04 	lds	r24, 0x04D1
    5360:	8b 0d       	add	r24, r11
    5362:	8f 77       	andi	r24, 0x7F	; 127
    5364:	80 93 d1 04 	sts	0x04D1, r24
    5368:	07 c0       	rjmp	.+14     	; 0x5378 <ringbuffer_fw_ringBufferPull+0xe8>
    536a:	f8 94       	cli
    536c:	80 91 cf 04 	lds	r24, 0x04CF
    5370:	8b 0d       	add	r24, r11
    5372:	8f 77       	andi	r24, 0x7F	; 127
    5374:	80 93 cf 04 	sts	0x04CF, r24
    5378:	9f bf       	out	0x3f, r25	; 63
    537a:	05 c0       	rjmp	.+10     	; 0x5386 <ringbuffer_fw_ringBufferPull+0xf6>
    537c:	41 11       	cpse	r20, r1
    537e:	02 c0       	rjmp	.+4      	; 0x5384 <ringbuffer_fw_ringBufferPull+0xf4>
    5380:	fb 01       	movw	r30, r22
    5382:	10 82       	st	Z, r1
    5384:	b1 2c       	mov	r11, r1
    5386:	8b 2d       	mov	r24, r11
    5388:	df 91       	pop	r29
    538a:	cf 91       	pop	r28
    538c:	1f 91       	pop	r17
    538e:	0f 91       	pop	r16
    5390:	ff 90       	pop	r15
    5392:	ef 90       	pop	r14
    5394:	df 90       	pop	r13
    5396:	cf 90       	pop	r12
    5398:	bf 90       	pop	r11
    539a:	af 90       	pop	r10
    539c:	9f 90       	pop	r9
    539e:	08 95       	ret

000053a0 <ringbuffer_fw_getStatusNextMsg>:
    53a0:	3f b7       	in	r19, 0x3f	; 63
    53a2:	f8 94       	cli
    53a4:	88 23       	and	r24, r24
    53a6:	29 f0       	breq	.+10     	; 0x53b2 <ringbuffer_fw_getStatusNextMsg+0x12>
    53a8:	90 91 d2 04 	lds	r25, 0x04D2
    53ac:	20 91 d1 04 	lds	r18, 0x04D1
    53b0:	04 c0       	rjmp	.+8      	; 0x53ba <ringbuffer_fw_getStatusNextMsg+0x1a>
    53b2:	90 91 d0 04 	lds	r25, 0x04D0
    53b6:	20 91 cf 04 	lds	r18, 0x04CF
    53ba:	3f bf       	out	0x3f, r19	; 63
    53bc:	29 17       	cp	r18, r25
    53be:	79 f0       	breq	.+30     	; 0x53de <ringbuffer_fw_getStatusNextMsg+0x3e>
    53c0:	81 11       	cpse	r24, r1
    53c2:	03 c0       	rjmp	.+6      	; 0x53ca <ringbuffer_fw_getStatusNextMsg+0x2a>
    53c4:	83 e2       	ldi	r24, 0x23	; 35
    53c6:	92 e0       	ldi	r25, 0x02	; 2
    53c8:	02 c0       	rjmp	.+4      	; 0x53ce <ringbuffer_fw_getStatusNextMsg+0x2e>
    53ca:	83 ea       	ldi	r24, 0xA3	; 163
    53cc:	92 e0       	ldi	r25, 0x02	; 2
    53ce:	fc 01       	movw	r30, r24
    53d0:	e2 0f       	add	r30, r18
    53d2:	f1 1d       	adc	r31, r1
    53d4:	80 81       	ld	r24, Z
    53d6:	84 32       	cpi	r24, 0x24	; 36
    53d8:	21 f4       	brne	.+8      	; 0x53e2 <ringbuffer_fw_getStatusNextMsg+0x42>
    53da:	81 e1       	ldi	r24, 0x11	; 17
    53dc:	08 95       	ret
    53de:	80 e0       	ldi	r24, 0x00	; 0
    53e0:	08 95       	ret
    53e2:	81 e0       	ldi	r24, 0x01	; 1
    53e4:	08 95       	ret

000053e6 <ringbuffer_fw_ringBufferWaitFreeAndKeepSemaphore>:
    53e6:	cf 93       	push	r28
    53e8:	c8 2f       	mov	r28, r24
    53ea:	8c 2f       	mov	r24, r28
    53ec:	0e 94 2b 29 	call	0x5256	; 0x5256 <ringbuffer_fw_getSemaphore>
    53f0:	88 23       	and	r24, r24
    53f2:	b9 f0       	breq	.+46     	; 0x5422 <ringbuffer_fw_ringBufferWaitFreeAndKeepSemaphore+0x3c>
    53f4:	2f b7       	in	r18, 0x3f	; 63
    53f6:	cc 23       	and	r28, r28
    53f8:	31 f0       	breq	.+12     	; 0x5406 <ringbuffer_fw_ringBufferWaitFreeAndKeepSemaphore+0x20>
    53fa:	f8 94       	cli
    53fc:	80 91 d2 04 	lds	r24, 0x04D2
    5400:	90 91 d1 04 	lds	r25, 0x04D1
    5404:	05 c0       	rjmp	.+10     	; 0x5410 <ringbuffer_fw_ringBufferWaitFreeAndKeepSemaphore+0x2a>
    5406:	f8 94       	cli
    5408:	80 91 d0 04 	lds	r24, 0x04D0
    540c:	90 91 cf 04 	lds	r25, 0x04CF
    5410:	2f bf       	out	0x3f, r18	; 63
    5412:	98 17       	cp	r25, r24
    5414:	51 f0       	breq	.+20     	; 0x542a <ringbuffer_fw_ringBufferWaitFreeAndKeepSemaphore+0x44>
    5416:	8c 2f       	mov	r24, r28
    5418:	0e 94 3c 29 	call	0x5278	; 0x5278 <ringbuffer_fw_freeSemaphore>
    541c:	a8 95       	wdr
    541e:	0e 94 86 06 	call	0xd0c	; 0xd0c <usbPoll>
    5422:	a8 95       	wdr
    5424:	0e 94 86 06 	call	0xd0c	; 0xd0c <usbPoll>
    5428:	e0 cf       	rjmp	.-64     	; 0x53ea <ringbuffer_fw_ringBufferWaitFreeAndKeepSemaphore+0x4>
    542a:	cf 91       	pop	r28
    542c:	08 95       	ret

0000542e <ringbuffer_fw_ringBufferWaitAppend>:
    542e:	6f 92       	push	r6
    5430:	7f 92       	push	r7
    5432:	8f 92       	push	r8
    5434:	9f 92       	push	r9
    5436:	af 92       	push	r10
    5438:	bf 92       	push	r11
    543a:	cf 92       	push	r12
    543c:	df 92       	push	r13
    543e:	ef 92       	push	r14
    5440:	ff 92       	push	r15
    5442:	0f 93       	push	r16
    5444:	1f 93       	push	r17
    5446:	cf 93       	push	r28
    5448:	df 93       	push	r29
    544a:	1f 92       	push	r1
    544c:	cd b7       	in	r28, 0x3d	; 61
    544e:	de b7       	in	r29, 0x3e	; 62
    5450:	a8 2e       	mov	r10, r24
    5452:	96 2e       	mov	r9, r22
    5454:	6a 01       	movw	r12, r20
    5456:	29 83       	std	Y+1, r18	; 0x01
    5458:	0e 94 f3 29 	call	0x53e6	; 0x53e6 <ringbuffer_fw_ringBufferWaitFreeAndKeepSemaphore>
    545c:	3f b7       	in	r19, 0x3f	; 63
    545e:	f8 94       	cli
    5460:	29 81       	ldd	r18, Y+1	; 0x01
    5462:	aa 20       	and	r10, r10
    5464:	29 f0       	breq	.+10     	; 0x5470 <ringbuffer_fw_ringBufferWaitAppend+0x42>
    5466:	90 91 d2 04 	lds	r25, 0x04D2
    546a:	80 91 d1 04 	lds	r24, 0x04D1
    546e:	04 c0       	rjmp	.+8      	; 0x5478 <ringbuffer_fw_ringBufferWaitAppend+0x4a>
    5470:	90 91 d0 04 	lds	r25, 0x04D0
    5474:	80 91 cf 04 	lds	r24, 0x04CF
    5478:	3f bf       	out	0x3f, r19	; 63
    547a:	69 2f       	mov	r22, r25
    547c:	70 e0       	ldi	r23, 0x00	; 0
    547e:	68 2e       	mov	r6, r24
    5480:	71 2c       	mov	r7, r1
    5482:	ab 01       	movw	r20, r22
    5484:	4f 5f       	subi	r20, 0xFF	; 255
    5486:	5f 4f       	sbci	r21, 0xFF	; 255
    5488:	46 15       	cp	r20, r6
    548a:	57 05       	cpc	r21, r7
    548c:	09 f4       	brne	.+2      	; 0x5490 <ringbuffer_fw_ringBufferWaitAppend+0x62>
    548e:	66 c0       	rjmp	.+204    	; 0x555c <ringbuffer_fw_ringBufferWaitAppend+0x12e>
    5490:	9f 37       	cpi	r25, 0x7F	; 127
    5492:	19 f4       	brne	.+6      	; 0x549a <ringbuffer_fw_ringBufferWaitAppend+0x6c>
    5494:	88 23       	and	r24, r24
    5496:	09 f4       	brne	.+2      	; 0x549a <ringbuffer_fw_ringBufferWaitAppend+0x6c>
    5498:	61 c0       	rjmp	.+194    	; 0x555c <ringbuffer_fw_ringBufferWaitAppend+0x12e>
    549a:	a1 10       	cpse	r10, r1
    549c:	05 c0       	rjmp	.+10     	; 0x54a8 <ringbuffer_fw_ringBufferWaitAppend+0x7a>
    549e:	43 e2       	ldi	r20, 0x23	; 35
    54a0:	e4 2e       	mov	r14, r20
    54a2:	42 e0       	ldi	r20, 0x02	; 2
    54a4:	f4 2e       	mov	r15, r20
    54a6:	04 c0       	rjmp	.+8      	; 0x54b0 <ringbuffer_fw_ringBufferWaitAppend+0x82>
    54a8:	33 ea       	ldi	r19, 0xA3	; 163
    54aa:	e3 2e       	mov	r14, r19
    54ac:	32 e0       	ldi	r19, 0x02	; 2
    54ae:	f3 2e       	mov	r15, r19
    54b0:	a2 2f       	mov	r26, r18
    54b2:	b0 e0       	ldi	r27, 0x00	; 0
    54b4:	98 17       	cp	r25, r24
    54b6:	28 f4       	brcc	.+10     	; 0x54c2 <ringbuffer_fw_ringBufferWaitAppend+0x94>
    54b8:	f3 01       	movw	r30, r6
    54ba:	e6 1b       	sub	r30, r22
    54bc:	f7 0b       	sbc	r31, r23
    54be:	31 97       	sbiw	r30, 0x01	; 1
    54c0:	0c c0       	rjmp	.+24     	; 0x54da <ringbuffer_fw_ringBufferWaitAppend+0xac>
    54c2:	e0 e8       	ldi	r30, 0x80	; 128
    54c4:	f0 e0       	ldi	r31, 0x00	; 0
    54c6:	e6 1b       	sub	r30, r22
    54c8:	f7 0b       	sbc	r31, r23
    54ca:	21 e0       	ldi	r18, 0x01	; 1
    54cc:	30 e0       	ldi	r19, 0x00	; 0
    54ce:	88 23       	and	r24, r24
    54d0:	11 f0       	breq	.+4      	; 0x54d6 <ringbuffer_fw_ringBufferWaitAppend+0xa8>
    54d2:	20 e0       	ldi	r18, 0x00	; 0
    54d4:	30 e0       	ldi	r19, 0x00	; 0
    54d6:	e2 1b       	sub	r30, r18
    54d8:	f3 0b       	sbc	r31, r19
    54da:	ae 17       	cp	r26, r30
    54dc:	bf 07       	cpc	r27, r31
    54de:	0c f4       	brge	.+2      	; 0x54e2 <ringbuffer_fw_ringBufferWaitAppend+0xb4>
    54e0:	fd 01       	movw	r30, r26
    54e2:	be 2e       	mov	r11, r30
    54e4:	8f 01       	movw	r16, r30
    54e6:	11 27       	eor	r17, r17
    54e8:	a0 1b       	sub	r26, r16
    54ea:	b1 0b       	sbc	r27, r17
    54ec:	98 17       	cp	r25, r24
    54ee:	30 f0       	brcs	.+12     	; 0x54fc <ringbuffer_fw_ringBufferWaitAppend+0xce>
    54f0:	88 23       	and	r24, r24
    54f2:	21 f0       	breq	.+8      	; 0x54fc <ringbuffer_fw_ringBufferWaitAppend+0xce>
    54f4:	81 e0       	ldi	r24, 0x01	; 1
    54f6:	68 1a       	sub	r6, r24
    54f8:	71 08       	sbc	r7, r1
    54fa:	02 c0       	rjmp	.+4      	; 0x5500 <ringbuffer_fw_ringBufferWaitAppend+0xd2>
    54fc:	61 2c       	mov	r6, r1
    54fe:	71 2c       	mov	r7, r1
    5500:	a6 15       	cp	r26, r6
    5502:	b7 05       	cpc	r27, r7
    5504:	0c f4       	brge	.+2      	; 0x5508 <ringbuffer_fw_ringBufferWaitAppend+0xda>
    5506:	3d 01       	movw	r6, r26
    5508:	86 2c       	mov	r8, r6
    550a:	bb 20       	and	r11, r11
    550c:	39 f0       	breq	.+14     	; 0x551c <ringbuffer_fw_ringBufferWaitAppend+0xee>
    550e:	6e 0d       	add	r22, r14
    5510:	7f 1d       	adc	r23, r15
    5512:	98 01       	movw	r18, r16
    5514:	a6 01       	movw	r20, r12
    5516:	89 2d       	mov	r24, r9
    5518:	0e 94 00 28 	call	0x5000	; 0x5000 <memory_fw_copyBuffer>
    551c:	88 20       	and	r8, r8
    551e:	51 f0       	breq	.+20     	; 0x5534 <ringbuffer_fw_ringBufferWaitAppend+0x106>
    5520:	93 01       	movw	r18, r6
    5522:	33 27       	eor	r19, r19
    5524:	a6 01       	movw	r20, r12
    5526:	40 0f       	add	r20, r16
    5528:	51 1f       	adc	r21, r17
    552a:	b7 01       	movw	r22, r14
    552c:	89 2d       	mov	r24, r9
    552e:	0e 94 00 28 	call	0x5000	; 0x5000 <memory_fw_copyBuffer>
    5532:	b8 0c       	add	r11, r8
    5534:	9f b7       	in	r25, 0x3f	; 63
    5536:	aa 20       	and	r10, r10
    5538:	41 f0       	breq	.+16     	; 0x554a <ringbuffer_fw_ringBufferWaitAppend+0x11c>
    553a:	f8 94       	cli
    553c:	80 91 d2 04 	lds	r24, 0x04D2
    5540:	8b 0d       	add	r24, r11
    5542:	8f 77       	andi	r24, 0x7F	; 127
    5544:	80 93 d2 04 	sts	0x04D2, r24
    5548:	07 c0       	rjmp	.+14     	; 0x5558 <ringbuffer_fw_ringBufferWaitAppend+0x12a>
    554a:	f8 94       	cli
    554c:	80 91 d0 04 	lds	r24, 0x04D0
    5550:	8b 0d       	add	r24, r11
    5552:	8f 77       	andi	r24, 0x7F	; 127
    5554:	80 93 d0 04 	sts	0x04D0, r24
    5558:	9f bf       	out	0x3f, r25	; 63
    555a:	01 c0       	rjmp	.+2      	; 0x555e <ringbuffer_fw_ringBufferWaitAppend+0x130>
    555c:	b1 2c       	mov	r11, r1
    555e:	8a 2d       	mov	r24, r10
    5560:	0e 94 3c 29 	call	0x5278	; 0x5278 <ringbuffer_fw_freeSemaphore>
    5564:	8b 2d       	mov	r24, r11
    5566:	0f 90       	pop	r0
    5568:	df 91       	pop	r29
    556a:	cf 91       	pop	r28
    556c:	1f 91       	pop	r17
    556e:	0f 91       	pop	r16
    5570:	ff 90       	pop	r15
    5572:	ef 90       	pop	r14
    5574:	df 90       	pop	r13
    5576:	cf 90       	pop	r12
    5578:	bf 90       	pop	r11
    557a:	af 90       	pop	r10
    557c:	9f 90       	pop	r9
    557e:	8f 90       	pop	r8
    5580:	7f 90       	pop	r7
    5582:	6f 90       	pop	r6
    5584:	08 95       	ret

Disassembly of section .df4iah_fw_serial:

00004d00 <serial_fw_close>:
    4d00:	f8 94       	cli
    4d02:	e1 ec       	ldi	r30, 0xC1	; 193
    4d04:	f0 e0       	ldi	r31, 0x00	; 0
    4d06:	80 81       	ld	r24, Z
    4d08:	87 70       	andi	r24, 0x07	; 7
    4d0a:	80 83       	st	Z, r24
    4d0c:	78 94       	sei
    4d0e:	58 98       	cbi	0x0b, 0	; 11
    4d10:	e4 e6       	ldi	r30, 0x64	; 100
    4d12:	f0 e0       	ldi	r31, 0x00	; 0
    4d14:	80 81       	ld	r24, Z
    4d16:	82 60       	ori	r24, 0x02	; 2
    4d18:	80 83       	st	Z, r24
    4d1a:	08 95       	ret

00004d1c <serial_fw_setCommBaud>:
    4d1c:	9c 01       	movw	r18, r24
    4d1e:	bc 01       	movw	r22, r24
    4d20:	76 95       	lsr	r23
    4d22:	67 95       	ror	r22
    4d24:	cb 01       	movw	r24, r22
    4d26:	a0 e0       	ldi	r26, 0x00	; 0
    4d28:	b0 e0       	ldi	r27, 0x00	; 0
    4d2a:	bc 01       	movw	r22, r24
    4d2c:	cd 01       	movw	r24, r26
    4d2e:	60 53       	subi	r22, 0x30	; 48
    4d30:	7d 4e       	sbci	r23, 0xED	; 237
    4d32:	8c 4e       	sbci	r24, 0xEC	; 236
    4d34:	9f 4f       	sbci	r25, 0xFF	; 255
    4d36:	40 e0       	ldi	r20, 0x00	; 0
    4d38:	50 e0       	ldi	r21, 0x00	; 0
    4d3a:	0e 94 77 0f 	call	0x1eee	; 0x1eee <__udivmodsi4>
    4d3e:	da 01       	movw	r26, r20
    4d40:	c9 01       	movw	r24, r18
    4d42:	01 97       	sbiw	r24, 0x01	; 1
    4d44:	a1 09       	sbc	r26, r1
    4d46:	b1 09       	sbc	r27, r1
    4d48:	89 2f       	mov	r24, r25
    4d4a:	9a 2f       	mov	r25, r26
    4d4c:	ab 2f       	mov	r26, r27
    4d4e:	bb 27       	eor	r27, r27
    4d50:	80 93 c5 00 	sts	0x00C5, r24
    4d54:	21 50       	subi	r18, 0x01	; 1
    4d56:	20 93 c4 00 	sts	0x00C4, r18
    4d5a:	08 95       	ret

00004d5c <serial_fw_init>:
    4d5c:	80 91 64 00 	lds	r24, 0x0064
    4d60:	8d 7f       	andi	r24, 0xFD	; 253
    4d62:	80 93 64 00 	sts	0x0064, r24
    4d66:	85 b7       	in	r24, 0x35	; 53
    4d68:	8f 7e       	andi	r24, 0xEF	; 239
    4d6a:	85 bf       	out	0x35, r24	; 53
    4d6c:	58 9a       	sbi	0x0b, 0	; 11
    4d6e:	63 e0       	ldi	r22, 0x03	; 3
    4d70:	89 e2       	ldi	r24, 0x29	; 41
    4d72:	93 e0       	ldi	r25, 0x03	; 3
    4d74:	0e 94 94 28 	call	0x5128	; 0x5128 <memory_fw_readEepromValidBlock>
    4d78:	88 23       	and	r24, r24
    4d7a:	c1 f0       	breq	.+48     	; 0x4dac <serial_fw_init+0x50>
    4d7c:	80 91 29 03 	lds	r24, 0x0329
    4d80:	90 91 2a 03 	lds	r25, 0x032A
    4d84:	90 93 cc 04 	sts	0x04CC, r25
    4d88:	80 93 cb 04 	sts	0x04CB, r24
    4d8c:	80 91 2b 03 	lds	r24, 0x032B
    4d90:	90 91 2c 03 	lds	r25, 0x032C
    4d94:	90 93 ca 04 	sts	0x04CA, r25
    4d98:	80 93 c9 04 	sts	0x04C9, r24
    4d9c:	80 91 2d 03 	lds	r24, 0x032D
    4da0:	90 91 2e 03 	lds	r25, 0x032E
    4da4:	90 93 c8 04 	sts	0x04C8, r25
    4da8:	80 93 c7 04 	sts	0x04C7, r24
    4dac:	80 91 cb 04 	lds	r24, 0x04CB
    4db0:	90 91 cc 04 	lds	r25, 0x04CC
    4db4:	0e 94 8e 26 	call	0x4d1c	; 0x4d1c <serial_fw_setCommBaud>
    4db8:	88 e1       	ldi	r24, 0x18	; 24
    4dba:	80 93 c1 00 	sts	0x00C1, r24
    4dbe:	20 91 c9 04 	lds	r18, 0x04C9
    4dc2:	30 91 ca 04 	lds	r19, 0x04CA
    4dc6:	83 e0       	ldi	r24, 0x03	; 3
    4dc8:	82 0f       	add	r24, r18
    4dca:	83 70       	andi	r24, 0x03	; 3
    4dcc:	88 0f       	add	r24, r24
    4dce:	93 2f       	mov	r25, r19
    4dd0:	90 73       	andi	r25, 0x30	; 48
    4dd2:	89 2b       	or	r24, r25
    4dd4:	22 27       	eor	r18, r18
    4dd6:	33 70       	andi	r19, 0x03	; 3
    4dd8:	9f ef       	ldi	r25, 0xFF	; 255
    4dda:	93 0f       	add	r25, r19
    4ddc:	91 70       	andi	r25, 0x01	; 1
    4dde:	99 0f       	add	r25, r25
    4de0:	99 0f       	add	r25, r25
    4de2:	99 0f       	add	r25, r25
    4de4:	89 2b       	or	r24, r25
    4de6:	80 93 c2 00 	sts	0x00C2, r24
    4dea:	80 91 c6 00 	lds	r24, 0x00C6
    4dee:	80 93 c4 04 	sts	0x04C4, r24
    4df2:	f8 94       	cli
    4df4:	80 91 c1 00 	lds	r24, 0x00C1
    4df8:	80 68       	ori	r24, 0x80	; 128
    4dfa:	80 93 c1 00 	sts	0x00C1, r24
    4dfe:	78 94       	sei
    4e00:	08 95       	ret

00004e02 <serial_pullAndSendNmea_havingSemaphore>:
    4e02:	cf 93       	push	r28
    4e04:	90 91 c5 04 	lds	r25, 0x04C5
    4e08:	91 11       	cpse	r25, r1
    4e0a:	4e c0       	rjmp	.+156    	; 0x4ea8 <serial_pullAndSendNmea_havingSemaphore+0xa6>
    4e0c:	90 91 c0 00 	lds	r25, 0x00C0
    4e10:	95 ff       	sbrs	r25, 5
    4e12:	4a c0       	rjmp	.+148    	; 0x4ea8 <serial_pullAndSendNmea_havingSemaphore+0xa6>
    4e14:	c8 2f       	mov	r28, r24
    4e16:	40 e4       	ldi	r20, 0x40	; 64
    4e18:	63 ea       	ldi	r22, 0xA3	; 163
    4e1a:	71 e0       	ldi	r23, 0x01	; 1
    4e1c:	0e 94 48 29 	call	0x5290	; 0x5290 <ringbuffer_fw_ringBufferPull>
    4e20:	80 93 c5 04 	sts	0x04C5, r24
    4e24:	8c 2f       	mov	r24, r28
    4e26:	0e 94 3c 29 	call	0x5278	; 0x5278 <ringbuffer_fw_freeSemaphore>
    4e2a:	80 91 ed 04 	lds	r24, 0x04ED
    4e2e:	83 ff       	sbrs	r24, 3
    4e30:	10 92 c5 04 	sts	0x04C5, r1
    4e34:	10 92 c4 04 	sts	0x04C4, r1
    4e38:	80 91 c5 04 	lds	r24, 0x04C5
    4e3c:	88 23       	and	r24, r24
    4e3e:	b9 f1       	breq	.+110    	; 0x4eae <serial_pullAndSendNmea_havingSemaphore+0xac>
    4e40:	ef ef       	ldi	r30, 0xFF	; 255
    4e42:	e8 0f       	add	r30, r24
    4e44:	e0 93 c5 04 	sts	0x04C5, r30
    4e48:	f0 e0       	ldi	r31, 0x00	; 0
    4e4a:	ed 55       	subi	r30, 0x5D	; 93
    4e4c:	fe 4f       	sbci	r31, 0xFE	; 254
    4e4e:	90 81       	ld	r25, Z
    4e50:	91 11       	cpse	r25, r1
    4e52:	80 93 c5 04 	sts	0x04C5, r24
    4e56:	e0 91 c5 04 	lds	r30, 0x04C5
    4e5a:	ae 2f       	mov	r26, r30
    4e5c:	b0 e0       	ldi	r27, 0x00	; 0
    4e5e:	ad 55       	subi	r26, 0x5D	; 93
    4e60:	be 4f       	sbci	r27, 0xFE	; 254
    4e62:	8d e0       	ldi	r24, 0x0D	; 13
    4e64:	8c 93       	st	X, r24
    4e66:	82 e0       	ldi	r24, 0x02	; 2
    4e68:	8e 0f       	add	r24, r30
    4e6a:	80 93 c5 04 	sts	0x04C5, r24
    4e6e:	ef 5f       	subi	r30, 0xFF	; 255
    4e70:	f0 e0       	ldi	r31, 0x00	; 0
    4e72:	ed 55       	subi	r30, 0x5D	; 93
    4e74:	fe 4f       	sbci	r31, 0xFE	; 254
    4e76:	8a e0       	ldi	r24, 0x0A	; 10
    4e78:	80 83       	st	Z, r24
    4e7a:	80 91 c0 00 	lds	r24, 0x00C0
    4e7e:	8f 7b       	andi	r24, 0xBF	; 191
    4e80:	80 93 c0 00 	sts	0x00C0, r24
    4e84:	e0 91 c4 04 	lds	r30, 0x04C4
    4e88:	81 e0       	ldi	r24, 0x01	; 1
    4e8a:	8e 0f       	add	r24, r30
    4e8c:	80 93 c4 04 	sts	0x04C4, r24
    4e90:	f0 e0       	ldi	r31, 0x00	; 0
    4e92:	ed 55       	subi	r30, 0x5D	; 93
    4e94:	fe 4f       	sbci	r31, 0xFE	; 254
    4e96:	80 81       	ld	r24, Z
    4e98:	80 93 c6 00 	sts	0x00C6, r24
    4e9c:	80 91 c1 00 	lds	r24, 0x00C1
    4ea0:	80 62       	ori	r24, 0x20	; 32
    4ea2:	80 93 c1 00 	sts	0x00C1, r24
    4ea6:	03 c0       	rjmp	.+6      	; 0x4eae <serial_pullAndSendNmea_havingSemaphore+0xac>
    4ea8:	cf 91       	pop	r28
    4eaa:	0c 94 3c 29 	jmp	0x5278	; 0x5278 <ringbuffer_fw_freeSemaphore>
    4eae:	cf 91       	pop	r28
    4eb0:	08 95       	ret

00004eb2 <__vector_18>:
    4eb2:	1f 92       	push	r1
    4eb4:	0f 92       	push	r0
    4eb6:	0f b6       	in	r0, 0x3f	; 63
    4eb8:	0f 92       	push	r0
    4eba:	11 24       	eor	r1, r1
    4ebc:	2f 93       	push	r18
    4ebe:	3f 93       	push	r19
    4ec0:	4f 93       	push	r20
    4ec2:	5f 93       	push	r21
    4ec4:	6f 93       	push	r22
    4ec6:	7f 93       	push	r23
    4ec8:	8f 93       	push	r24
    4eca:	9f 93       	push	r25
    4ecc:	af 93       	push	r26
    4ece:	bf 93       	push	r27
    4ed0:	ef 93       	push	r30
    4ed2:	ff 93       	push	r31
    4ed4:	80 91 c6 00 	lds	r24, 0x00C6
    4ed8:	78 94       	sei
    4eda:	e0 91 c6 04 	lds	r30, 0x04C6
    4ede:	21 e0       	ldi	r18, 0x01	; 1
    4ee0:	2e 0f       	add	r18, r30
    4ee2:	20 93 c6 04 	sts	0x04C6, r18
    4ee6:	f0 e0       	ldi	r31, 0x00	; 0
    4ee8:	ed 51       	subi	r30, 0x1D	; 29
    4eea:	fe 4f       	sbci	r31, 0xFE	; 254
    4eec:	80 83       	st	Z, r24
    4eee:	8a 30       	cpi	r24, 0x0A	; 10
    4ef0:	61 f4       	brne	.+24     	; 0x4f0a <__vector_18+0x58>
    4ef2:	80 91 ed 04 	lds	r24, 0x04ED
    4ef6:	83 ff       	sbrs	r24, 3
    4ef8:	08 c0       	rjmp	.+16     	; 0x4f0a <__vector_18+0x58>
    4efa:	43 ee       	ldi	r20, 0xE3	; 227
    4efc:	51 e0       	ldi	r21, 0x01	; 1
    4efe:	60 e0       	ldi	r22, 0x00	; 0
    4f00:	80 e0       	ldi	r24, 0x00	; 0
    4f02:	0e 94 17 2a 	call	0x542e	; 0x542e <ringbuffer_fw_ringBufferWaitAppend>
    4f06:	10 92 c6 04 	sts	0x04C6, r1
    4f0a:	ff 91       	pop	r31
    4f0c:	ef 91       	pop	r30
    4f0e:	bf 91       	pop	r27
    4f10:	af 91       	pop	r26
    4f12:	9f 91       	pop	r25
    4f14:	8f 91       	pop	r24
    4f16:	7f 91       	pop	r23
    4f18:	6f 91       	pop	r22
    4f1a:	5f 91       	pop	r21
    4f1c:	4f 91       	pop	r20
    4f1e:	3f 91       	pop	r19
    4f20:	2f 91       	pop	r18
    4f22:	0f 90       	pop	r0
    4f24:	0f be       	out	0x3f, r0	; 63
    4f26:	0f 90       	pop	r0
    4f28:	1f 90       	pop	r1
    4f2a:	18 95       	reti

00004f2c <__vector_19>:
    4f2c:	1f 92       	push	r1
    4f2e:	0f 92       	push	r0
    4f30:	0f b6       	in	r0, 0x3f	; 63
    4f32:	0f 92       	push	r0
    4f34:	11 24       	eor	r1, r1
    4f36:	8f 93       	push	r24
    4f38:	9f 93       	push	r25
    4f3a:	ef 93       	push	r30
    4f3c:	ff 93       	push	r31
    4f3e:	e0 91 c4 04 	lds	r30, 0x04C4
    4f42:	80 91 c5 04 	lds	r24, 0x04C5
    4f46:	e8 17       	cp	r30, r24
    4f48:	50 f4       	brcc	.+20     	; 0x4f5e <__vector_19+0x32>
    4f4a:	81 e0       	ldi	r24, 0x01	; 1
    4f4c:	8e 0f       	add	r24, r30
    4f4e:	80 93 c4 04 	sts	0x04C4, r24
    4f52:	f0 e0       	ldi	r31, 0x00	; 0
    4f54:	ed 55       	subi	r30, 0x5D	; 93
    4f56:	fe 4f       	sbci	r31, 0xFE	; 254
    4f58:	80 81       	ld	r24, Z
    4f5a:	80 93 c6 00 	sts	0x00C6, r24
    4f5e:	78 94       	sei
    4f60:	90 91 c4 04 	lds	r25, 0x04C4
    4f64:	80 91 c5 04 	lds	r24, 0x04C5
    4f68:	98 17       	cp	r25, r24
    4f6a:	38 f0       	brcs	.+14     	; 0x4f7a <__vector_19+0x4e>
    4f6c:	80 91 c1 00 	lds	r24, 0x00C1
    4f70:	80 72       	andi	r24, 0x20	; 32
    4f72:	80 93 c1 00 	sts	0x00C1, r24
    4f76:	10 92 c5 04 	sts	0x04C5, r1
    4f7a:	ff 91       	pop	r31
    4f7c:	ef 91       	pop	r30
    4f7e:	9f 91       	pop	r25
    4f80:	8f 91       	pop	r24
    4f82:	0f 90       	pop	r0
    4f84:	0f be       	out	0x3f, r0	; 63
    4f86:	0f 90       	pop	r0
    4f88:	1f 90       	pop	r1
    4f8a:	18 95       	reti

00004f8c <__vector_20>:
    4f8c:	78 94       	sei
    4f8e:	1f 92       	push	r1
    4f90:	0f 92       	push	r0
    4f92:	0f b6       	in	r0, 0x3f	; 63
    4f94:	0f 92       	push	r0
    4f96:	11 24       	eor	r1, r1
    4f98:	0f 90       	pop	r0
    4f9a:	0f be       	out	0x3f, r0	; 63
    4f9c:	0f 90       	pop	r0
    4f9e:	1f 90       	pop	r1
    4fa0:	18 95       	reti

Disassembly of section .df4iah_bl_memory:

00007900 <memory_bl_eraseFlash>:
    7900:	e0 e0       	ldi	r30, 0x00	; 0
    7902:	f0 e0       	ldi	r31, 0x00	; 0
    7904:	83 e0       	ldi	r24, 0x03	; 3
    7906:	80 93 57 00 	sts	0x0057, r24
    790a:	e8 95       	spm
    790c:	07 b6       	in	r0, 0x37	; 55
    790e:	00 fc       	sbrc	r0, 0
    7910:	fd cf       	rjmp	.-6      	; 0x790c <memory_bl_eraseFlash+0xc>
    7912:	e0 58       	subi	r30, 0x80	; 128
    7914:	ff 4f       	sbci	r31, 0xFF	; 255
    7916:	e1 15       	cp	r30, r1
    7918:	90 e7       	ldi	r25, 0x70	; 112
    791a:	f9 07       	cpc	r31, r25
    791c:	a1 f7       	brne	.-24     	; 0x7906 <memory_bl_eraseFlash+0x6>
    791e:	81 e1       	ldi	r24, 0x11	; 17
    7920:	80 93 57 00 	sts	0x0057, r24
    7924:	e8 95       	spm
    7926:	08 95       	ret

00007928 <memory_bl_readFlashPage>:
    7928:	ff 92       	push	r15
    792a:	0f 93       	push	r16
    792c:	1f 93       	push	r17
    792e:	cf 93       	push	r28
    7930:	df 93       	push	r29
    7932:	dc 01       	movw	r26, r24
    7934:	92 2f       	mov	r25, r18
    7936:	02 2f       	mov	r16, r18
    7938:	13 2f       	mov	r17, r19
    793a:	9a 01       	movw	r18, r20
    793c:	51 e0       	ldi	r21, 0x01	; 1
    793e:	59 1b       	sub	r21, r25
    7940:	40 2f       	mov	r20, r16
    7942:	f0 2e       	mov	r15, r16
    7944:	f9 1a       	sub	r15, r25
    7946:	66 23       	and	r22, r22
    7948:	f9 f0       	breq	.+62     	; 0x7988 <memory_bl_readFlashPage+0x60>
    794a:	0f 3f       	cpi	r16, 0xFF	; 255
    794c:	8f e6       	ldi	r24, 0x6F	; 111
    794e:	18 07       	cpc	r17, r24
    7950:	21 05       	cpc	r18, r1
    7952:	31 05       	cpc	r19, r1
    7954:	30 f4       	brcc	.+12     	; 0x7962 <memory_bl_readFlashPage+0x3a>
    7956:	f8 01       	movw	r30, r16
    7958:	c5 91       	lpm	r28, Z+
    795a:	d4 91       	lpm	r29, Z
    795c:	7c 2f       	mov	r23, r28
    795e:	8d 2f       	mov	r24, r29
    7960:	02 c0       	rjmp	.+4      	; 0x7966 <memory_bl_readFlashPage+0x3e>
    7962:	7f ef       	ldi	r23, 0xFF	; 255
    7964:	8f ef       	ldi	r24, 0xFF	; 255
    7966:	fd 01       	movw	r30, r26
    7968:	ef 0d       	add	r30, r15
    796a:	f1 1d       	adc	r31, r1
    796c:	70 83       	st	Z, r23
    796e:	61 30       	cpi	r22, 0x01	; 1
    7970:	59 f0       	breq	.+22     	; 0x7988 <memory_bl_readFlashPage+0x60>
    7972:	45 0f       	add	r20, r21
    7974:	fd 01       	movw	r30, r26
    7976:	e4 0f       	add	r30, r20
    7978:	f1 1d       	adc	r31, r1
    797a:	80 83       	st	Z, r24
    797c:	0e 5f       	subi	r16, 0xFE	; 254
    797e:	1f 4f       	sbci	r17, 0xFF	; 255
    7980:	2f 4f       	sbci	r18, 0xFF	; 255
    7982:	3f 4f       	sbci	r19, 0xFF	; 255
    7984:	62 50       	subi	r22, 0x02	; 2
    7986:	dc cf       	rjmp	.-72     	; 0x7940 <memory_bl_readFlashPage+0x18>
    7988:	df 91       	pop	r29
    798a:	cf 91       	pop	r28
    798c:	1f 91       	pop	r17
    798e:	0f 91       	pop	r16
    7990:	ff 90       	pop	r15
    7992:	08 95       	ret

00007994 <memory_bl_readEEpromPage>:
    7994:	ef 92       	push	r14
    7996:	ff 92       	push	r15
    7998:	0f 93       	push	r16
    799a:	1f 93       	push	r17
    799c:	cf 93       	push	r28
    799e:	df 93       	push	r29
    79a0:	1f 92       	push	r1
    79a2:	cd b7       	in	r28, 0x3d	; 61
    79a4:	de b7       	in	r29, 0x3e	; 62
    79a6:	7c 01       	movw	r14, r24
    79a8:	8a 01       	movw	r16, r20
    79aa:	08 1b       	sub	r16, r24
    79ac:	19 0b       	sbc	r17, r25
    79ae:	66 23       	and	r22, r22
    79b0:	61 f0       	breq	.+24     	; 0x79ca <memory_bl_readEEpromPage+0x36>
    79b2:	c8 01       	movw	r24, r16
    79b4:	8e 0d       	add	r24, r14
    79b6:	9f 1d       	adc	r25, r15
    79b8:	69 83       	std	Y+1, r22	; 0x01
    79ba:	0e 94 4f 15 	call	0x2a9e	; 0x2a9e <__eerd_byte_m328p>
    79be:	f7 01       	movw	r30, r14
    79c0:	81 93       	st	Z+, r24
    79c2:	7f 01       	movw	r14, r30
    79c4:	69 81       	ldd	r22, Y+1	; 0x01
    79c6:	61 50       	subi	r22, 0x01	; 1
    79c8:	f2 cf       	rjmp	.-28     	; 0x79ae <memory_bl_readEEpromPage+0x1a>
    79ca:	0f 90       	pop	r0
    79cc:	df 91       	pop	r29
    79ce:	cf 91       	pop	r28
    79d0:	1f 91       	pop	r17
    79d2:	0f 91       	pop	r16
    79d4:	ff 90       	pop	r15
    79d6:	ef 90       	pop	r14
    79d8:	08 95       	ret

000079da <memory_bl_writeFlashPage>:
    79da:	2f 92       	push	r2
    79dc:	3f 92       	push	r3
    79de:	4f 92       	push	r4
    79e0:	5f 92       	push	r5
    79e2:	6f 92       	push	r6
    79e4:	7f 92       	push	r7
    79e6:	8f 92       	push	r8
    79e8:	9f 92       	push	r9
    79ea:	af 92       	push	r10
    79ec:	bf 92       	push	r11
    79ee:	cf 92       	push	r12
    79f0:	df 92       	push	r13
    79f2:	ef 92       	push	r14
    79f4:	ff 92       	push	r15
    79f6:	0f 93       	push	r16
    79f8:	1f 93       	push	r17
    79fa:	cf 93       	push	r28
    79fc:	df 93       	push	r29
    79fe:	cd b7       	in	r28, 0x3d	; 61
    7a00:	de b7       	in	r29, 0x3e	; 62
    7a02:	27 97       	sbiw	r28, 0x07	; 7
    7a04:	0f b6       	in	r0, 0x3f	; 63
    7a06:	f8 94       	cli
    7a08:	de bf       	out	0x3e, r29	; 62
    7a0a:	0f be       	out	0x3f, r0	; 63
    7a0c:	cd bf       	out	0x3d, r28	; 61
    7a0e:	1c 01       	movw	r2, r24
    7a10:	00 e0       	ldi	r16, 0x00	; 0
    7a12:	66 23       	and	r22, r22
    7a14:	09 f4       	brne	.+2      	; 0x7a18 <memory_bl_writeFlashPage+0x3e>
    7a16:	a5 c0       	rjmp	.+330    	; 0x7b62 <memory_bl_writeFlashPage+0x188>
    7a18:	f2 2f       	mov	r31, r18
    7a1a:	ff 77       	andi	r31, 0x7F	; 127
    7a1c:	da 01       	movw	r26, r20
    7a1e:	c9 01       	movw	r24, r18
    7a20:	8f 1b       	sub	r24, r31
    7a22:	91 09       	sbc	r25, r1
    7a24:	a1 09       	sbc	r26, r1
    7a26:	b1 09       	sbc	r27, r1
    7a28:	89 83       	std	Y+1, r24	; 0x01
    7a2a:	9a 83       	std	Y+2, r25	; 0x02
    7a2c:	ab 83       	std	Y+3, r26	; 0x03
    7a2e:	bc 83       	std	Y+4, r27	; 0x04
    7a30:	8f ef       	ldi	r24, 0xFF	; 255
    7a32:	9f e6       	ldi	r25, 0x6F	; 111
    7a34:	a0 e0       	ldi	r26, 0x00	; 0
    7a36:	b0 e0       	ldi	r27, 0x00	; 0
    7a38:	82 1b       	sub	r24, r18
    7a3a:	93 0b       	sbc	r25, r19
    7a3c:	a4 0b       	sbc	r26, r20
    7a3e:	b5 0b       	sbc	r27, r21
    7a40:	c6 2e       	mov	r12, r22
    7a42:	d1 2c       	mov	r13, r1
    7a44:	e1 2c       	mov	r14, r1
    7a46:	f1 2c       	mov	r15, r1
    7a48:	8c 15       	cp	r24, r12
    7a4a:	9d 05       	cpc	r25, r13
    7a4c:	ae 05       	cpc	r26, r14
    7a4e:	bf 05       	cpc	r27, r15
    7a50:	10 f4       	brcc	.+4      	; 0x7a56 <memory_bl_writeFlashPage+0x7c>
    7a52:	6c 01       	movw	r12, r24
    7a54:	7d 01       	movw	r14, r26
    7a56:	80 e8       	ldi	r24, 0x80	; 128
    7a58:	90 e0       	ldi	r25, 0x00	; 0
    7a5a:	8f 1b       	sub	r24, r31
    7a5c:	91 09       	sbc	r25, r1
    7a5e:	aa 27       	eor	r26, r26
    7a60:	97 fd       	sbrc	r25, 7
    7a62:	a0 95       	com	r26
    7a64:	ba 2f       	mov	r27, r26
    7a66:	8c 15       	cp	r24, r12
    7a68:	9d 05       	cpc	r25, r13
    7a6a:	ae 05       	cpc	r26, r14
    7a6c:	bf 05       	cpc	r27, r15
    7a6e:	10 f4       	brcc	.+4      	; 0x7a74 <memory_bl_writeFlashPage+0x9a>
    7a70:	6c 01       	movw	r12, r24
    7a72:	7d 01       	movw	r14, r26
    7a74:	7c 2d       	mov	r23, r12
    7a76:	2f 3f       	cpi	r18, 0xFF	; 255
    7a78:	9f e6       	ldi	r25, 0x6F	; 111
    7a7a:	39 07       	cpc	r19, r25
    7a7c:	41 05       	cpc	r20, r1
    7a7e:	51 05       	cpc	r21, r1
    7a80:	08 f0       	brcs	.+2      	; 0x7a84 <memory_bl_writeFlashPage+0xaa>
    7a82:	6f c0       	rjmp	.+222    	; 0x7b62 <memory_bl_writeFlashPage+0x188>
    7a84:	f1 11       	cpse	r31, r1
    7a86:	0a c0       	rjmp	.+20     	; 0x7a9c <memory_bl_writeFlashPage+0xc2>
    7a88:	93 e0       	ldi	r25, 0x03	; 3
    7a8a:	99 2e       	mov	r9, r25
    7a8c:	e9 81       	ldd	r30, Y+1	; 0x01
    7a8e:	fa 81       	ldd	r31, Y+2	; 0x02
    7a90:	90 92 57 00 	sts	0x0057, r9
    7a94:	e8 95       	spm
    7a96:	07 b6       	in	r0, 0x37	; 55
    7a98:	00 fc       	sbrc	r0, 0
    7a9a:	fd cf       	rjmp	.-6      	; 0x7a96 <memory_bl_writeFlashPage+0xbc>
    7a9c:	16 e0       	ldi	r17, 0x06	; 6
    7a9e:	31 01       	movw	r6, r2
    7aa0:	60 0e       	add	r6, r16
    7aa2:	71 1c       	adc	r7, r1
    7aa4:	52 2e       	mov	r5, r18
    7aa6:	3f 83       	std	Y+7, r19	; 0x07
    7aa8:	42 2e       	mov	r4, r18
    7aaa:	11 50       	subi	r17, 0x01	; 1
    7aac:	09 f4       	brne	.+2      	; 0x7ab0 <memory_bl_writeFlashPage+0xd6>
    7aae:	52 c0       	rjmp	.+164    	; 0x7b54 <memory_bl_writeFlashPage+0x17a>
    7ab0:	7e 82       	std	Y+6, r7	; 0x06
    7ab2:	6d 82       	std	Y+5, r6	; 0x05
    7ab4:	a5 2d       	mov	r26, r5
    7ab6:	bf 81       	ldd	r27, Y+7	; 0x07
    7ab8:	53 01       	movw	r10, r6
    7aba:	8f ef       	ldi	r24, 0xFF	; 255
    7abc:	9f ef       	ldi	r25, 0xFF	; 255
    7abe:	ea 2f       	mov	r30, r26
    7ac0:	e2 1b       	sub	r30, r18
    7ac2:	e7 17       	cp	r30, r23
    7ac4:	c0 f4       	brcc	.+48     	; 0x7af6 <memory_bl_writeFlashPage+0x11c>
    7ac6:	f5 01       	movw	r30, r10
    7ac8:	a0 ff       	sbrs	r26, 0
    7aca:	0d c0       	rjmp	.+26     	; 0x7ae6 <memory_bl_writeFlashPage+0x10c>
    7acc:	90 80       	ld	r9, Z
    7ace:	90 e0       	ldi	r25, 0x00	; 0
    7ad0:	99 29       	or	r25, r9
    7ad2:	fd 01       	movw	r30, r26
    7ad4:	ee 7f       	andi	r30, 0xFE	; 254
    7ad6:	99 24       	eor	r9, r9
    7ad8:	93 94       	inc	r9
    7ada:	0c 01       	movw	r0, r24
    7adc:	90 92 57 00 	sts	0x0057, r9
    7ae0:	e8 95       	spm
    7ae2:	11 24       	eor	r1, r1
    7ae4:	03 c0       	rjmp	.+6      	; 0x7aec <memory_bl_writeFlashPage+0x112>
    7ae6:	80 81       	ld	r24, Z
    7ae8:	90 e0       	ldi	r25, 0x00	; 0
    7aea:	9f 6f       	ori	r25, 0xFF	; 255
    7aec:	ff ef       	ldi	r31, 0xFF	; 255
    7aee:	af 1a       	sub	r10, r31
    7af0:	bf 0a       	sbc	r11, r31
    7af2:	11 96       	adiw	r26, 0x01	; 1
    7af4:	e4 cf       	rjmp	.-56     	; 0x7abe <memory_bl_writeFlashPage+0xe4>
    7af6:	85 e0       	ldi	r24, 0x05	; 5
    7af8:	98 2e       	mov	r9, r24
    7afa:	e9 81       	ldd	r30, Y+1	; 0x01
    7afc:	fa 81       	ldd	r31, Y+2	; 0x02
    7afe:	90 92 57 00 	sts	0x0057, r9
    7b02:	e8 95       	spm
    7b04:	07 b6       	in	r0, 0x37	; 55
    7b06:	00 fc       	sbrc	r0, 0
    7b08:	fd cf       	rjmp	.-6      	; 0x7b04 <memory_bl_writeFlashPage+0x12a>
    7b0a:	81 e1       	ldi	r24, 0x11	; 17
    7b0c:	80 93 57 00 	sts	0x0057, r24
    7b10:	e8 95       	spm
    7b12:	49 01       	movw	r8, r18
    7b14:	5a 01       	movw	r10, r20
    7b16:	88 2d       	mov	r24, r8
    7b18:	84 19       	sub	r24, r4
    7b1a:	87 17       	cp	r24, r23
    7b1c:	d8 f4       	brcc	.+54     	; 0x7b54 <memory_bl_writeFlashPage+0x17a>
    7b1e:	f4 01       	movw	r30, r8
    7b20:	ee 7f       	andi	r30, 0xFE	; 254
    7b22:	85 91       	lpm	r24, Z+
    7b24:	94 91       	lpm	r25, Z
    7b26:	80 fe       	sbrs	r8, 0
    7b28:	02 c0       	rjmp	.+4      	; 0x7b2e <memory_bl_writeFlashPage+0x154>
    7b2a:	f8 e0       	ldi	r31, 0x08	; 8
    7b2c:	01 c0       	rjmp	.+2      	; 0x7b30 <memory_bl_writeFlashPage+0x156>
    7b2e:	f0 e0       	ldi	r31, 0x00	; 0
    7b30:	ad 81       	ldd	r26, Y+5	; 0x05
    7b32:	be 81       	ldd	r27, Y+6	; 0x06
    7b34:	ed 91       	ld	r30, X+
    7b36:	be 83       	std	Y+6, r27	; 0x06
    7b38:	ad 83       	std	Y+5, r26	; 0x05
    7b3a:	bf ef       	ldi	r27, 0xFF	; 255
    7b3c:	8b 1a       	sub	r8, r27
    7b3e:	9b 0a       	sbc	r9, r27
    7b40:	ab 0a       	sbc	r10, r27
    7b42:	bb 0a       	sbc	r11, r27
    7b44:	02 c0       	rjmp	.+4      	; 0x7b4a <memory_bl_writeFlashPage+0x170>
    7b46:	96 95       	lsr	r25
    7b48:	87 95       	ror	r24
    7b4a:	fa 95       	dec	r31
    7b4c:	e2 f7       	brpl	.-8      	; 0x7b46 <memory_bl_writeFlashPage+0x16c>
    7b4e:	e8 17       	cp	r30, r24
    7b50:	11 f3       	breq	.-60     	; 0x7b16 <memory_bl_writeFlashPage+0x13c>
    7b52:	ab cf       	rjmp	.-170    	; 0x7aaa <memory_bl_writeFlashPage+0xd0>
    7b54:	2c 0d       	add	r18, r12
    7b56:	3d 1d       	adc	r19, r13
    7b58:	4e 1d       	adc	r20, r14
    7b5a:	5f 1d       	adc	r21, r15
    7b5c:	67 1b       	sub	r22, r23
    7b5e:	07 0f       	add	r16, r23
    7b60:	58 cf       	rjmp	.-336    	; 0x7a12 <memory_bl_writeFlashPage+0x38>
    7b62:	27 96       	adiw	r28, 0x07	; 7
    7b64:	0f b6       	in	r0, 0x3f	; 63
    7b66:	f8 94       	cli
    7b68:	de bf       	out	0x3e, r29	; 62
    7b6a:	0f be       	out	0x3f, r0	; 63
    7b6c:	cd bf       	out	0x3d, r28	; 61
    7b6e:	df 91       	pop	r29
    7b70:	cf 91       	pop	r28
    7b72:	1f 91       	pop	r17
    7b74:	0f 91       	pop	r16
    7b76:	ff 90       	pop	r15
    7b78:	ef 90       	pop	r14
    7b7a:	df 90       	pop	r13
    7b7c:	cf 90       	pop	r12
    7b7e:	bf 90       	pop	r11
    7b80:	af 90       	pop	r10
    7b82:	9f 90       	pop	r9
    7b84:	8f 90       	pop	r8
    7b86:	7f 90       	pop	r7
    7b88:	6f 90       	pop	r6
    7b8a:	5f 90       	pop	r5
    7b8c:	4f 90       	pop	r4
    7b8e:	3f 90       	pop	r3
    7b90:	2f 90       	pop	r2
    7b92:	08 95       	ret

00007b94 <memory_bl_writeEEpromPage>:
    7b94:	ef 92       	push	r14
    7b96:	ff 92       	push	r15
    7b98:	1f 93       	push	r17
    7b9a:	cf 93       	push	r28
    7b9c:	df 93       	push	r29
    7b9e:	7c 01       	movw	r14, r24
    7ba0:	c4 2f       	mov	r28, r20
    7ba2:	d5 2f       	mov	r29, r21
    7ba4:	16 2f       	mov	r17, r22
    7ba6:	14 0f       	add	r17, r20
    7ba8:	1c 17       	cp	r17, r28
    7baa:	41 f0       	breq	.+16     	; 0x7bbc <memory_bl_writeEEpromPage+0x28>
    7bac:	f7 01       	movw	r30, r14
    7bae:	61 91       	ld	r22, Z+
    7bb0:	7f 01       	movw	r14, r30
    7bb2:	ce 01       	movw	r24, r28
    7bb4:	0e 94 57 15 	call	0x2aae	; 0x2aae <__eewr_byte_m328p>
    7bb8:	21 96       	adiw	r28, 0x01	; 1
    7bba:	f6 cf       	rjmp	.-20     	; 0x7ba8 <memory_bl_writeEEpromPage+0x14>
    7bbc:	df 91       	pop	r29
    7bbe:	cf 91       	pop	r28
    7bc0:	1f 91       	pop	r17
    7bc2:	ff 90       	pop	r15
    7bc4:	ef 90       	pop	r14
    7bc6:	08 95       	ret

Disassembly of section .df4iah_bl_probe:

000078c0 <probe_bl_close>:
    78c0:	5b 98       	cbi	0x0b, 3	; 11
    78c2:	08 95       	ret

000078c4 <probe_bl_checkJumper>:
    78c4:	89 b1       	in	r24, 0x09	; 9
    78c6:	83 fb       	bst	r24, 3
    78c8:	88 27       	eor	r24, r24
    78ca:	80 f9       	bld	r24, 0
    78cc:	91 e0       	ldi	r25, 0x01	; 1
    78ce:	89 27       	eor	r24, r25
    78d0:	08 95       	ret

000078d2 <probe_bl_init>:
    78d2:	85 b7       	in	r24, 0x35	; 53
    78d4:	8f 7e       	andi	r24, 0xEF	; 239
    78d6:	85 bf       	out	0x35, r24	; 53
    78d8:	53 98       	cbi	0x0a, 3	; 10
    78da:	5b 9a       	sbi	0x0b, 3	; 11
    78dc:	8a e0       	ldi	r24, 0x0A	; 10
    78de:	81 50       	subi	r24, 0x01	; 1
    78e0:	41 f0       	breq	.+16     	; 0x78f2 <probe_bl_init+0x20>
    78e2:	a8 95       	wdr
    78e4:	e7 e8       	ldi	r30, 0x87	; 135
    78e6:	f3 e1       	ldi	r31, 0x13	; 19
    78e8:	31 97       	sbiw	r30, 0x01	; 1
    78ea:	f1 f7       	brne	.-4      	; 0x78e8 <probe_bl_init+0x16>
    78ec:	00 c0       	rjmp	.+0      	; 0x78ee <probe_bl_init+0x1c>
    78ee:	00 00       	nop
    78f0:	f6 cf       	rjmp	.-20     	; 0x78de <probe_bl_init+0xc>
    78f2:	0e 94 62 3c 	call	0x78c4	; 0x78c4 <probe_bl_checkJumper>
    78f6:	80 93 16 05 	sts	0x0516, r24
    78fa:	08 95       	ret

Disassembly of section .df4iah_bl_clkpullpwm:

00007780 <clkPullPwm_bl_init>:
    7780:	e4 e6       	ldi	r30, 0x64	; 100
    7782:	f0 e0       	ldi	r31, 0x00	; 0
    7784:	80 81       	ld	r24, Z
    7786:	8f 7d       	andi	r24, 0xDF	; 223
    7788:	80 83       	st	Z, r24
    778a:	16 bc       	out	0x26, r1	; 38
    778c:	8a eb       	ldi	r24, 0xBA	; 186
    778e:	88 bd       	out	0x28, r24	; 40
    7790:	83 e2       	ldi	r24, 0x23	; 35
    7792:	84 bd       	out	0x24, r24	; 36
    7794:	81 e0       	ldi	r24, 0x01	; 1
    7796:	85 bd       	out	0x25, r24	; 37
    7798:	55 9a       	sbi	0x0a, 5	; 10
    779a:	45 9a       	sbi	0x08, 5	; 8
    779c:	3d 9a       	sbi	0x07, 5	; 7
    779e:	08 95       	ret

000077a0 <clkPullPwm_bl_close>:
    77a0:	3d 98       	cbi	0x07, 5	; 7
    77a2:	55 98       	cbi	0x0a, 5	; 10
    77a4:	15 bc       	out	0x25, r1	; 37
    77a6:	14 bc       	out	0x24, r1	; 36
    77a8:	18 bc       	out	0x28, r1	; 40
    77aa:	16 bc       	out	0x26, r1	; 38
    77ac:	e4 e6       	ldi	r30, 0x64	; 100
    77ae:	f0 e0       	ldi	r31, 0x00	; 0
    77b0:	80 81       	ld	r24, Z
    77b2:	80 62       	ori	r24, 0x20	; 32
    77b4:	80 83       	st	Z, r24
    77b6:	08 95       	ret

000077b8 <clkPullPwm_bl_setRatio>:
    77b8:	88 bd       	out	0x28, r24	; 40
    77ba:	08 95       	ret

000077bc <clkPullPwm_bl_togglePin>:
    77bc:	80 e2       	ldi	r24, 0x20	; 32
    77be:	86 b9       	out	0x06, r24	; 6
    77c0:	08 95       	ret

000077c2 <clkPullPwm_bl_endlessTogglePin>:
    77c2:	80 e2       	ldi	r24, 0x20	; 32
    77c4:	86 b9       	out	0x06, r24	; 6
    77c6:	e7 e8       	ldi	r30, 0x87	; 135
    77c8:	f3 e1       	ldi	r31, 0x13	; 19
    77ca:	31 97       	sbiw	r30, 0x01	; 1
    77cc:	f1 f7       	brne	.-4      	; 0x77ca <clkPullPwm_bl_endlessTogglePin+0x8>
    77ce:	00 c0       	rjmp	.+0      	; 0x77d0 <clkPullPwm_bl_endlessTogglePin+0xe>
    77d0:	00 00       	nop
    77d2:	a8 95       	wdr
    77d4:	f7 cf       	rjmp	.-18     	; 0x77c4 <clkPullPwm_bl_endlessTogglePin+0x2>
