
avr_DF4IAH_Bootloader.elf:     Dateiformat elf32-avr

Sektionen:
Idx Name          Größe     VMA       LMA       Datei-Off Ausr.
  0 .data         00000002  00800100  0000775c  00000870  2**0
                  CONTENTS, ALLOC, LOAD, DATA
  1 .text         0000075c  00007000  00007000  00000114  2**1
                  CONTENTS, ALLOC, LOAD, READONLY, CODE
  2 .df4iah_bl_memory 000002cc  00007900  00007900  00000904  2**1
                  CONTENTS, ALLOC, LOAD, READONLY, CODE
  3 .df4iah_bl_probe 0000003c  000078c0  000078c0  000008c8  2**1
                  CONTENTS, ALLOC, LOAD, READONLY, CODE
  4 .df4iah_bl_usb 000003f2  00007be0  00007be0  00000bd0  2**1
                  CONTENTS, ALLOC, LOAD, READONLY, CODE
  5 .df4iah_bl_clkpullpwm 00000056  00007780  00007780  00000872  2**1
                  CONTENTS, ALLOC, LOAD, READONLY, CODE
  6 .bss          0000005e  00800102  00800102  00000fc2  2**0
                  ALLOC
  7 .stab         00000840  00000000  00000000  00000fc4  2**2
                  CONTENTS, READONLY, DEBUGGING
  8 .stabstr      000000b2  00000000  00000000  00001804  2**0
                  CONTENTS, READONLY, DEBUGGING
  9 .comment      00000011  00000000  00000000  000018b6  2**0
                  CONTENTS, READONLY

Disassembly of section .text:

00007000 <__vectors>:
    7000:	0c 94 7b 38 	jmp	0x70f6	; 0x70f6 <__ctors_end>
    7004:	0c 94 c3 38 	jmp	0x7186	; 0x7186 <__vector_1>
    7008:	0c 94 98 38 	jmp	0x7130	; 0x7130 <__bad_interrupt>
    700c:	0c 94 98 38 	jmp	0x7130	; 0x7130 <__bad_interrupt>
    7010:	0c 94 98 38 	jmp	0x7130	; 0x7130 <__bad_interrupt>
    7014:	0c 94 98 38 	jmp	0x7130	; 0x7130 <__bad_interrupt>
    7018:	0c 94 98 38 	jmp	0x7130	; 0x7130 <__bad_interrupt>
    701c:	0c 94 98 38 	jmp	0x7130	; 0x7130 <__bad_interrupt>
    7020:	0c 94 98 38 	jmp	0x7130	; 0x7130 <__bad_interrupt>
    7024:	0c 94 98 38 	jmp	0x7130	; 0x7130 <__bad_interrupt>
    7028:	0c 94 98 38 	jmp	0x7130	; 0x7130 <__bad_interrupt>
    702c:	0c 94 98 38 	jmp	0x7130	; 0x7130 <__bad_interrupt>
    7030:	0c 94 98 38 	jmp	0x7130	; 0x7130 <__bad_interrupt>
    7034:	0c 94 98 38 	jmp	0x7130	; 0x7130 <__bad_interrupt>
    7038:	0c 94 98 38 	jmp	0x7130	; 0x7130 <__bad_interrupt>
    703c:	0c 94 98 38 	jmp	0x7130	; 0x7130 <__bad_interrupt>
    7040:	0c 94 98 38 	jmp	0x7130	; 0x7130 <__bad_interrupt>
    7044:	0c 94 98 38 	jmp	0x7130	; 0x7130 <__bad_interrupt>
    7048:	0c 94 98 38 	jmp	0x7130	; 0x7130 <__bad_interrupt>
    704c:	0c 94 98 38 	jmp	0x7130	; 0x7130 <__bad_interrupt>
    7050:	0c 94 98 38 	jmp	0x7130	; 0x7130 <__bad_interrupt>
    7054:	0c 94 98 38 	jmp	0x7130	; 0x7130 <__bad_interrupt>
    7058:	0c 94 98 38 	jmp	0x7130	; 0x7130 <__bad_interrupt>
    705c:	0c 94 98 38 	jmp	0x7130	; 0x7130 <__bad_interrupt>
    7060:	0c 94 98 38 	jmp	0x7130	; 0x7130 <__bad_interrupt>
    7064:	0c 94 98 38 	jmp	0x7130	; 0x7130 <__bad_interrupt>

00007068 <usbDescriptorConfiguration>:
    7068:	09 02 12 00 01 01 00 80 69 09 04 00 00 00 00 00     ........i.......
	...

0000707a <usbDescriptorDevice>:
    707a:	12 01 10 01 ff 00 00 08 c0 16 dc 05 00 01 01 02     ................
    708a:	03 01                                               ..

0000708c <usbDescriptorStringSerialNumber>:
    708c:	10 03 50 00 72 00 6f 00 74 00 6f 00 2d 00 31 00     ..P.r.o.t.o.-.1.

0000709c <usbDescriptorStringDevice>:
    709c:	48 03 42 00 6f 00 6f 00 74 00 6c 00 6f 00 61 00     H.B.o.o.t.l.o.a.
    70ac:	64 00 65 00 72 00 20 00 66 00 6f 00 72 00 20 00     d.e.r. .f.o.r. .
    70bc:	44 00 46 00 34 00 49 00 41 00 48 00 2d 00 31 00     D.F.4.I.A.H.-.1.
    70cc:	30 00 4d 00 48 00 7a 00 2d 00 52 00 65 00 66 00     0.M.H.z.-.R.e.f.
    70dc:	2d 00 4f 00 73 00 63 00                             -.O.s.c.

000070e4 <usbDescriptorStringVendor>:
    70e4:	0e 03 44 00 46 00 34 00 49 00 41 00 48 00           ..D.F.4.I.A.H.

000070f2 <usbDescriptorString0>:
    70f2:	04 03 09 04                                         ....

000070f6 <__ctors_end>:
    70f6:	11 24       	eor	r1, r1
    70f8:	1f be       	out	0x3f, r1	; 63
    70fa:	cf ef       	ldi	r28, 0xFF	; 255
    70fc:	d8 e0       	ldi	r29, 0x08	; 8
    70fe:	de bf       	out	0x3e, r29	; 62
    7100:	cd bf       	out	0x3d, r28	; 61

00007102 <__do_copy_data>:
    7102:	11 e0       	ldi	r17, 0x01	; 1
    7104:	a0 e0       	ldi	r26, 0x00	; 0
    7106:	b1 e0       	ldi	r27, 0x01	; 1
    7108:	ec e5       	ldi	r30, 0x5C	; 92
    710a:	f7 e7       	ldi	r31, 0x77	; 119
    710c:	02 c0       	rjmp	.+4      	; 0x7112 <__do_copy_data+0x10>
    710e:	05 90       	lpm	r0, Z+
    7110:	0d 92       	st	X+, r0
    7112:	a2 30       	cpi	r26, 0x02	; 2
    7114:	b1 07       	cpc	r27, r17
    7116:	d9 f7       	brne	.-10     	; 0x710e <__do_copy_data+0xc>

00007118 <__do_clear_bss>:
    7118:	11 e0       	ldi	r17, 0x01	; 1
    711a:	a2 e0       	ldi	r26, 0x02	; 2
    711c:	b1 e0       	ldi	r27, 0x01	; 1
    711e:	01 c0       	rjmp	.+2      	; 0x7122 <.do_clear_bss_start>

00007120 <.do_clear_bss_loop>:
    7120:	1d 92       	st	X+, r1

00007122 <.do_clear_bss_start>:
    7122:	a0 36       	cpi	r26, 0x60	; 96
    7124:	b1 07       	cpc	r27, r17
    7126:	e1 f7       	brne	.-8      	; 0x7120 <.do_clear_bss_loop>
    7128:	0e 94 28 3b 	call	0x7650	; 0x7650 <main>
    712c:	0c 94 ac 3b 	jmp	0x7758	; 0x7758 <_exit>

00007130 <__bad_interrupt>:
    7130:	0c 94 00 38 	jmp	0x7000	; 0x7000 <__vectors>

00007134 <usbCrc16>:
    7134:	a8 2f       	mov	r26, r24
    7136:	b9 2f       	mov	r27, r25
    7138:	8f ef       	ldi	r24, 0xFF	; 255
    713a:	9f ef       	ldi	r25, 0xFF	; 255
    713c:	1b c0       	rjmp	.+54     	; 0x7174 <usbCrc16LoopTest>

0000713e <usbCrc16ByteLoop>:
    713e:	2d 91       	ld	r18, X+
    7140:	82 27       	eor	r24, r18
    7142:	28 2f       	mov	r18, r24
    7144:	22 95       	swap	r18
    7146:	28 27       	eor	r18, r24
    7148:	72 2f       	mov	r23, r18
    714a:	26 95       	lsr	r18
    714c:	26 95       	lsr	r18
    714e:	27 27       	eor	r18, r23
    7150:	23 95       	inc	r18
    7152:	26 95       	lsr	r18
    7154:	21 70       	andi	r18, 0x01	; 1
    7156:	78 2f       	mov	r23, r24
    7158:	89 2f       	mov	r24, r25
    715a:	82 27       	eor	r24, r18
    715c:	21 95       	neg	r18
    715e:	20 7c       	andi	r18, 0xC0	; 192
    7160:	92 2f       	mov	r25, r18
    7162:	22 27       	eor	r18, r18
    7164:	76 95       	lsr	r23
    7166:	27 95       	ror	r18
    7168:	97 27       	eor	r25, r23
    716a:	82 27       	eor	r24, r18
    716c:	76 95       	lsr	r23
    716e:	27 95       	ror	r18
    7170:	97 27       	eor	r25, r23
    7172:	82 27       	eor	r24, r18

00007174 <usbCrc16LoopTest>:
    7174:	61 50       	subi	r22, 0x01	; 1
    7176:	18 f7       	brcc	.-58     	; 0x713e <usbCrc16ByteLoop>
    7178:	80 95       	com	r24
    717a:	90 95       	com	r25
    717c:	08 95       	ret

0000717e <usbCrc16Append>:
    717e:	da df       	rcall	.-76     	; 0x7134 <usbCrc16>
    7180:	8d 93       	st	X+, r24
    7182:	9d 93       	st	X+, r25
    7184:	08 95       	ret

00007186 <__vector_1>:
    7186:	cf 93       	push	r28
    7188:	cf b7       	in	r28, 0x3f	; 63
    718a:	cf 93       	push	r28
    718c:	df 93       	push	r29

0000718e <waitForJ>:
    718e:	c3 95       	inc	r28
    7190:	33 9b       	sbis	0x06, 3	; 6
    7192:	e9 f7       	brne	.-6      	; 0x718e <waitForJ>

00007194 <waitForK>:
    7194:	33 9b       	sbis	0x06, 3	; 6
    7196:	19 c0       	rjmp	.+50     	; 0x71ca <foundK>
    7198:	33 9b       	sbis	0x06, 3	; 6
    719a:	17 c0       	rjmp	.+46     	; 0x71ca <foundK>
    719c:	33 9b       	sbis	0x06, 3	; 6
    719e:	15 c0       	rjmp	.+42     	; 0x71ca <foundK>
    71a0:	33 9b       	sbis	0x06, 3	; 6
    71a2:	13 c0       	rjmp	.+38     	; 0x71ca <foundK>
    71a4:	33 9b       	sbis	0x06, 3	; 6
    71a6:	11 c0       	rjmp	.+34     	; 0x71ca <foundK>
    71a8:	33 9b       	sbis	0x06, 3	; 6
    71aa:	0f c0       	rjmp	.+30     	; 0x71ca <foundK>
    71ac:	33 9b       	sbis	0x06, 3	; 6
    71ae:	0d c0       	rjmp	.+26     	; 0x71ca <foundK>
    71b0:	33 9b       	sbis	0x06, 3	; 6
    71b2:	0b c0       	rjmp	.+22     	; 0x71ca <foundK>
    71b4:	33 9b       	sbis	0x06, 3	; 6
    71b6:	09 c0       	rjmp	.+18     	; 0x71ca <foundK>
    71b8:	c0 91 1b 01 	lds	r28, 0x011B
    71bc:	c3 95       	inc	r28
    71be:	c0 93 1b 01 	sts	0x011B, r28
    71c2:	c6 b5       	in	r28, 0x26	; 38
    71c4:	c0 93 05 01 	sts	0x0105, r28
    71c8:	81 c0       	rjmp	.+258    	; 0x72cc <sofError>

000071ca <foundK>:
    71ca:	6f 93       	push	r22
    71cc:	c0 91 1a 01 	lds	r28, 0x011A
    71d0:	dd 27       	eor	r29, r29
    71d2:	ce 5d       	subi	r28, 0xDE	; 222
    71d4:	de 4f       	sbci	r29, 0xFE	; 254
    71d6:	2f 93       	push	r18
    71d8:	20 e4       	ldi	r18, 0x40	; 64
    71da:	00 c0       	rjmp	.+0      	; 0x71dc <foundK+0x12>
    71dc:	65 e0       	ldi	r22, 0x05	; 5
    71de:	33 9b       	sbis	0x06, 3	; 6
    71e0:	03 c0       	rjmp	.+6      	; 0x71e8 <haveTwoBitsK>
    71e2:	2f 91       	pop	r18
    71e4:	6f 91       	pop	r22
    71e6:	d6 cf       	rjmp	.-84     	; 0x7194 <waitForK>

000071e8 <haveTwoBitsK>:
    71e8:	0f 93       	push	r16
    71ea:	1f 93       	push	r17
    71ec:	4f 93       	push	r20
    71ee:	45 e5       	ldi	r20, 0x55	; 85
    71f0:	5f 93       	push	r21
    71f2:	55 e5       	ldi	r21, 0x55	; 85
    71f4:	3f 93       	push	r19
    71f6:	3b e0       	ldi	r19, 0x0B	; 11
    71f8:	14 e0       	ldi	r17, 0x04	; 4

000071fa <bit0>:
    71fa:	06 b1       	in	r16, 0x06	; 6
    71fc:	0c 70       	andi	r16, 0x0C	; 12
    71fe:	2e c0       	rjmp	.+92     	; 0x725c <handleBit>

00007200 <b6checkUnstuff>:
    7200:	6a 95       	dec	r22
    7202:	c9 f0       	breq	.+50     	; 0x7236 <unstuff6>

00007204 <bit7>:
    7204:	31 50       	subi	r19, 0x01	; 1
    7206:	d8 f1       	brcs	.+118    	; 0x727e <overflow>
    7208:	06 b1       	in	r16, 0x06	; 6
    720a:	0c 70       	andi	r16, 0x0C	; 12
    720c:	01 13       	cpse	r16, r17
    720e:	0b c0       	rjmp	.+22     	; 0x7226 <b7handle0>
    7210:	08 94       	sec
    7212:	27 95       	ror	r18
    7214:	29 93       	st	Y+, r18
    7216:	20 e4       	ldi	r18, 0x40	; 64
    7218:	55 55       	subi	r21, 0x55	; 85
    721a:	00 f4       	brcc	.+0      	; 0x721c <bit7+0x18>
    721c:	6a 95       	dec	r22
    721e:	69 f7       	brne	.-38     	; 0x71fa <bit0>
    7220:	01 e0       	ldi	r16, 0x01	; 1
    7222:	66 b1       	in	r22, 0x06	; 6
    7224:	0b c0       	rjmp	.+22     	; 0x723c <unstuff>

00007226 <b7handle0>:
    7226:	10 2f       	mov	r17, r16
    7228:	66 e0       	ldi	r22, 0x06	; 6
    722a:	26 95       	lsr	r18
    722c:	29 93       	st	Y+, r18
    722e:	20 e4       	ldi	r18, 0x40	; 64
    7230:	55 55       	subi	r21, 0x55	; 85
    7232:	18 f3       	brcs	.-58     	; 0x71fa <bit0>
    7234:	e2 cf       	rjmp	.-60     	; 0x71fa <bit0>

00007236 <unstuff6>:
    7236:	0f ef       	ldi	r16, 0xFF	; 255
    7238:	66 b1       	in	r22, 0x06	; 6
	...

0000723c <unstuff>:
    723c:	16 2f       	mov	r17, r22
    723e:	45 55       	subi	r20, 0x55	; 85
    7240:	00 f0       	brcs	.+0      	; 0x7242 <unstuff+0x6>
    7242:	40 40       	sbci	r20, 0x00	; 0
    7244:	66 e0       	ldi	r22, 0x06	; 6
    7246:	1c 70       	andi	r17, 0x0C	; 12
    7248:	00 30       	cpi	r16, 0x00	; 0
    724a:	e2 f2       	brmi	.-72     	; 0x7204 <bit7>
    724c:	21 f0       	breq	.+8      	; 0x7256 <bitloop>
    724e:	00 00       	nop
    7250:	06 b1       	in	r16, 0x06	; 6
    7252:	0c 70       	andi	r16, 0x0C	; 12
    7254:	03 c0       	rjmp	.+6      	; 0x725c <handleBit>

00007256 <bitloop>:
    7256:	06 b1       	in	r16, 0x06	; 6
    7258:	0c 70       	andi	r16, 0x0C	; 12
    725a:	a9 f0       	breq	.+42     	; 0x7286 <se0>

0000725c <handleBit>:
    725c:	01 13       	cpse	r16, r17
    725e:	09 c0       	rjmp	.+18     	; 0x7272 <handle0>
    7260:	08 94       	sec
    7262:	27 95       	ror	r18
    7264:	68 f2       	brcs	.-102    	; 0x7200 <b6checkUnstuff>
    7266:	00 c0       	rjmp	.+0      	; 0x7268 <handleBit+0xc>
    7268:	6a 95       	dec	r22
    726a:	a9 f7       	brne	.-22     	; 0x7256 <bitloop>
    726c:	00 e0       	ldi	r16, 0x00	; 0
    726e:	66 b1       	in	r22, 0x06	; 6
    7270:	e5 cf       	rjmp	.-54     	; 0x723c <unstuff>

00007272 <handle0>:
    7272:	10 2f       	mov	r17, r16
    7274:	66 e0       	ldi	r22, 0x06	; 6
    7276:	26 95       	lsr	r18
    7278:	28 f2       	brcs	.-118    	; 0x7204 <bit7>
    727a:	00 00       	nop
    727c:	ec cf       	rjmp	.-40     	; 0x7256 <bitloop>

0000727e <overflow>:
    727e:	11 e0       	ldi	r17, 0x01	; 1
    7280:	1c bb       	out	0x1c, r17	; 28

00007282 <ignorePacket>:
    7282:	00 27       	eor	r16, r16
    7284:	17 c0       	rjmp	.+46     	; 0x72b4 <handleSetupOrOut>

00007286 <se0>:
    7286:	3b 50       	subi	r19, 0x0B	; 11
    7288:	31 95       	neg	r19
    728a:	c3 1b       	sub	r28, r19
    728c:	d0 40       	sbci	r29, 0x00	; 0
    728e:	11 e0       	ldi	r17, 0x01	; 1
    7290:	1c bb       	out	0x1c, r17	; 28
    7292:	08 81       	ld	r16, Y
    7294:	03 3c       	cpi	r16, 0xC3	; 195
    7296:	f9 f0       	breq	.+62     	; 0x72d6 <handleData>
    7298:	0b 34       	cpi	r16, 0x4B	; 75
    729a:	e9 f0       	breq	.+58     	; 0x72d6 <handleData>
    729c:	20 91 18 01 	lds	r18, 0x0118
    72a0:	19 81       	ldd	r17, Y+1	; 0x01
    72a2:	11 0f       	add	r17, r17
    72a4:	12 13       	cpse	r17, r18
    72a6:	ed cf       	rjmp	.-38     	; 0x7282 <ignorePacket>
    72a8:	09 36       	cpi	r16, 0x69	; 105
    72aa:	51 f1       	breq	.+84     	; 0x7300 <handleIn>
    72ac:	0d 32       	cpi	r16, 0x2D	; 45
    72ae:	11 f0       	breq	.+4      	; 0x72b4 <handleSetupOrOut>
    72b0:	01 3e       	cpi	r16, 0xE1	; 225
    72b2:	39 f7       	brne	.-50     	; 0x7282 <ignorePacket>

000072b4 <handleSetupOrOut>:
    72b4:	00 93 20 01 	sts	0x0120, r16

000072b8 <doReturn>:
    72b8:	3f 91       	pop	r19
    72ba:	5f 91       	pop	r21
    72bc:	4f 91       	pop	r20
    72be:	1f 91       	pop	r17
    72c0:	0f 91       	pop	r16
    72c2:	2f 91       	pop	r18
    72c4:	6f 91       	pop	r22
    72c6:	cc b3       	in	r28, 0x1c	; 28
    72c8:	c0 fd       	sbrc	r28, 0
    72ca:	61 cf       	rjmp	.-318    	; 0x718e <waitForJ>

000072cc <sofError>:
    72cc:	df 91       	pop	r29
    72ce:	cf 91       	pop	r28
    72d0:	cf bf       	out	0x3f, r28	; 63
    72d2:	cf 91       	pop	r28
    72d4:	18 95       	reti

000072d6 <handleData>:
    72d6:	20 91 20 01 	lds	r18, 0x0120
    72da:	22 23       	and	r18, r18
    72dc:	69 f3       	breq	.-38     	; 0x72b8 <doReturn>
    72de:	10 91 1e 01 	lds	r17, 0x011E
    72e2:	11 23       	and	r17, r17
    72e4:	29 f5       	brne	.+74     	; 0x7330 <sendNakAndReti>
    72e6:	34 30       	cpi	r19, 0x04	; 4
    72e8:	2a f1       	brmi	.+74     	; 0x7334 <sendAckAndReti>
    72ea:	30 93 1e 01 	sts	0x011E, r19
    72ee:	20 93 19 01 	sts	0x0119, r18
    72f2:	10 91 1a 01 	lds	r17, 0x011A
    72f6:	3b e0       	ldi	r19, 0x0B	; 11
    72f8:	31 1b       	sub	r19, r17
    72fa:	30 93 1a 01 	sts	0x011A, r19
    72fe:	1a c0       	rjmp	.+52     	; 0x7334 <sendAckAndReti>

00007300 <handleIn>:
    7300:	00 91 1e 01 	lds	r16, 0x011E
    7304:	01 30       	cpi	r16, 0x01	; 1
    7306:	a4 f4       	brge	.+40     	; 0x7330 <sendNakAndReti>
    7308:	0a e5       	ldi	r16, 0x5A	; 90
    730a:	30 91 01 01 	lds	r19, 0x0101
    730e:	34 fd       	sbrc	r19, 4
    7310:	12 c0       	rjmp	.+36     	; 0x7336 <sendCntAndReti>
    7312:	00 93 01 01 	sts	0x0101, r16
    7316:	cd e0       	ldi	r28, 0x0D	; 13
    7318:	d1 e0       	ldi	r29, 0x01	; 1
    731a:	11 c0       	rjmp	.+34     	; 0x733e <usbSendAndReti>

0000731c <bitstuffN>:
    731c:	05 27       	eor	r16, r21
    731e:	10 e0       	ldi	r17, 0x00	; 0
    7320:	00 c0       	rjmp	.+0      	; 0x7322 <bitstuffN+0x6>
    7322:	08 b9       	out	0x08, r16	; 8
    7324:	19 c0       	rjmp	.+50     	; 0x7358 <didStuffN>

00007326 <bitstuff7>:
    7326:	05 27       	eor	r16, r21
    7328:	10 e0       	ldi	r17, 0x00	; 0
    732a:	22 1f       	adc	r18, r18
    732c:	00 c0       	rjmp	.+0      	; 0x732e <bitstuff7+0x8>
    732e:	1d c0       	rjmp	.+58     	; 0x736a <didStuff7>

00007330 <sendNakAndReti>:
    7330:	4a e5       	ldi	r20, 0x5A	; 90
    7332:	02 c0       	rjmp	.+4      	; 0x7338 <sendX3AndReti>

00007334 <sendAckAndReti>:
    7334:	32 ed       	ldi	r19, 0xD2	; 210

00007336 <sendCntAndReti>:
    7336:	43 2f       	mov	r20, r19

00007338 <sendX3AndReti>:
    7338:	c4 e1       	ldi	r28, 0x14	; 20
    733a:	d0 e0       	ldi	r29, 0x00	; 0
    733c:	32 e0       	ldi	r19, 0x02	; 2

0000733e <usbSendAndReti>:
    733e:	17 b1       	in	r17, 0x07	; 7
    7340:	1c 60       	ori	r17, 0x0C	; 12
    7342:	43 9a       	sbi	0x08, 3	; 8
    7344:	08 b1       	in	r16, 0x08	; 8
    7346:	17 b9       	out	0x07, r17	; 7
    7348:	5c e0       	ldi	r21, 0x0C	; 12
    734a:	20 e8       	ldi	r18, 0x80	; 128

0000734c <txByteLoop>:
    734c:	69 e4       	ldi	r22, 0x49	; 73

0000734e <txBitLoop>:
    734e:	20 ff       	sbrs	r18, 0
    7350:	05 27       	eor	r16, r21
    7352:	08 b9       	out	0x08, r16	; 8
    7354:	27 95       	ror	r18
    7356:	17 95       	ror	r17

00007358 <didStuffN>:
    7358:	00 c0       	rjmp	.+0      	; 0x735a <didStuffN+0x2>
    735a:	00 00       	nop
    735c:	1c 3f       	cpi	r17, 0xFC	; 252
    735e:	f0 f6       	brcc	.-68     	; 0x731c <bitstuffN>
    7360:	66 95       	lsr	r22
    7362:	a8 f7       	brcc	.-22     	; 0x734e <txBitLoop>
    7364:	a1 f7       	brne	.-24     	; 0x734e <txBitLoop>
    7366:	20 ff       	sbrs	r18, 0
    7368:	05 27       	eor	r16, r21

0000736a <didStuff7>:
    736a:	08 b9       	out	0x08, r16	; 8
    736c:	27 95       	ror	r18
    736e:	17 95       	ror	r17
    7370:	00 00       	nop
    7372:	1c 3f       	cpi	r17, 0xFC	; 252
    7374:	c0 f6       	brcc	.-80     	; 0x7326 <bitstuff7>
    7376:	29 91       	ld	r18, Y+
    7378:	3a 95       	dec	r19
    737a:	41 f7       	brne	.-48     	; 0x734c <txByteLoop>
    737c:	03 7f       	andi	r16, 0xF3	; 243
    737e:	10 91 1f 01 	lds	r17, 0x011F
    7382:	11 0f       	add	r17, r17
    7384:	08 b9       	out	0x08, r16	; 8
    7386:	c6 51       	subi	r28, 0x16	; 22
    7388:	d0 40       	sbci	r29, 0x00	; 0
    738a:	11 f0       	breq	.+4      	; 0x7390 <skipAddrAssign>
    738c:	10 93 18 01 	sts	0x0118, r17

00007390 <skipAddrAssign>:
    7390:	11 e0       	ldi	r17, 0x01	; 1
    7392:	1c bb       	out	0x1c, r17	; 28
    7394:	08 60       	ori	r16, 0x08	; 8
    7396:	17 b1       	in	r17, 0x07	; 7
    7398:	13 7f       	andi	r17, 0xF3	; 243
    739a:	40 2f       	mov	r20, r16
    739c:	43 7f       	andi	r20, 0xF3	; 243
    739e:	55 e0       	ldi	r21, 0x05	; 5

000073a0 <se0Delay>:
    73a0:	5a 95       	dec	r21
    73a2:	f1 f7       	brne	.-4      	; 0x73a0 <se0Delay>
    73a4:	08 b9       	out	0x08, r16	; 8
    73a6:	17 b9       	out	0x07, r17	; 7
    73a8:	48 b9       	out	0x08, r20	; 8
    73aa:	86 cf       	rjmp	.-244    	; 0x72b8 <doReturn>

000073ac <usbPoll>:
    73ac:	cf 93       	push	r28
    73ae:	df 93       	push	r29
    73b0:	60 91 1e 01 	lds	r22, 0x011E
    73b4:	63 50       	subi	r22, 0x03	; 3
    73b6:	67 fd       	sbrc	r22, 7
    73b8:	d0 c0       	rjmp	.+416    	; 0x755a <usbPoll+0x1ae>
    73ba:	80 91 1a 01 	lds	r24, 0x011A
    73be:	cc e0       	ldi	r28, 0x0C	; 12
    73c0:	d0 e0       	ldi	r29, 0x00	; 0
    73c2:	c8 1b       	sub	r28, r24
    73c4:	d1 09       	sbc	r29, r1
    73c6:	ce 5d       	subi	r28, 0xDE	; 222
    73c8:	de 4f       	sbci	r29, 0xFE	; 254
    73ca:	80 91 19 01 	lds	r24, 0x0119
    73ce:	8d 32       	cpi	r24, 0x2D	; 45
    73d0:	09 f0       	breq	.+2      	; 0x73d4 <usbPoll+0x28>
    73d2:	b1 c0       	rjmp	.+354    	; 0x7536 <usbPoll+0x18a>
    73d4:	68 30       	cpi	r22, 0x08	; 8
    73d6:	09 f0       	breq	.+2      	; 0x73da <usbPoll+0x2e>
    73d8:	be c0       	rjmp	.+380    	; 0x7556 <usbPoll+0x1aa>
    73da:	83 ec       	ldi	r24, 0xC3	; 195
    73dc:	80 93 0d 01 	sts	0x010D, r24
    73e0:	8a e5       	ldi	r24, 0x5A	; 90
    73e2:	80 93 01 01 	sts	0x0101, r24
    73e6:	10 92 02 01 	sts	0x0102, r1
    73ea:	38 81       	ld	r19, Y
    73ec:	83 2f       	mov	r24, r19
    73ee:	80 76       	andi	r24, 0x60	; 96
    73f0:	21 f0       	breq	.+8      	; 0x73fa <usbPoll+0x4e>
    73f2:	ce 01       	movw	r24, r28
    73f4:	0e 94 16 3e 	call	0x7c2c	; 0x7c2c <usbFunctionSetup>
    73f8:	8b c0       	rjmp	.+278    	; 0x7510 <usbPoll+0x164>
    73fa:	8a 81       	ldd	r24, Y+2	; 0x02
    73fc:	2c 81       	ldd	r18, Y+4	; 0x04
    73fe:	10 92 16 01 	sts	0x0116, r1
    7402:	99 81       	ldd	r25, Y+1	; 0x01
    7404:	91 11       	cpse	r25, r1
    7406:	13 c0       	rjmp	.+38     	; 0x742e <usbPoll+0x82>
    7408:	3f 71       	andi	r19, 0x1F	; 31
    740a:	32 30       	cpi	r19, 0x02	; 2
    740c:	51 f4       	brne	.+20     	; 0x7422 <usbPoll+0x76>
    740e:	21 38       	cpi	r18, 0x81	; 129
    7410:	41 f4       	brne	.+16     	; 0x7422 <usbPoll+0x76>
    7412:	90 91 38 01 	lds	r25, 0x0138
    7416:	81 e0       	ldi	r24, 0x01	; 1
    7418:	9e 31       	cpi	r25, 0x1E	; 30
    741a:	09 f0       	breq	.+2      	; 0x741e <usbPoll+0x72>
    741c:	80 e0       	ldi	r24, 0x00	; 0
    741e:	80 93 16 01 	sts	0x0116, r24
    7422:	10 92 17 01 	sts	0x0117, r1
    7426:	26 e1       	ldi	r18, 0x16	; 22
    7428:	31 e0       	ldi	r19, 0x01	; 1
    742a:	82 e0       	ldi	r24, 0x02	; 2
    742c:	6d c0       	rjmp	.+218    	; 0x7508 <usbPoll+0x15c>
    742e:	39 2f       	mov	r19, r25
    7430:	3d 7f       	andi	r19, 0xFD	; 253
    7432:	31 30       	cpi	r19, 0x01	; 1
    7434:	69 f4       	brne	.+26     	; 0x7450 <usbPoll+0xa4>
    7436:	81 11       	cpse	r24, r1
    7438:	60 c0       	rjmp	.+192    	; 0x74fa <usbPoll+0x14e>
    743a:	21 38       	cpi	r18, 0x81	; 129
    743c:	09 f0       	breq	.+2      	; 0x7440 <usbPoll+0x94>
    743e:	5d c0       	rjmp	.+186    	; 0x74fa <usbPoll+0x14e>
    7440:	91 30       	cpi	r25, 0x01	; 1
    7442:	11 f4       	brne	.+4      	; 0x7448 <usbPoll+0x9c>
    7444:	8a e5       	ldi	r24, 0x5A	; 90
    7446:	01 c0       	rjmp	.+2      	; 0x744a <usbPoll+0x9e>
    7448:	8e e1       	ldi	r24, 0x1E	; 30
    744a:	80 93 38 01 	sts	0x0138, r24
    744e:	55 c0       	rjmp	.+170    	; 0x74fa <usbPoll+0x14e>
    7450:	95 30       	cpi	r25, 0x05	; 5
    7452:	19 f4       	brne	.+6      	; 0x745a <usbPoll+0xae>
    7454:	80 93 1f 01 	sts	0x011F, r24
    7458:	50 c0       	rjmp	.+160    	; 0x74fa <usbPoll+0x14e>
    745a:	96 30       	cpi	r25, 0x06	; 6
    745c:	09 f0       	breq	.+2      	; 0x7460 <usbPoll+0xb4>
    745e:	3f c0       	rjmp	.+126    	; 0x74de <usbPoll+0x132>
    7460:	9b 81       	ldd	r25, Y+3	; 0x03
    7462:	91 30       	cpi	r25, 0x01	; 1
    7464:	19 f4       	brne	.+6      	; 0x746c <usbPoll+0xc0>
    7466:	8a e7       	ldi	r24, 0x7A	; 122
    7468:	90 e7       	ldi	r25, 0x70	; 112
    746a:	04 c0       	rjmp	.+8      	; 0x7474 <usbPoll+0xc8>
    746c:	92 30       	cpi	r25, 0x02	; 2
    746e:	41 f4       	brne	.+16     	; 0x7480 <usbPoll+0xd4>
    7470:	88 e6       	ldi	r24, 0x68	; 104
    7472:	90 e7       	ldi	r25, 0x70	; 112
    7474:	90 93 1d 01 	sts	0x011D, r25
    7478:	80 93 1c 01 	sts	0x011C, r24
    747c:	82 e1       	ldi	r24, 0x12	; 18
    747e:	2b c0       	rjmp	.+86     	; 0x74d6 <usbPoll+0x12a>
    7480:	93 30       	cpi	r25, 0x03	; 3
    7482:	41 f5       	brne	.+80     	; 0x74d4 <usbPoll+0x128>
    7484:	81 11       	cpse	r24, r1
    7486:	08 c0       	rjmp	.+16     	; 0x7498 <usbPoll+0xec>
    7488:	82 ef       	ldi	r24, 0xF2	; 242
    748a:	90 e7       	ldi	r25, 0x70	; 112
    748c:	90 93 1d 01 	sts	0x011D, r25
    7490:	80 93 1c 01 	sts	0x011C, r24
    7494:	84 e0       	ldi	r24, 0x04	; 4
    7496:	1f c0       	rjmp	.+62     	; 0x74d6 <usbPoll+0x12a>
    7498:	81 30       	cpi	r24, 0x01	; 1
    749a:	41 f4       	brne	.+16     	; 0x74ac <usbPoll+0x100>
    749c:	84 ee       	ldi	r24, 0xE4	; 228
    749e:	90 e7       	ldi	r25, 0x70	; 112
    74a0:	90 93 1d 01 	sts	0x011D, r25
    74a4:	80 93 1c 01 	sts	0x011C, r24
    74a8:	8e e0       	ldi	r24, 0x0E	; 14
    74aa:	15 c0       	rjmp	.+42     	; 0x74d6 <usbPoll+0x12a>
    74ac:	82 30       	cpi	r24, 0x02	; 2
    74ae:	41 f4       	brne	.+16     	; 0x74c0 <usbPoll+0x114>
    74b0:	8c e9       	ldi	r24, 0x9C	; 156
    74b2:	90 e7       	ldi	r25, 0x70	; 112
    74b4:	90 93 1d 01 	sts	0x011D, r25
    74b8:	80 93 1c 01 	sts	0x011C, r24
    74bc:	88 e4       	ldi	r24, 0x48	; 72
    74be:	0b c0       	rjmp	.+22     	; 0x74d6 <usbPoll+0x12a>
    74c0:	83 30       	cpi	r24, 0x03	; 3
    74c2:	41 f4       	brne	.+16     	; 0x74d4 <usbPoll+0x128>
    74c4:	8c e8       	ldi	r24, 0x8C	; 140
    74c6:	90 e7       	ldi	r25, 0x70	; 112
    74c8:	90 93 1d 01 	sts	0x011D, r25
    74cc:	80 93 1c 01 	sts	0x011C, r24
    74d0:	80 e1       	ldi	r24, 0x10	; 16
    74d2:	01 c0       	rjmp	.+2      	; 0x74d6 <usbPoll+0x12a>
    74d4:	80 e0       	ldi	r24, 0x00	; 0
    74d6:	90 e4       	ldi	r25, 0x40	; 64
    74d8:	90 93 02 01 	sts	0x0102, r25
    74dc:	19 c0       	rjmp	.+50     	; 0x7510 <usbPoll+0x164>
    74de:	98 30       	cpi	r25, 0x08	; 8
    74e0:	81 f0       	breq	.+32     	; 0x7502 <usbPoll+0x156>
    74e2:	99 30       	cpi	r25, 0x09	; 9
    74e4:	19 f4       	brne	.+6      	; 0x74ec <usbPoll+0x140>
    74e6:	80 93 21 01 	sts	0x0121, r24
    74ea:	07 c0       	rjmp	.+14     	; 0x74fa <usbPoll+0x14e>
    74ec:	81 e0       	ldi	r24, 0x01	; 1
    74ee:	9a 30       	cpi	r25, 0x0A	; 10
    74f0:	09 f0       	breq	.+2      	; 0x74f4 <usbPoll+0x148>
    74f2:	80 e0       	ldi	r24, 0x00	; 0
    74f4:	26 e1       	ldi	r18, 0x16	; 22
    74f6:	31 e0       	ldi	r19, 0x01	; 1
    74f8:	07 c0       	rjmp	.+14     	; 0x7508 <usbPoll+0x15c>
    74fa:	26 e1       	ldi	r18, 0x16	; 22
    74fc:	31 e0       	ldi	r19, 0x01	; 1
    74fe:	80 e0       	ldi	r24, 0x00	; 0
    7500:	03 c0       	rjmp	.+6      	; 0x7508 <usbPoll+0x15c>
    7502:	21 e2       	ldi	r18, 0x21	; 33
    7504:	31 e0       	ldi	r19, 0x01	; 1
    7506:	81 e0       	ldi	r24, 0x01	; 1
    7508:	30 93 1d 01 	sts	0x011D, r19
    750c:	20 93 1c 01 	sts	0x011C, r18
    7510:	8f 3f       	cpi	r24, 0xFF	; 255
    7512:	39 f4       	brne	.+14     	; 0x7522 <usbPoll+0x176>
    7514:	98 81       	ld	r25, Y
    7516:	97 fd       	sbrc	r25, 7
    7518:	8e 81       	ldd	r24, Y+6	; 0x06
    751a:	90 e8       	ldi	r25, 0x80	; 128
    751c:	90 93 02 01 	sts	0x0102, r25
    7520:	07 c0       	rjmp	.+14     	; 0x7530 <usbPoll+0x184>
    7522:	9f 81       	ldd	r25, Y+7	; 0x07
    7524:	91 11       	cpse	r25, r1
    7526:	04 c0       	rjmp	.+8      	; 0x7530 <usbPoll+0x184>
    7528:	9e 81       	ldd	r25, Y+6	; 0x06
    752a:	98 17       	cp	r25, r24
    752c:	08 f4       	brcc	.+2      	; 0x7530 <usbPoll+0x184>
    752e:	89 2f       	mov	r24, r25
    7530:	80 93 00 01 	sts	0x0100, r24
    7534:	10 c0       	rjmp	.+32     	; 0x7556 <usbPoll+0x1aa>
    7536:	80 91 02 01 	lds	r24, 0x0102
    753a:	87 ff       	sbrs	r24, 7
    753c:	0c c0       	rjmp	.+24     	; 0x7556 <usbPoll+0x1aa>
    753e:	ce 01       	movw	r24, r28
    7540:	0e 94 a7 3f 	call	0x7f4e	; 0x7f4e <usbFunctionWrite>
    7544:	8f 3f       	cpi	r24, 0xFF	; 255
    7546:	21 f4       	brne	.+8      	; 0x7550 <usbPoll+0x1a4>
    7548:	8e e1       	ldi	r24, 0x1E	; 30
    754a:	80 93 01 01 	sts	0x0101, r24
    754e:	03 c0       	rjmp	.+6      	; 0x7556 <usbPoll+0x1aa>
    7550:	81 11       	cpse	r24, r1
    7552:	10 92 00 01 	sts	0x0100, r1
    7556:	10 92 1e 01 	sts	0x011E, r1
    755a:	80 91 01 01 	lds	r24, 0x0101
    755e:	84 ff       	sbrs	r24, 4
    7560:	5e c0       	rjmp	.+188    	; 0x761e <usbPoll+0x272>
    7562:	80 91 00 01 	lds	r24, 0x0100
    7566:	8f 3f       	cpi	r24, 0xFF	; 255
    7568:	09 f4       	brne	.+2      	; 0x756c <usbPoll+0x1c0>
    756a:	59 c0       	rjmp	.+178    	; 0x761e <usbPoll+0x272>
    756c:	c8 2f       	mov	r28, r24
    756e:	89 30       	cpi	r24, 0x09	; 9
    7570:	08 f0       	brcs	.+2      	; 0x7574 <usbPoll+0x1c8>
    7572:	c8 e0       	ldi	r28, 0x08	; 8
    7574:	8c 1b       	sub	r24, r28
    7576:	80 93 00 01 	sts	0x0100, r24
    757a:	80 91 0d 01 	lds	r24, 0x010D
    757e:	98 e8       	ldi	r25, 0x88	; 136
    7580:	89 27       	eor	r24, r25
    7582:	80 93 0d 01 	sts	0x010D, r24
    7586:	cc 23       	and	r28, r28
    7588:	c1 f1       	breq	.+112    	; 0x75fa <usbPoll+0x24e>
    758a:	80 91 02 01 	lds	r24, 0x0102
    758e:	87 ff       	sbrs	r24, 7
    7590:	09 c0       	rjmp	.+18     	; 0x75a4 <usbPoll+0x1f8>
    7592:	6c 2f       	mov	r22, r28
    7594:	8e e0       	ldi	r24, 0x0E	; 14
    7596:	91 e0       	ldi	r25, 0x01	; 1
    7598:	0e 94 6e 3f 	call	0x7edc	; 0x7edc <usbFunctionRead>
    759c:	c8 2f       	mov	r28, r24
    759e:	89 30       	cpi	r24, 0x09	; 9
    75a0:	c0 f5       	brcc	.+112    	; 0x7612 <usbPoll+0x266>
    75a2:	2b c0       	rjmp	.+86     	; 0x75fa <usbPoll+0x24e>
    75a4:	20 91 1c 01 	lds	r18, 0x011C
    75a8:	30 91 1d 01 	lds	r19, 0x011D
    75ac:	86 ff       	sbrs	r24, 6
    75ae:	12 c0       	rjmp	.+36     	; 0x75d4 <usbPoll+0x228>
    75b0:	ae e0       	ldi	r26, 0x0E	; 14
    75b2:	b1 e0       	ldi	r27, 0x01	; 1
    75b4:	4d e0       	ldi	r20, 0x0D	; 13
    75b6:	51 e0       	ldi	r21, 0x01	; 1
    75b8:	40 95       	com	r20
    75ba:	50 95       	com	r21
    75bc:	42 0f       	add	r20, r18
    75be:	53 1f       	adc	r21, r19
    75c0:	8c 2f       	mov	r24, r28
    75c2:	8a 0f       	add	r24, r26
    75c4:	fa 01       	movw	r30, r20
    75c6:	ea 0f       	add	r30, r26
    75c8:	fb 1f       	adc	r31, r27
    75ca:	e4 91       	lpm	r30, Z
    75cc:	ed 93       	st	X+, r30
    75ce:	8a 13       	cpse	r24, r26
    75d0:	f9 cf       	rjmp	.-14     	; 0x75c4 <usbPoll+0x218>
    75d2:	09 c0       	rjmp	.+18     	; 0x75e6 <usbPoll+0x23a>
    75d4:	ee e0       	ldi	r30, 0x0E	; 14
    75d6:	f1 e0       	ldi	r31, 0x01	; 1
    75d8:	d9 01       	movw	r26, r18
    75da:	8c 2f       	mov	r24, r28
    75dc:	8e 0f       	add	r24, r30
    75de:	9d 91       	ld	r25, X+
    75e0:	91 93       	st	Z+, r25
    75e2:	8e 13       	cpse	r24, r30
    75e4:	fc cf       	rjmp	.-8      	; 0x75de <usbPoll+0x232>
    75e6:	2f 5f       	subi	r18, 0xFF	; 255
    75e8:	3f 4f       	sbci	r19, 0xFF	; 255
    75ea:	8f ef       	ldi	r24, 0xFF	; 255
    75ec:	8c 0f       	add	r24, r28
    75ee:	28 0f       	add	r18, r24
    75f0:	31 1d       	adc	r19, r1
    75f2:	30 93 1d 01 	sts	0x011D, r19
    75f6:	20 93 1c 01 	sts	0x011C, r18
    75fa:	6c 2f       	mov	r22, r28
    75fc:	8e e0       	ldi	r24, 0x0E	; 14
    75fe:	91 e0       	ldi	r25, 0x01	; 1
    7600:	0e 94 bf 38 	call	0x717e	; 0x717e <usbCrc16Append>
    7604:	cc 5f       	subi	r28, 0xFC	; 252
    7606:	cc 30       	cpi	r28, 0x0C	; 12
    7608:	41 f0       	breq	.+16     	; 0x761a <usbPoll+0x26e>
    760a:	8f ef       	ldi	r24, 0xFF	; 255
    760c:	80 93 00 01 	sts	0x0100, r24
    7610:	04 c0       	rjmp	.+8      	; 0x761a <usbPoll+0x26e>
    7612:	8f ef       	ldi	r24, 0xFF	; 255
    7614:	80 93 00 01 	sts	0x0100, r24
    7618:	ce e1       	ldi	r28, 0x1E	; 30
    761a:	c0 93 01 01 	sts	0x0101, r28
    761e:	84 e1       	ldi	r24, 0x14	; 20
    7620:	96 b1       	in	r25, 0x06	; 6
    7622:	9c 70       	andi	r25, 0x0C	; 12
    7624:	31 f4       	brne	.+12     	; 0x7632 <usbPoll+0x286>
    7626:	81 50       	subi	r24, 0x01	; 1
    7628:	d9 f7       	brne	.-10     	; 0x7620 <usbPoll+0x274>
    762a:	10 92 1f 01 	sts	0x011F, r1
    762e:	10 92 18 01 	sts	0x0118, r1
    7632:	df 91       	pop	r29
    7634:	cf 91       	pop	r28
    7636:	08 95       	ret

00007638 <usbInit>:
    7638:	e9 e6       	ldi	r30, 0x69	; 105
    763a:	f0 e0       	ldi	r31, 0x00	; 0
    763c:	80 81       	ld	r24, Z
    763e:	82 60       	ori	r24, 0x02	; 2
    7640:	80 83       	st	Z, r24
    7642:	e8 9a       	sbi	0x1d, 0	; 29
    7644:	08 95       	ret

00007646 <give_away>:
    7646:	a8 95       	wdr
    7648:	0e 94 d6 39 	call	0x73ac	; 0x73ac <usbPoll>
    764c:	0c 94 de 3b 	jmp	0x77bc	; 0x77bc <clkPullPwm_bl_togglePin>

00007650 <main>:
    7650:	cf 93       	push	r28
    7652:	df 93       	push	r29
    7654:	00 d0       	rcall	.+0      	; 0x7656 <main+0x6>
    7656:	00 d0       	rcall	.+0      	; 0x7658 <main+0x8>
    7658:	cd b7       	in	r28, 0x3d	; 61
    765a:	de b7       	in	r29, 0x3e	; 62
    765c:	f8 94       	cli
    765e:	f8 94       	cli
    7660:	81 e0       	ldi	r24, 0x01	; 1
    7662:	85 bf       	out	0x35, r24	; 53
    7664:	82 e0       	ldi	r24, 0x02	; 2
    7666:	85 bf       	out	0x35, r24	; 53
    7668:	8f ee       	ldi	r24, 0xEF	; 239
    766a:	80 93 64 00 	sts	0x0064, r24
    766e:	80 b7       	in	r24, 0x30	; 48
    7670:	80 68       	ori	r24, 0x80	; 128
    7672:	80 bf       	out	0x30, r24	; 48
    7674:	80 91 7f 00 	lds	r24, 0x007F
    7678:	83 60       	ori	r24, 0x03	; 3
    767a:	80 93 7f 00 	sts	0x007F, r24
    767e:	85 b7       	in	r24, 0x35	; 53
    7680:	8f 7e       	andi	r24, 0xEF	; 239
    7682:	85 bf       	out	0x35, r24	; 53
    7684:	88 e1       	ldi	r24, 0x18	; 24
    7686:	f8 2e       	mov	r15, r24
    7688:	0f ef       	ldi	r16, 0xFF	; 255
    768a:	1f ef       	ldi	r17, 0xFF	; 255
    768c:	0f b6       	in	r0, 0x3f	; 63
    768e:	f8 94       	cli
    7690:	f0 92 60 00 	sts	0x0060, r15
    7694:	10 92 60 00 	sts	0x0060, r1
    7698:	0f be       	out	0x3f, r0	; 63
    769a:	0e 94 69 3c 	call	0x78d2	; 0x78d2 <probe_bl_init>
    769e:	1c 82       	std	Y+4, r1	; 0x04
    76a0:	1b 82       	std	Y+3, r1	; 0x03
    76a2:	4a ef       	ldi	r20, 0xFA	; 250
    76a4:	53 e0       	ldi	r21, 0x03	; 3
    76a6:	62 e0       	ldi	r22, 0x02	; 2
    76a8:	ce 01       	movw	r24, r28
    76aa:	03 96       	adiw	r24, 0x03	; 3
    76ac:	0e 94 c7 3c 	call	0x798e	; 0x798e <memory_bl_readEEpromPage>
    76b0:	8b 81       	ldd	r24, Y+3	; 0x03
    76b2:	9c 81       	ldd	r25, Y+4	; 0x04
    76b4:	8f 30       	cpi	r24, 0x0F	; 15
    76b6:	90 4b       	sbci	r25, 0xB0	; 176
    76b8:	e1 f0       	breq	.+56     	; 0x76f2 <main+0xa2>
    76ba:	1a 82       	std	Y+2, r1	; 0x02
    76bc:	19 82       	std	Y+1, r1	; 0x01
    76be:	20 e0       	ldi	r18, 0x00	; 0
    76c0:	30 e0       	ldi	r19, 0x00	; 0
    76c2:	a9 01       	movw	r20, r18
    76c4:	62 e0       	ldi	r22, 0x02	; 2
    76c6:	ce 01       	movw	r24, r28
    76c8:	01 96       	adiw	r24, 0x01	; 1
    76ca:	0e 94 94 3c 	call	0x7928	; 0x7928 <memory_bl_readFlashPage>
    76ce:	80 91 04 01 	lds	r24, 0x0104
    76d2:	81 11       	cpse	r24, r1
    76d4:	17 c0       	rjmp	.+46     	; 0x7704 <main+0xb4>
    76d6:	89 81       	ldd	r24, Y+1	; 0x01
    76d8:	9a 81       	ldd	r25, Y+2	; 0x02
    76da:	8c 30       	cpi	r24, 0x0C	; 12
    76dc:	94 49       	sbci	r25, 0x94	; 148
    76de:	91 f4       	brne	.+36     	; 0x7704 <main+0xb4>
    76e0:	0e 94 60 3c 	call	0x78c0	; 0x78c0 <probe_bl_close>
    76e4:	f8 94       	cli
    76e6:	e0 91 06 01 	lds	r30, 0x0106
    76ea:	f0 91 07 01 	lds	r31, 0x0107
    76ee:	09 95       	icall
    76f0:	09 c0       	rjmp	.+18     	; 0x7704 <main+0xb4>
    76f2:	1a 83       	std	Y+2, r17	; 0x02
    76f4:	09 83       	std	Y+1, r16	; 0x01
    76f6:	4a ef       	ldi	r20, 0xFA	; 250
    76f8:	53 e0       	ldi	r21, 0x03	; 3
    76fa:	62 e0       	ldi	r22, 0x02	; 2
    76fc:	ce 01       	movw	r24, r28
    76fe:	01 96       	adiw	r24, 0x01	; 1
    7700:	0e 94 cc 3d 	call	0x7b98	; 0x7b98 <memory_bl_writeEEpromPage>
    7704:	0e 94 c0 3b 	call	0x7780	; 0x7780 <clkPullPwm_bl_init>
    7708:	0e 94 fe 3d 	call	0x7bfc	; 0x7bfc <usb_bl_init>
    770c:	10 92 03 01 	sts	0x0103, r1
    7710:	78 94       	sei
    7712:	80 91 03 01 	lds	r24, 0x0103
    7716:	81 11       	cpse	r24, r1
    7718:	03 c0       	rjmp	.+6      	; 0x7720 <main+0xd0>
    771a:	0e 94 23 3b 	call	0x7646	; 0x7646 <give_away>
    771e:	f9 cf       	rjmp	.-14     	; 0x7712 <main+0xc2>
    7720:	f8 94       	cli
    7722:	0e 94 12 3e 	call	0x7c24	; 0x7c24 <usb_bl_close>
    7726:	0e 94 d0 3b 	call	0x77a0	; 0x77a0 <clkPullPwm_bl_close>
    772a:	b0 cf       	rjmp	.-160    	; 0x768c <main+0x3c>

0000772c <__eerd_byte_m328p>:
    772c:	f9 99       	sbic	0x1f, 1	; 31
    772e:	fe cf       	rjmp	.-4      	; 0x772c <__eerd_byte_m328p>
    7730:	92 bd       	out	0x22, r25	; 34
    7732:	81 bd       	out	0x21, r24	; 33
    7734:	f8 9a       	sbi	0x1f, 0	; 31
    7736:	99 27       	eor	r25, r25
    7738:	80 b5       	in	r24, 0x20	; 32
    773a:	08 95       	ret

0000773c <__eewr_byte_m328p>:
    773c:	26 2f       	mov	r18, r22

0000773e <__eewr_r18_m328p>:
    773e:	f9 99       	sbic	0x1f, 1	; 31
    7740:	fe cf       	rjmp	.-4      	; 0x773e <__eewr_r18_m328p>
    7742:	1f ba       	out	0x1f, r1	; 31
    7744:	92 bd       	out	0x22, r25	; 34
    7746:	81 bd       	out	0x21, r24	; 33
    7748:	20 bd       	out	0x20, r18	; 32
    774a:	0f b6       	in	r0, 0x3f	; 63
    774c:	f8 94       	cli
    774e:	fa 9a       	sbi	0x1f, 2	; 31
    7750:	f9 9a       	sbi	0x1f, 1	; 31
    7752:	0f be       	out	0x3f, r0	; 63
    7754:	01 96       	adiw	r24, 0x01	; 1
    7756:	08 95       	ret

00007758 <_exit>:
    7758:	f8 94       	cli

0000775a <__stop_program>:
    775a:	ff cf       	rjmp	.-2      	; 0x775a <__stop_program>

Disassembly of section .df4iah_bl_memory:

00007900 <memory_bl_eraseFlash>:
    7900:	e0 e0       	ldi	r30, 0x00	; 0
    7902:	f0 e0       	ldi	r31, 0x00	; 0
    7904:	83 e0       	ldi	r24, 0x03	; 3
    7906:	80 93 57 00 	sts	0x0057, r24
    790a:	e8 95       	spm
    790c:	07 b6       	in	r0, 0x37	; 55
    790e:	00 fc       	sbrc	r0, 0
    7910:	fd cf       	rjmp	.-6      	; 0x790c <memory_bl_eraseFlash+0xc>
    7912:	e0 58       	subi	r30, 0x80	; 128
    7914:	ff 4f       	sbci	r31, 0xFF	; 255
    7916:	e1 15       	cp	r30, r1
    7918:	90 e7       	ldi	r25, 0x70	; 112
    791a:	f9 07       	cpc	r31, r25
    791c:	a1 f7       	brne	.-24     	; 0x7906 <memory_bl_eraseFlash+0x6>
    791e:	81 e1       	ldi	r24, 0x11	; 17
    7920:	80 93 57 00 	sts	0x0057, r24
    7924:	e8 95       	spm
    7926:	08 95       	ret

00007928 <memory_bl_readFlashPage>:
    7928:	0f 93       	push	r16
    792a:	1f 93       	push	r17
    792c:	cf 93       	push	r28
    792e:	df 93       	push	r29
    7930:	72 2f       	mov	r23, r18
    7932:	02 2f       	mov	r16, r18
    7934:	13 2f       	mov	r17, r19
    7936:	9a 01       	movw	r18, r20
    7938:	a1 e0       	ldi	r26, 0x01	; 1
    793a:	a7 1b       	sub	r26, r23
    793c:	d0 2f       	mov	r29, r16
    793e:	c0 2f       	mov	r28, r16
    7940:	c7 1b       	sub	r28, r23
    7942:	66 23       	and	r22, r22
    7944:	f9 f0       	breq	.+62     	; 0x7984 <memory_bl_readFlashPage+0x5c>
    7946:	0f 3f       	cpi	r16, 0xFF	; 255
    7948:	4f e6       	ldi	r20, 0x6F	; 111
    794a:	14 07       	cpc	r17, r20
    794c:	21 05       	cpc	r18, r1
    794e:	31 05       	cpc	r19, r1
    7950:	30 f4       	brcc	.+12     	; 0x795e <memory_bl_readFlashPage+0x36>
    7952:	f8 01       	movw	r30, r16
    7954:	45 91       	lpm	r20, Z+
    7956:	54 91       	lpm	r21, Z
    7958:	b4 2f       	mov	r27, r20
    795a:	45 2f       	mov	r20, r21
    795c:	02 c0       	rjmp	.+4      	; 0x7962 <memory_bl_readFlashPage+0x3a>
    795e:	bf ef       	ldi	r27, 0xFF	; 255
    7960:	4f ef       	ldi	r20, 0xFF	; 255
    7962:	fc 01       	movw	r30, r24
    7964:	ec 0f       	add	r30, r28
    7966:	f1 1d       	adc	r31, r1
    7968:	b0 83       	st	Z, r27
    796a:	61 30       	cpi	r22, 0x01	; 1
    796c:	59 f0       	breq	.+22     	; 0x7984 <memory_bl_readFlashPage+0x5c>
    796e:	da 0f       	add	r29, r26
    7970:	fc 01       	movw	r30, r24
    7972:	ed 0f       	add	r30, r29
    7974:	f1 1d       	adc	r31, r1
    7976:	40 83       	st	Z, r20
    7978:	0e 5f       	subi	r16, 0xFE	; 254
    797a:	1f 4f       	sbci	r17, 0xFF	; 255
    797c:	2f 4f       	sbci	r18, 0xFF	; 255
    797e:	3f 4f       	sbci	r19, 0xFF	; 255
    7980:	62 50       	subi	r22, 0x02	; 2
    7982:	dc cf       	rjmp	.-72     	; 0x793c <memory_bl_readFlashPage+0x14>
    7984:	df 91       	pop	r29
    7986:	cf 91       	pop	r28
    7988:	1f 91       	pop	r17
    798a:	0f 91       	pop	r16
    798c:	08 95       	ret

0000798e <memory_bl_readEEpromPage>:
    798e:	ef 92       	push	r14
    7990:	ff 92       	push	r15
    7992:	0f 93       	push	r16
    7994:	1f 93       	push	r17
    7996:	cf 93       	push	r28
    7998:	df 93       	push	r29
    799a:	1f 92       	push	r1
    799c:	cd b7       	in	r28, 0x3d	; 61
    799e:	de b7       	in	r29, 0x3e	; 62
    79a0:	8a 01       	movw	r16, r20
    79a2:	7c 01       	movw	r14, r24
    79a4:	08 1b       	sub	r16, r24
    79a6:	19 0b       	sbc	r17, r25
    79a8:	66 23       	and	r22, r22
    79aa:	61 f0       	breq	.+24     	; 0x79c4 <memory_bl_readEEpromPage+0x36>
    79ac:	c8 01       	movw	r24, r16
    79ae:	8e 0d       	add	r24, r14
    79b0:	9f 1d       	adc	r25, r15
    79b2:	69 83       	std	Y+1, r22	; 0x01
    79b4:	0e 94 96 3b 	call	0x772c	; 0x772c <__eerd_byte_m328p>
    79b8:	f7 01       	movw	r30, r14
    79ba:	81 93       	st	Z+, r24
    79bc:	7f 01       	movw	r14, r30
    79be:	69 81       	ldd	r22, Y+1	; 0x01
    79c0:	61 50       	subi	r22, 0x01	; 1
    79c2:	f2 cf       	rjmp	.-28     	; 0x79a8 <memory_bl_readEEpromPage+0x1a>
    79c4:	0f 90       	pop	r0
    79c6:	df 91       	pop	r29
    79c8:	cf 91       	pop	r28
    79ca:	1f 91       	pop	r17
    79cc:	0f 91       	pop	r16
    79ce:	ff 90       	pop	r15
    79d0:	ef 90       	pop	r14
    79d2:	08 95       	ret

000079d4 <memory_bl_writeFlashPage>:
    79d4:	2f 92       	push	r2
    79d6:	3f 92       	push	r3
    79d8:	4f 92       	push	r4
    79da:	5f 92       	push	r5
    79dc:	6f 92       	push	r6
    79de:	7f 92       	push	r7
    79e0:	8f 92       	push	r8
    79e2:	9f 92       	push	r9
    79e4:	af 92       	push	r10
    79e6:	bf 92       	push	r11
    79e8:	cf 92       	push	r12
    79ea:	df 92       	push	r13
    79ec:	ef 92       	push	r14
    79ee:	ff 92       	push	r15
    79f0:	0f 93       	push	r16
    79f2:	1f 93       	push	r17
    79f4:	cf 93       	push	r28
    79f6:	df 93       	push	r29
    79f8:	00 d0       	rcall	.+0      	; 0x79fa <memory_bl_writeFlashPage+0x26>
    79fa:	00 d0       	rcall	.+0      	; 0x79fc <memory_bl_writeFlashPage+0x28>
    79fc:	cd b7       	in	r28, 0x3d	; 61
    79fe:	de b7       	in	r29, 0x3e	; 62
    7a00:	4c 01       	movw	r8, r24
    7a02:	b1 2c       	mov	r11, r1
    7a04:	66 23       	and	r22, r22
    7a06:	09 f4       	brne	.+2      	; 0x7a0a <memory_bl_writeFlashPage+0x36>
    7a08:	b0 c0       	rjmp	.+352    	; 0x7b6a <memory_bl_writeFlashPage+0x196>
    7a0a:	f2 2f       	mov	r31, r18
    7a0c:	ff 77       	andi	r31, 0x7F	; 127
    7a0e:	da 01       	movw	r26, r20
    7a10:	c9 01       	movw	r24, r18
    7a12:	8f 1b       	sub	r24, r31
    7a14:	91 09       	sbc	r25, r1
    7a16:	a1 09       	sbc	r26, r1
    7a18:	b1 09       	sbc	r27, r1
    7a1a:	89 83       	std	Y+1, r24	; 0x01
    7a1c:	9a 83       	std	Y+2, r25	; 0x02
    7a1e:	ab 83       	std	Y+3, r26	; 0x03
    7a20:	bc 83       	std	Y+4, r27	; 0x04
    7a22:	cc 24       	eor	r12, r12
    7a24:	ca 94       	dec	r12
    7a26:	ef e6       	ldi	r30, 0x6F	; 111
    7a28:	de 2e       	mov	r13, r30
    7a2a:	e1 2c       	mov	r14, r1
    7a2c:	f1 2c       	mov	r15, r1
    7a2e:	c2 1a       	sub	r12, r18
    7a30:	d3 0a       	sbc	r13, r19
    7a32:	e4 0a       	sbc	r14, r20
    7a34:	f5 0a       	sbc	r15, r21
    7a36:	86 2f       	mov	r24, r22
    7a38:	90 e0       	ldi	r25, 0x00	; 0
    7a3a:	a0 e0       	ldi	r26, 0x00	; 0
    7a3c:	b0 e0       	ldi	r27, 0x00	; 0
    7a3e:	c8 16       	cp	r12, r24
    7a40:	d9 06       	cpc	r13, r25
    7a42:	ea 06       	cpc	r14, r26
    7a44:	fb 06       	cpc	r15, r27
    7a46:	10 f4       	brcc	.+4      	; 0x7a4c <memory_bl_writeFlashPage+0x78>
    7a48:	d7 01       	movw	r26, r14
    7a4a:	c6 01       	movw	r24, r12
    7a4c:	70 e8       	ldi	r23, 0x80	; 128
    7a4e:	c7 2e       	mov	r12, r23
    7a50:	d1 2c       	mov	r13, r1
    7a52:	cf 1a       	sub	r12, r31
    7a54:	d1 08       	sbc	r13, r1
    7a56:	ee 24       	eor	r14, r14
    7a58:	d7 fc       	sbrc	r13, 7
    7a5a:	e0 94       	com	r14
    7a5c:	fe 2c       	mov	r15, r14
    7a5e:	c8 16       	cp	r12, r24
    7a60:	d9 06       	cpc	r13, r25
    7a62:	ea 06       	cpc	r14, r26
    7a64:	fb 06       	cpc	r15, r27
    7a66:	10 f4       	brcc	.+4      	; 0x7a6c <memory_bl_writeFlashPage+0x98>
    7a68:	d7 01       	movw	r26, r14
    7a6a:	c6 01       	movw	r24, r12
    7a6c:	78 2f       	mov	r23, r24
    7a6e:	2f 3f       	cpi	r18, 0xFF	; 255
    7a70:	ef e6       	ldi	r30, 0x6F	; 111
    7a72:	3e 07       	cpc	r19, r30
    7a74:	41 05       	cpc	r20, r1
    7a76:	51 05       	cpc	r21, r1
    7a78:	08 f0       	brcs	.+2      	; 0x7a7c <memory_bl_writeFlashPage+0xa8>
    7a7a:	77 c0       	rjmp	.+238    	; 0x7b6a <memory_bl_writeFlashPage+0x196>
    7a7c:	f1 11       	cpse	r31, r1
    7a7e:	0a c0       	rjmp	.+20     	; 0x7a94 <memory_bl_writeFlashPage+0xc0>
    7a80:	03 e0       	ldi	r16, 0x03	; 3
    7a82:	d0 2e       	mov	r13, r16
    7a84:	e9 81       	ldd	r30, Y+1	; 0x01
    7a86:	fa 81       	ldd	r31, Y+2	; 0x02
    7a88:	d0 92 57 00 	sts	0x0057, r13
    7a8c:	e8 95       	spm
    7a8e:	07 b6       	in	r0, 0x37	; 55
    7a90:	00 fc       	sbrc	r0, 0
    7a92:	fd cf       	rjmp	.-6      	; 0x7a8e <memory_bl_writeFlashPage+0xba>
    7a94:	16 e0       	ldi	r17, 0x06	; 6
    7a96:	a1 2e       	mov	r10, r17
    7a98:	eb 2c       	mov	r14, r11
    7a9a:	f1 2c       	mov	r15, r1
    7a9c:	14 01       	movw	r2, r8
    7a9e:	2e 0c       	add	r2, r14
    7aa0:	3f 1c       	adc	r3, r15
    7aa2:	e2 1a       	sub	r14, r18
    7aa4:	f3 0a       	sbc	r15, r19
    7aa6:	e8 0c       	add	r14, r8
    7aa8:	f9 1c       	adc	r15, r9
    7aaa:	aa 94       	dec	r10
    7aac:	09 f4       	brne	.+2      	; 0x7ab0 <memory_bl_writeFlashPage+0xdc>
    7aae:	56 c0       	rjmp	.+172    	; 0x7b5c <memory_bl_writeFlashPage+0x188>
    7ab0:	00 e0       	ldi	r16, 0x00	; 0
    7ab2:	10 e0       	ldi	r17, 0x00	; 0
    7ab4:	66 24       	eor	r6, r6
    7ab6:	6a 94       	dec	r6
    7ab8:	76 2c       	mov	r7, r6
    7aba:	07 17       	cp	r16, r23
    7abc:	00 f5       	brcc	.+64     	; 0x7afe <memory_bl_writeFlashPage+0x12a>
    7abe:	28 01       	movw	r4, r16
    7ac0:	42 0e       	add	r4, r18
    7ac2:	53 1e       	adc	r5, r19
    7ac4:	40 fe       	sbrs	r4, 0
    7ac6:	11 c0       	rjmp	.+34     	; 0x7aea <memory_bl_writeFlashPage+0x116>
    7ac8:	61 01       	movw	r12, r2
    7aca:	c0 0e       	add	r12, r16
    7acc:	d1 1e       	adc	r13, r17
    7ace:	f6 01       	movw	r30, r12
    7ad0:	d0 80       	ld	r13, Z
    7ad2:	71 2c       	mov	r7, r1
    7ad4:	7d 28       	or	r7, r13
    7ad6:	f2 01       	movw	r30, r4
    7ad8:	ee 7f       	andi	r30, 0xFE	; 254
    7ada:	dd 24       	eor	r13, r13
    7adc:	d3 94       	inc	r13
    7ade:	03 01       	movw	r0, r6
    7ae0:	d0 92 57 00 	sts	0x0057, r13
    7ae4:	e8 95       	spm
    7ae6:	11 24       	eor	r1, r1
    7ae8:	07 c0       	rjmp	.+14     	; 0x7af8 <memory_bl_writeFlashPage+0x124>
    7aea:	f1 01       	movw	r30, r2
    7aec:	e0 0f       	add	r30, r16
    7aee:	f1 1f       	adc	r31, r17
    7af0:	60 80       	ld	r6, Z
    7af2:	71 2c       	mov	r7, r1
    7af4:	77 24       	eor	r7, r7
    7af6:	7a 94       	dec	r7
    7af8:	0f 5f       	subi	r16, 0xFF	; 255
    7afa:	1f 4f       	sbci	r17, 0xFF	; 255
    7afc:	de cf       	rjmp	.-68     	; 0x7aba <memory_bl_writeFlashPage+0xe6>
    7afe:	f5 e0       	ldi	r31, 0x05	; 5
    7b00:	df 2e       	mov	r13, r31
    7b02:	e9 81       	ldd	r30, Y+1	; 0x01
    7b04:	fa 81       	ldd	r31, Y+2	; 0x02
    7b06:	d0 92 57 00 	sts	0x0057, r13
    7b0a:	e8 95       	spm
    7b0c:	07 b6       	in	r0, 0x37	; 55
    7b0e:	00 fc       	sbrc	r0, 0
    7b10:	fd cf       	rjmp	.-6      	; 0x7b0c <memory_bl_writeFlashPage+0x138>
    7b12:	11 e1       	ldi	r17, 0x11	; 17
    7b14:	10 93 57 00 	sts	0x0057, r17
    7b18:	e8 95       	spm
    7b1a:	29 01       	movw	r4, r18
    7b1c:	3a 01       	movw	r6, r20
    7b1e:	e4 2d       	mov	r30, r4
    7b20:	e2 1b       	sub	r30, r18
    7b22:	e7 17       	cp	r30, r23
    7b24:	d8 f4       	brcc	.+54     	; 0x7b5c <memory_bl_writeFlashPage+0x188>
    7b26:	f2 01       	movw	r30, r4
    7b28:	ee 7f       	andi	r30, 0xFE	; 254
    7b2a:	05 91       	lpm	r16, Z+
    7b2c:	14 91       	lpm	r17, Z
    7b2e:	40 fe       	sbrs	r4, 0
    7b30:	02 c0       	rjmp	.+4      	; 0x7b36 <memory_bl_writeFlashPage+0x162>
    7b32:	e8 e0       	ldi	r30, 0x08	; 8
    7b34:	01 c0       	rjmp	.+2      	; 0x7b38 <memory_bl_writeFlashPage+0x164>
    7b36:	e0 e0       	ldi	r30, 0x00	; 0
    7b38:	ff ef       	ldi	r31, 0xFF	; 255
    7b3a:	4f 1a       	sub	r4, r31
    7b3c:	5f 0a       	sbc	r5, r31
    7b3e:	6f 0a       	sbc	r6, r31
    7b40:	7f 0a       	sbc	r7, r31
    7b42:	02 c0       	rjmp	.+4      	; 0x7b48 <memory_bl_writeFlashPage+0x174>
    7b44:	16 95       	lsr	r17
    7b46:	07 95       	ror	r16
    7b48:	ea 95       	dec	r30
    7b4a:	e2 f7       	brpl	.-8      	; 0x7b44 <memory_bl_writeFlashPage+0x170>
    7b4c:	f7 01       	movw	r30, r14
    7b4e:	e4 0d       	add	r30, r4
    7b50:	f5 1d       	adc	r31, r5
    7b52:	31 97       	sbiw	r30, 0x01	; 1
    7b54:	e0 81       	ld	r30, Z
    7b56:	e0 17       	cp	r30, r16
    7b58:	11 f3       	breq	.-60     	; 0x7b1e <memory_bl_writeFlashPage+0x14a>
    7b5a:	a7 cf       	rjmp	.-178    	; 0x7aaa <memory_bl_writeFlashPage+0xd6>
    7b5c:	28 0f       	add	r18, r24
    7b5e:	39 1f       	adc	r19, r25
    7b60:	4a 1f       	adc	r20, r26
    7b62:	5b 1f       	adc	r21, r27
    7b64:	67 1b       	sub	r22, r23
    7b66:	b7 0e       	add	r11, r23
    7b68:	4d cf       	rjmp	.-358    	; 0x7a04 <memory_bl_writeFlashPage+0x30>
    7b6a:	0f 90       	pop	r0
    7b6c:	0f 90       	pop	r0
    7b6e:	0f 90       	pop	r0
    7b70:	0f 90       	pop	r0
    7b72:	df 91       	pop	r29
    7b74:	cf 91       	pop	r28
    7b76:	1f 91       	pop	r17
    7b78:	0f 91       	pop	r16
    7b7a:	ff 90       	pop	r15
    7b7c:	ef 90       	pop	r14
    7b7e:	df 90       	pop	r13
    7b80:	cf 90       	pop	r12
    7b82:	bf 90       	pop	r11
    7b84:	af 90       	pop	r10
    7b86:	9f 90       	pop	r9
    7b88:	8f 90       	pop	r8
    7b8a:	7f 90       	pop	r7
    7b8c:	6f 90       	pop	r6
    7b8e:	5f 90       	pop	r5
    7b90:	4f 90       	pop	r4
    7b92:	3f 90       	pop	r3
    7b94:	2f 90       	pop	r2
    7b96:	08 95       	ret

00007b98 <memory_bl_writeEEpromPage>:
    7b98:	ff 92       	push	r15
    7b9a:	0f 93       	push	r16
    7b9c:	1f 93       	push	r17
    7b9e:	cf 93       	push	r28
    7ba0:	df 93       	push	r29
    7ba2:	f6 2e       	mov	r15, r22
    7ba4:	8c 01       	movw	r16, r24
    7ba6:	c4 2f       	mov	r28, r20
    7ba8:	d5 2f       	mov	r29, r21
    7baa:	f4 0e       	add	r15, r20
    7bac:	fc 16       	cp	r15, r28
    7bae:	41 f0       	breq	.+16     	; 0x7bc0 <memory_bl_writeEEpromPage+0x28>
    7bb0:	f8 01       	movw	r30, r16
    7bb2:	61 91       	ld	r22, Z+
    7bb4:	8f 01       	movw	r16, r30
    7bb6:	ce 01       	movw	r24, r28
    7bb8:	0e 94 9e 3b 	call	0x773c	; 0x773c <__eewr_byte_m328p>
    7bbc:	21 96       	adiw	r28, 0x01	; 1
    7bbe:	f6 cf       	rjmp	.-20     	; 0x7bac <memory_bl_writeEEpromPage+0x14>
    7bc0:	df 91       	pop	r29
    7bc2:	cf 91       	pop	r28
    7bc4:	1f 91       	pop	r17
    7bc6:	0f 91       	pop	r16
    7bc8:	ff 90       	pop	r15
    7bca:	08 95       	ret

Disassembly of section .df4iah_bl_probe:

000078c0 <probe_bl_close>:
    78c0:	5b 98       	cbi	0x0b, 3	; 11
    78c2:	08 95       	ret

000078c4 <probe_bl_checkJumper>:
    78c4:	89 b1       	in	r24, 0x09	; 9
    78c6:	83 fb       	bst	r24, 3
    78c8:	88 27       	eor	r24, r24
    78ca:	80 f9       	bld	r24, 0
    78cc:	91 e0       	ldi	r25, 0x01	; 1
    78ce:	89 27       	eor	r24, r25
    78d0:	08 95       	ret

000078d2 <probe_bl_init>:
    78d2:	85 b7       	in	r24, 0x35	; 53
    78d4:	8f 7e       	andi	r24, 0xEF	; 239
    78d6:	85 bf       	out	0x35, r24	; 53
    78d8:	53 98       	cbi	0x0a, 3	; 10
    78da:	5b 9a       	sbi	0x0b, 3	; 11
    78dc:	8a e0       	ldi	r24, 0x0A	; 10
    78de:	81 50       	subi	r24, 0x01	; 1
    78e0:	41 f0       	breq	.+16     	; 0x78f2 <probe_bl_init+0x20>
    78e2:	a8 95       	wdr
    78e4:	e7 e8       	ldi	r30, 0x87	; 135
    78e6:	f3 e1       	ldi	r31, 0x13	; 19
    78e8:	31 97       	sbiw	r30, 0x01	; 1
    78ea:	f1 f7       	brne	.-4      	; 0x78e8 <probe_bl_init+0x16>
    78ec:	00 c0       	rjmp	.+0      	; 0x78ee <probe_bl_init+0x1c>
    78ee:	00 00       	nop
    78f0:	f6 cf       	rjmp	.-20     	; 0x78de <probe_bl_init+0xc>
    78f2:	0e 94 62 3c 	call	0x78c4	; 0x78c4 <probe_bl_checkJumper>
    78f6:	80 93 04 01 	sts	0x0104, r24
    78fa:	08 95       	ret

Disassembly of section .df4iah_bl_usb:

00007be0 <usb_bl_replyContent>:
    7be0:	fc 01       	movw	r30, r24
    7be2:	db 01       	movw	r26, r22
    7be4:	12 96       	adiw	r26, 0x02	; 2
    7be6:	8c 91       	ld	r24, X
    7be8:	12 97       	sbiw	r26, 0x02	; 2
    7bea:	80 83       	st	Z, r24
    7bec:	13 96       	adiw	r26, 0x03	; 3
    7bee:	8c 91       	ld	r24, X
    7bf0:	13 97       	sbiw	r26, 0x03	; 3
    7bf2:	81 83       	std	Z+1, r24	; 0x01
    7bf4:	14 96       	adiw	r26, 0x04	; 4
    7bf6:	8c 91       	ld	r24, X
    7bf8:	82 83       	std	Z+2, r24	; 0x02
    7bfa:	08 95       	ret

00007bfc <usb_bl_init>:
    7bfc:	0e 94 1c 3b 	call	0x7638	; 0x7638 <usbInit>
    7c00:	e8 98       	cbi	0x1d, 0	; 29
    7c02:	21 98       	cbi	0x04, 1	; 4
    7c04:	29 98       	cbi	0x05, 1	; 5
    7c06:	8a ef       	ldi	r24, 0xFA	; 250
    7c08:	81 50       	subi	r24, 0x01	; 1
    7c0a:	41 f0       	breq	.+16     	; 0x7c1c <usb_bl_init+0x20>
    7c0c:	e7 e8       	ldi	r30, 0x87	; 135
    7c0e:	f3 e1       	ldi	r31, 0x13	; 19
    7c10:	31 97       	sbiw	r30, 0x01	; 1
    7c12:	f1 f7       	brne	.-4      	; 0x7c10 <usb_bl_init+0x14>
    7c14:	00 c0       	rjmp	.+0      	; 0x7c16 <usb_bl_init+0x1a>
    7c16:	00 00       	nop
    7c18:	a8 95       	wdr
    7c1a:	f6 cf       	rjmp	.-20     	; 0x7c08 <usb_bl_init+0xc>
    7c1c:	21 9a       	sbi	0x04, 1	; 4
    7c1e:	29 9a       	sbi	0x05, 1	; 5
    7c20:	e8 9a       	sbi	0x1d, 0	; 29
    7c22:	08 95       	ret

00007c24 <usb_bl_close>:
    7c24:	e8 98       	cbi	0x1d, 0	; 29
    7c26:	21 98       	cbi	0x04, 1	; 4
    7c28:	29 98       	cbi	0x05, 1	; 5
    7c2a:	08 95       	ret

00007c2c <usbFunctionSetup>:
    7c2c:	dc 01       	movw	r26, r24
    7c2e:	11 96       	adiw	r26, 0x01	; 1
    7c30:	2c 91       	ld	r18, X
    7c32:	11 97       	sbiw	r26, 0x01	; 1
    7c34:	21 30       	cpi	r18, 0x01	; 1
    7c36:	29 f4       	brne	.+10     	; 0x7c42 <usbFunctionSetup+0x16>
    7c38:	20 93 0c 01 	sts	0x010C, r18
    7c3c:	10 92 0a 01 	sts	0x010A, r1
    7c40:	25 c1       	rjmp	.+586    	; 0x7e8c <usbFunctionSetup+0x260>
    7c42:	22 30       	cpi	r18, 0x02	; 2
    7c44:	51 f4       	brne	.+20     	; 0x7c5a <usbFunctionSetup+0x2e>
    7c46:	10 92 0c 01 	sts	0x010C, r1
    7c4a:	80 91 04 01 	lds	r24, 0x0104
    7c4e:	81 11       	cpse	r24, r1
    7c50:	1d c1       	rjmp	.+570    	; 0x7e8c <usbFunctionSetup+0x260>
    7c52:	81 e0       	ldi	r24, 0x01	; 1
    7c54:	80 93 03 01 	sts	0x0103, r24
    7c58:	19 c1       	rjmp	.+562    	; 0x7e8c <usbFunctionSetup+0x260>
    7c5a:	23 30       	cpi	r18, 0x03	; 3
    7c5c:	09 f0       	breq	.+2      	; 0x7c60 <usbFunctionSetup+0x34>
    7c5e:	76 c0       	rjmp	.+236    	; 0x7d4c <usbFunctionSetup+0x120>
    7c60:	12 96       	adiw	r26, 0x02	; 2
    7c62:	8d 91       	ld	r24, X+
    7c64:	9c 91       	ld	r25, X
    7c66:	13 97       	sbiw	r26, 0x03	; 3
    7c68:	80 33       	cpi	r24, 0x30	; 48
    7c6a:	91 05       	cpc	r25, r1
    7c6c:	b1 f4       	brne	.+44     	; 0x7c9a <usbFunctionSetup+0x6e>
    7c6e:	14 96       	adiw	r26, 0x04	; 4
    7c70:	ec 91       	ld	r30, X
    7c72:	14 97       	sbiw	r26, 0x04	; 4
    7c74:	e3 30       	cpi	r30, 0x03	; 3
    7c76:	08 f0       	brcs	.+2      	; 0x7c7a <usbFunctionSetup+0x4e>
    7c78:	09 c1       	rjmp	.+530    	; 0x7e8c <usbFunctionSetup+0x260>
    7c7a:	12 96       	adiw	r26, 0x02	; 2
    7c7c:	8c 91       	ld	r24, X
    7c7e:	12 97       	sbiw	r26, 0x02	; 2
    7c80:	80 93 50 01 	sts	0x0150, r24
    7c84:	13 96       	adiw	r26, 0x03	; 3
    7c86:	8c 91       	ld	r24, X
    7c88:	80 93 51 01 	sts	0x0151, r24
    7c8c:	e0 93 52 01 	sts	0x0152, r30
    7c90:	f0 e0       	ldi	r31, 0x00	; 0
    7c92:	ee 0f       	add	r30, r30
    7c94:	ff 1f       	adc	r31, r31
    7c96:	81 e2       	ldi	r24, 0x21	; 33
    7c98:	53 c0       	rjmp	.+166    	; 0x7d40 <usbFunctionSetup+0x114>
    7c9a:	80 35       	cpi	r24, 0x50	; 80
    7c9c:	91 05       	cpc	r25, r1
    7c9e:	89 f4       	brne	.+34     	; 0x7cc2 <usbFunctionSetup+0x96>
    7ca0:	12 96       	adiw	r26, 0x02	; 2
    7ca2:	8c 91       	ld	r24, X
    7ca4:	12 97       	sbiw	r26, 0x02	; 2
    7ca6:	80 93 50 01 	sts	0x0150, r24
    7caa:	13 96       	adiw	r26, 0x03	; 3
    7cac:	8c 91       	ld	r24, X
    7cae:	13 97       	sbiw	r26, 0x03	; 3
    7cb0:	80 93 51 01 	sts	0x0151, r24
    7cb4:	14 96       	adiw	r26, 0x04	; 4
    7cb6:	8c 91       	ld	r24, X
    7cb8:	80 93 52 01 	sts	0x0152, r24
    7cbc:	e0 e0       	ldi	r30, 0x00	; 0
    7cbe:	f0 e0       	ldi	r31, 0x00	; 0
    7cc0:	3e c0       	rjmp	.+124    	; 0x7d3e <usbFunctionSetup+0x112>
    7cc2:	88 35       	cpi	r24, 0x58	; 88
    7cc4:	28 e0       	ldi	r18, 0x08	; 8
    7cc6:	92 07       	cpc	r25, r18
    7cc8:	89 f4       	brne	.+34     	; 0x7cec <usbFunctionSetup+0xc0>
    7cca:	12 96       	adiw	r26, 0x02	; 2
    7ccc:	8c 91       	ld	r24, X
    7cce:	12 97       	sbiw	r26, 0x02	; 2
    7cd0:	80 93 50 01 	sts	0x0150, r24
    7cd4:	13 96       	adiw	r26, 0x03	; 3
    7cd6:	8c 91       	ld	r24, X
    7cd8:	13 97       	sbiw	r26, 0x03	; 3
    7cda:	80 93 51 01 	sts	0x0151, r24
    7cde:	14 96       	adiw	r26, 0x04	; 4
    7ce0:	8c 91       	ld	r24, X
    7ce2:	80 93 52 01 	sts	0x0152, r24
    7ce6:	e3 e0       	ldi	r30, 0x03	; 3
    7ce8:	f0 e0       	ldi	r31, 0x00	; 0
    7cea:	29 c0       	rjmp	.+82     	; 0x7d3e <usbFunctionSetup+0x112>
    7cec:	80 35       	cpi	r24, 0x50	; 80
    7cee:	58 e0       	ldi	r21, 0x08	; 8
    7cf0:	95 07       	cpc	r25, r21
    7cf2:	89 f4       	brne	.+34     	; 0x7d16 <usbFunctionSetup+0xea>
    7cf4:	12 96       	adiw	r26, 0x02	; 2
    7cf6:	8c 91       	ld	r24, X
    7cf8:	12 97       	sbiw	r26, 0x02	; 2
    7cfa:	80 93 50 01 	sts	0x0150, r24
    7cfe:	13 96       	adiw	r26, 0x03	; 3
    7d00:	8c 91       	ld	r24, X
    7d02:	13 97       	sbiw	r26, 0x03	; 3
    7d04:	80 93 51 01 	sts	0x0151, r24
    7d08:	14 96       	adiw	r26, 0x04	; 4
    7d0a:	8c 91       	ld	r24, X
    7d0c:	80 93 52 01 	sts	0x0152, r24
    7d10:	e2 e0       	ldi	r30, 0x02	; 2
    7d12:	f0 e0       	ldi	r31, 0x00	; 0
    7d14:	14 c0       	rjmp	.+40     	; 0x7d3e <usbFunctionSetup+0x112>
    7d16:	88 35       	cpi	r24, 0x58	; 88
    7d18:	91 05       	cpc	r25, r1
    7d1a:	09 f0       	breq	.+2      	; 0x7d1e <usbFunctionSetup+0xf2>
    7d1c:	b7 c0       	rjmp	.+366    	; 0x7e8c <usbFunctionSetup+0x260>
    7d1e:	12 96       	adiw	r26, 0x02	; 2
    7d20:	8c 91       	ld	r24, X
    7d22:	12 97       	sbiw	r26, 0x02	; 2
    7d24:	80 93 50 01 	sts	0x0150, r24
    7d28:	13 96       	adiw	r26, 0x03	; 3
    7d2a:	8c 91       	ld	r24, X
    7d2c:	13 97       	sbiw	r26, 0x03	; 3
    7d2e:	80 93 51 01 	sts	0x0151, r24
    7d32:	14 96       	adiw	r26, 0x04	; 4
    7d34:	8c 91       	ld	r24, X
    7d36:	80 93 52 01 	sts	0x0152, r24
    7d3a:	e1 e0       	ldi	r30, 0x01	; 1
    7d3c:	f0 e0       	ldi	r31, 0x00	; 0
    7d3e:	89 e0       	ldi	r24, 0x09	; 9
    7d40:	80 93 57 00 	sts	0x0057, r24
    7d44:	e4 91       	lpm	r30, Z
    7d46:	e0 93 53 01 	sts	0x0153, r30
    7d4a:	be c0       	rjmp	.+380    	; 0x7ec8 <usbFunctionSetup+0x29c>
    7d4c:	24 30       	cpi	r18, 0x04	; 4
    7d4e:	11 f0       	breq	.+4      	; 0x7d54 <usbFunctionSetup+0x128>
    7d50:	27 30       	cpi	r18, 0x07	; 7
    7d52:	39 f5       	brne	.+78     	; 0x7da2 <usbFunctionSetup+0x176>
    7d54:	80 91 0c 01 	lds	r24, 0x010C
    7d58:	88 23       	and	r24, r24
    7d5a:	09 f4       	brne	.+2      	; 0x7d5e <usbFunctionSetup+0x132>
    7d5c:	97 c0       	rjmp	.+302    	; 0x7e8c <usbFunctionSetup+0x260>
    7d5e:	80 91 0a 01 	lds	r24, 0x010A
    7d62:	81 11       	cpse	r24, r1
    7d64:	0e c0       	rjmp	.+28     	; 0x7d82 <usbFunctionSetup+0x156>
    7d66:	12 96       	adiw	r26, 0x02	; 2
    7d68:	4d 91       	ld	r20, X+
    7d6a:	5c 91       	ld	r21, X
    7d6c:	13 97       	sbiw	r26, 0x03	; 3
    7d6e:	60 e0       	ldi	r22, 0x00	; 0
    7d70:	70 e0       	ldi	r23, 0x00	; 0
    7d72:	40 93 59 01 	sts	0x0159, r20
    7d76:	50 93 5a 01 	sts	0x015A, r21
    7d7a:	60 93 5b 01 	sts	0x015B, r22
    7d7e:	70 93 5c 01 	sts	0x015C, r23
    7d82:	16 96       	adiw	r26, 0x06	; 6
    7d84:	8d 91       	ld	r24, X+
    7d86:	9c 91       	ld	r25, X
    7d88:	17 97       	sbiw	r26, 0x07	; 7
    7d8a:	90 93 09 01 	sts	0x0109, r25
    7d8e:	80 93 08 01 	sts	0x0108, r24
    7d92:	24 30       	cpi	r18, 0x04	; 4
    7d94:	11 f4       	brne	.+4      	; 0x7d9a <usbFunctionSetup+0x16e>
    7d96:	82 e0       	ldi	r24, 0x02	; 2
    7d98:	01 c0       	rjmp	.+2      	; 0x7d9c <usbFunctionSetup+0x170>
    7d9a:	83 e0       	ldi	r24, 0x03	; 3
    7d9c:	80 93 0b 01 	sts	0x010B, r24
    7da0:	95 c0       	rjmp	.+298    	; 0x7ecc <usbFunctionSetup+0x2a0>
    7da2:	25 30       	cpi	r18, 0x05	; 5
    7da4:	61 f4       	brne	.+24     	; 0x7dbe <usbFunctionSetup+0x192>
    7da6:	80 91 0c 01 	lds	r24, 0x010C
    7daa:	81 30       	cpi	r24, 0x01	; 1
    7dac:	21 f4       	brne	.+8      	; 0x7db6 <usbFunctionSetup+0x18a>
    7dae:	82 e0       	ldi	r24, 0x02	; 2
    7db0:	80 93 0c 01 	sts	0x010C, r24
    7db4:	6f c0       	rjmp	.+222    	; 0x7e94 <usbFunctionSetup+0x268>
    7db6:	81 e0       	ldi	r24, 0x01	; 1
    7db8:	80 93 50 01 	sts	0x0150, r24
    7dbc:	88 c0       	rjmp	.+272    	; 0x7ece <usbFunctionSetup+0x2a2>
    7dbe:	26 30       	cpi	r18, 0x06	; 6
    7dc0:	19 f0       	breq	.+6      	; 0x7dc8 <usbFunctionSetup+0x19c>
    7dc2:	28 30       	cpi	r18, 0x08	; 8
    7dc4:	09 f0       	breq	.+2      	; 0x7dc8 <usbFunctionSetup+0x19c>
    7dc6:	4b c0       	rjmp	.+150    	; 0x7e5e <usbFunctionSetup+0x232>
    7dc8:	80 91 0c 01 	lds	r24, 0x010C
    7dcc:	82 30       	cpi	r24, 0x02	; 2
    7dce:	09 f0       	breq	.+2      	; 0x7dd2 <usbFunctionSetup+0x1a6>
    7dd0:	5d c0       	rjmp	.+186    	; 0x7e8c <usbFunctionSetup+0x260>
    7dd2:	80 91 0a 01 	lds	r24, 0x010A
    7dd6:	81 11       	cpse	r24, r1
    7dd8:	0e c0       	rjmp	.+28     	; 0x7df6 <usbFunctionSetup+0x1ca>
    7dda:	12 96       	adiw	r26, 0x02	; 2
    7ddc:	4d 91       	ld	r20, X+
    7dde:	5c 91       	ld	r21, X
    7de0:	13 97       	sbiw	r26, 0x03	; 3
    7de2:	60 e0       	ldi	r22, 0x00	; 0
    7de4:	70 e0       	ldi	r23, 0x00	; 0
    7de6:	40 93 59 01 	sts	0x0159, r20
    7dea:	50 93 5a 01 	sts	0x015A, r21
    7dee:	60 93 5b 01 	sts	0x015B, r22
    7df2:	70 93 5c 01 	sts	0x015C, r23
    7df6:	26 30       	cpi	r18, 0x06	; 6
    7df8:	01 f5       	brne	.+64     	; 0x7e3a <usbFunctionSetup+0x20e>
    7dfa:	15 96       	adiw	r26, 0x05	; 5
    7dfc:	4c 91       	ld	r20, X
    7dfe:	15 97       	sbiw	r26, 0x05	; 5
    7e00:	84 2f       	mov	r24, r20
    7e02:	8f 70       	andi	r24, 0x0F	; 15
    7e04:	80 93 5d 01 	sts	0x015D, r24
    7e08:	14 96       	adiw	r26, 0x04	; 4
    7e0a:	2c 91       	ld	r18, X
    7e0c:	14 97       	sbiw	r26, 0x04	; 4
    7e0e:	80 91 5e 01 	lds	r24, 0x015E
    7e12:	90 91 5f 01 	lds	r25, 0x015F
    7e16:	82 2b       	or	r24, r18
    7e18:	24 2f       	mov	r18, r20
    7e1a:	20 7f       	andi	r18, 0xF0	; 240
    7e1c:	50 e1       	ldi	r21, 0x10	; 16
    7e1e:	25 9f       	mul	r18, r21
    7e20:	90 01       	movw	r18, r0
    7e22:	11 24       	eor	r1, r1
    7e24:	82 2b       	or	r24, r18
    7e26:	93 2b       	or	r25, r19
    7e28:	90 93 5f 01 	sts	0x015F, r25
    7e2c:	80 93 5e 01 	sts	0x015E, r24
    7e30:	40 fd       	sbrc	r20, 0
    7e32:	80 93 58 01 	sts	0x0158, r24
    7e36:	81 e0       	ldi	r24, 0x01	; 1
    7e38:	07 c0       	rjmp	.+14     	; 0x7e48 <usbFunctionSetup+0x21c>
    7e3a:	10 92 5f 01 	sts	0x015F, r1
    7e3e:	10 92 5e 01 	sts	0x015E, r1
    7e42:	10 92 5d 01 	sts	0x015D, r1
    7e46:	84 e0       	ldi	r24, 0x04	; 4
    7e48:	80 93 0b 01 	sts	0x010B, r24
    7e4c:	16 96       	adiw	r26, 0x06	; 6
    7e4e:	8d 91       	ld	r24, X+
    7e50:	9c 91       	ld	r25, X
    7e52:	17 97       	sbiw	r26, 0x07	; 7
    7e54:	90 93 09 01 	sts	0x0109, r25
    7e58:	80 93 08 01 	sts	0x0108, r24
    7e5c:	37 c0       	rjmp	.+110    	; 0x7ecc <usbFunctionSetup+0x2a0>
    7e5e:	29 30       	cpi	r18, 0x09	; 9
    7e60:	b9 f4       	brne	.+46     	; 0x7e90 <usbFunctionSetup+0x264>
    7e62:	80 91 0c 01 	lds	r24, 0x010C
    7e66:	88 23       	and	r24, r24
    7e68:	89 f0       	breq	.+34     	; 0x7e8c <usbFunctionSetup+0x260>
    7e6a:	81 e0       	ldi	r24, 0x01	; 1
    7e6c:	80 93 0a 01 	sts	0x010A, r24
    7e70:	12 96       	adiw	r26, 0x02	; 2
    7e72:	8d 91       	ld	r24, X+
    7e74:	9c 91       	ld	r25, X
    7e76:	13 97       	sbiw	r26, 0x03	; 3
    7e78:	a0 e0       	ldi	r26, 0x00	; 0
    7e7a:	b0 e0       	ldi	r27, 0x00	; 0
    7e7c:	80 93 59 01 	sts	0x0159, r24
    7e80:	90 93 5a 01 	sts	0x015A, r25
    7e84:	a0 93 5b 01 	sts	0x015B, r26
    7e88:	b0 93 5c 01 	sts	0x015C, r27
    7e8c:	80 e0       	ldi	r24, 0x00	; 0
    7e8e:	1f c0       	rjmp	.+62     	; 0x7ece <usbFunctionSetup+0x2a2>
    7e90:	2a 30       	cpi	r18, 0x0A	; 10
    7e92:	21 f4       	brne	.+8      	; 0x7e9c <usbFunctionSetup+0x270>
    7e94:	10 92 50 01 	sts	0x0150, r1
    7e98:	81 e0       	ldi	r24, 0x01	; 1
    7e9a:	19 c0       	rjmp	.+50     	; 0x7ece <usbFunctionSetup+0x2a2>
    7e9c:	85 ef       	ldi	r24, 0xF5	; 245
    7e9e:	82 0f       	add	r24, r18
    7ea0:	82 30       	cpi	r24, 0x02	; 2
    7ea2:	a0 f3       	brcs	.-24     	; 0x7e8c <usbFunctionSetup+0x260>
    7ea4:	2d 30       	cpi	r18, 0x0D	; 13
    7ea6:	b1 f3       	breq	.-20     	; 0x7e94 <usbFunctionSetup+0x268>
    7ea8:	2e 30       	cpi	r18, 0x0E	; 14
    7eaa:	81 f3       	breq	.-32     	; 0x7e8c <usbFunctionSetup+0x260>
    7eac:	81 ef       	ldi	r24, 0xF1	; 241
    7eae:	82 0f       	add	r24, r18
    7eb0:	82 30       	cpi	r24, 0x02	; 2
    7eb2:	60 f0       	brcs	.+24     	; 0x7ecc <usbFunctionSetup+0x2a0>
    7eb4:	2f 37       	cpi	r18, 0x7F	; 127
    7eb6:	51 f7       	brne	.-44     	; 0x7e8c <usbFunctionSetup+0x260>
    7eb8:	10 92 50 01 	sts	0x0150, r1
    7ebc:	10 92 51 01 	sts	0x0151, r1
    7ec0:	10 92 52 01 	sts	0x0152, r1
    7ec4:	10 92 53 01 	sts	0x0153, r1
    7ec8:	84 e0       	ldi	r24, 0x04	; 4
    7eca:	01 c0       	rjmp	.+2      	; 0x7ece <usbFunctionSetup+0x2a2>
    7ecc:	8f ef       	ldi	r24, 0xFF	; 255
    7ece:	20 e5       	ldi	r18, 0x50	; 80
    7ed0:	31 e0       	ldi	r19, 0x01	; 1
    7ed2:	30 93 1d 01 	sts	0x011D, r19
    7ed6:	20 93 1c 01 	sts	0x011C, r18
    7eda:	08 95       	ret

00007edc <usbFunctionRead>:
    7edc:	cf 93       	push	r28
    7ede:	c6 2f       	mov	r28, r22
    7ee0:	20 91 0b 01 	lds	r18, 0x010B
    7ee4:	3e ef       	ldi	r19, 0xFE	; 254
    7ee6:	32 0f       	add	r19, r18
    7ee8:	32 30       	cpi	r19, 0x02	; 2
    7eea:	60 f5       	brcc	.+88     	; 0x7f44 <usbFunctionRead+0x68>
    7eec:	22 30       	cpi	r18, 0x02	; 2
    7eee:	59 f4       	brne	.+22     	; 0x7f06 <usbFunctionRead+0x2a>
    7ef0:	20 91 59 01 	lds	r18, 0x0159
    7ef4:	30 91 5a 01 	lds	r19, 0x015A
    7ef8:	40 91 5b 01 	lds	r20, 0x015B
    7efc:	50 91 5c 01 	lds	r21, 0x015C
    7f00:	0e 94 94 3c 	call	0x7928	; 0x7928 <memory_bl_readFlashPage>
    7f04:	06 c0       	rjmp	.+12     	; 0x7f12 <usbFunctionRead+0x36>
    7f06:	40 91 59 01 	lds	r20, 0x0159
    7f0a:	50 91 5a 01 	lds	r21, 0x015A
    7f0e:	0e 94 c7 3c 	call	0x798e	; 0x798e <memory_bl_readEEpromPage>
    7f12:	40 91 59 01 	lds	r20, 0x0159
    7f16:	50 91 5a 01 	lds	r21, 0x015A
    7f1a:	60 91 5b 01 	lds	r22, 0x015B
    7f1e:	70 91 5c 01 	lds	r23, 0x015C
    7f22:	4c 0f       	add	r20, r28
    7f24:	51 1d       	adc	r21, r1
    7f26:	61 1d       	adc	r22, r1
    7f28:	71 1d       	adc	r23, r1
    7f2a:	40 93 59 01 	sts	0x0159, r20
    7f2e:	50 93 5a 01 	sts	0x015A, r21
    7f32:	60 93 5b 01 	sts	0x015B, r22
    7f36:	70 93 5c 01 	sts	0x015C, r23
    7f3a:	c8 30       	cpi	r28, 0x08	; 8
    7f3c:	28 f4       	brcc	.+10     	; 0x7f48 <usbFunctionRead+0x6c>
    7f3e:	10 92 0b 01 	sts	0x010B, r1
    7f42:	02 c0       	rjmp	.+4      	; 0x7f48 <usbFunctionRead+0x6c>
    7f44:	8f ef       	ldi	r24, 0xFF	; 255
    7f46:	01 c0       	rjmp	.+2      	; 0x7f4a <usbFunctionRead+0x6e>
    7f48:	8c 2f       	mov	r24, r28
    7f4a:	cf 91       	pop	r28
    7f4c:	08 95       	ret

00007f4e <usbFunctionWrite>:
    7f4e:	cf 93       	push	r28
    7f50:	c6 2f       	mov	r28, r22
    7f52:	20 91 0b 01 	lds	r18, 0x010B
    7f56:	21 30       	cpi	r18, 0x01	; 1
    7f58:	49 f0       	breq	.+18     	; 0x7f6c <usbFunctionWrite+0x1e>
    7f5a:	24 30       	cpi	r18, 0x04	; 4
    7f5c:	a9 f5       	brne	.+106    	; 0x7fc8 <usbFunctionWrite+0x7a>
    7f5e:	40 91 59 01 	lds	r20, 0x0159
    7f62:	50 91 5a 01 	lds	r21, 0x015A
    7f66:	0e 94 cc 3d 	call	0x7b98	; 0x7b98 <memory_bl_writeEEpromPage>
    7f6a:	0a c0       	rjmp	.+20     	; 0x7f80 <usbFunctionWrite+0x32>
    7f6c:	20 91 59 01 	lds	r18, 0x0159
    7f70:	30 91 5a 01 	lds	r19, 0x015A
    7f74:	40 91 5b 01 	lds	r20, 0x015B
    7f78:	50 91 5c 01 	lds	r21, 0x015C
    7f7c:	0e 94 ea 3c 	call	0x79d4	; 0x79d4 <memory_bl_writeFlashPage>
    7f80:	80 91 59 01 	lds	r24, 0x0159
    7f84:	90 91 5a 01 	lds	r25, 0x015A
    7f88:	a0 91 5b 01 	lds	r26, 0x015B
    7f8c:	b0 91 5c 01 	lds	r27, 0x015C
    7f90:	8c 0f       	add	r24, r28
    7f92:	91 1d       	adc	r25, r1
    7f94:	a1 1d       	adc	r26, r1
    7f96:	b1 1d       	adc	r27, r1
    7f98:	80 93 59 01 	sts	0x0159, r24
    7f9c:	90 93 5a 01 	sts	0x015A, r25
    7fa0:	a0 93 5b 01 	sts	0x015B, r26
    7fa4:	b0 93 5c 01 	sts	0x015C, r27
    7fa8:	80 91 08 01 	lds	r24, 0x0108
    7fac:	90 91 09 01 	lds	r25, 0x0109
    7fb0:	8c 1b       	sub	r24, r28
    7fb2:	91 09       	sbc	r25, r1
    7fb4:	90 93 09 01 	sts	0x0109, r25
    7fb8:	80 93 08 01 	sts	0x0108, r24
    7fbc:	89 2b       	or	r24, r25
    7fbe:	31 f4       	brne	.+12     	; 0x7fcc <usbFunctionWrite+0x7e>
    7fc0:	10 92 0b 01 	sts	0x010B, r1
    7fc4:	81 e0       	ldi	r24, 0x01	; 1
    7fc6:	03 c0       	rjmp	.+6      	; 0x7fce <usbFunctionWrite+0x80>
    7fc8:	8f ef       	ldi	r24, 0xFF	; 255
    7fca:	01 c0       	rjmp	.+2      	; 0x7fce <usbFunctionWrite+0x80>
    7fcc:	80 e0       	ldi	r24, 0x00	; 0
    7fce:	cf 91       	pop	r28
    7fd0:	08 95       	ret

Disassembly of section .df4iah_bl_clkpullpwm:

00007780 <clkPullPwm_bl_init>:
    7780:	e4 e6       	ldi	r30, 0x64	; 100
    7782:	f0 e0       	ldi	r31, 0x00	; 0
    7784:	80 81       	ld	r24, Z
    7786:	8f 7d       	andi	r24, 0xDF	; 223
    7788:	80 83       	st	Z, r24
    778a:	16 bc       	out	0x26, r1	; 38
    778c:	8a eb       	ldi	r24, 0xBA	; 186
    778e:	88 bd       	out	0x28, r24	; 40
    7790:	83 e2       	ldi	r24, 0x23	; 35
    7792:	84 bd       	out	0x24, r24	; 36
    7794:	81 e0       	ldi	r24, 0x01	; 1
    7796:	85 bd       	out	0x25, r24	; 37
    7798:	55 9a       	sbi	0x0a, 5	; 10
    779a:	45 9a       	sbi	0x08, 5	; 8
    779c:	3d 9a       	sbi	0x07, 5	; 7
    779e:	08 95       	ret

000077a0 <clkPullPwm_bl_close>:
    77a0:	3d 98       	cbi	0x07, 5	; 7
    77a2:	55 98       	cbi	0x0a, 5	; 10
    77a4:	15 bc       	out	0x25, r1	; 37
    77a6:	14 bc       	out	0x24, r1	; 36
    77a8:	18 bc       	out	0x28, r1	; 40
    77aa:	16 bc       	out	0x26, r1	; 38
    77ac:	e4 e6       	ldi	r30, 0x64	; 100
    77ae:	f0 e0       	ldi	r31, 0x00	; 0
    77b0:	80 81       	ld	r24, Z
    77b2:	80 62       	ori	r24, 0x20	; 32
    77b4:	80 83       	st	Z, r24
    77b6:	08 95       	ret

000077b8 <clkPullPwm_bl_setRatio>:
    77b8:	88 bd       	out	0x28, r24	; 40
    77ba:	08 95       	ret

000077bc <clkPullPwm_bl_togglePin>:
    77bc:	80 e2       	ldi	r24, 0x20	; 32
    77be:	86 b9       	out	0x06, r24	; 6
    77c0:	08 95       	ret

000077c2 <clkPullPwm_bl_endlessTogglePin>:
    77c2:	80 e2       	ldi	r24, 0x20	; 32
    77c4:	86 b9       	out	0x06, r24	; 6
    77c6:	e7 e8       	ldi	r30, 0x87	; 135
    77c8:	f3 e1       	ldi	r31, 0x13	; 19
    77ca:	31 97       	sbiw	r30, 0x01	; 1
    77cc:	f1 f7       	brne	.-4      	; 0x77ca <clkPullPwm_bl_endlessTogglePin+0x8>
    77ce:	00 c0       	rjmp	.+0      	; 0x77d0 <clkPullPwm_bl_endlessTogglePin+0xe>
    77d0:	00 00       	nop
    77d2:	a8 95       	wdr
    77d4:	f7 cf       	rjmp	.-18     	; 0x77c4 <clkPullPwm_bl_endlessTogglePin+0x2>
